GAS LISTING /tmp/ccZe2l6Y.s 			page 1


   1              		.file	"KruzniBafer.cpp"
   2              		.option pic
   3              		.option norelax
   4              		.text
   5              	.Ltext0:
   6              		.align	2
   7              		.globl	_ZN11KruzniBafer15NapraviInstancuEv
   9              	_ZN11KruzniBafer15NapraviInstancuEv:
  10              	.LFB20:
  11              		.file 1 "src/KruzniBafer.cpp"
   1:src/KruzniBafer.cpp **** #include "../h/KruzniBafer.hpp"
   2:src/KruzniBafer.cpp **** 
   3:src/KruzniBafer.cpp **** KruzniBafer *KruzniBafer::NapraviInstancu() {
  12              		.loc 1 3 45
  13              		.cfi_startproc
  14 0000 130101FE 		addi	sp,sp,-32
  15              		.cfi_def_cfa_offset 32
  16 0004 233C1100 		sd	ra,24(sp)
  17 0008 23388100 		sd	s0,16(sp)
  18 000c 23349100 		sd	s1,8(sp)
  19              		.cfi_offset 1, -8
  20              		.cfi_offset 8, -16
  21              		.cfi_offset 9, -24
  22 0010 13040102 		addi	s0,sp,32
  23              		.cfi_def_cfa 8, 0
   4:src/KruzniBafer.cpp ****     KruzniBafer* vrati = (KruzniBafer*)AlokatorMemorije::dohvatiInstancu()->mem_alloc(sizeof(Kruzni
  24              		.loc 1 4 5
  25              		.loc 1 4 86 is_stmt 0
  26 0014 97000000 		call	_ZN16AlokatorMemorije15dohvatiInstancuEv@plt
  26      E7800000 
  27              	.LVL0:
  28 001c 93058042 		li	a1,1064
  29 0020 97000000 		call	_ZN16AlokatorMemorije9mem_allocEm@plt
  29      E7800000 
  30              	.LVL1:
  31 0028 93040500 		mv	s1,a0
  32              	.LVL2:
   5:src/KruzniBafer.cpp ****     vrati->pocetak = 0;
  33              		.loc 1 5 5 is_stmt 1
  34              		.loc 1 5 20 is_stmt 0
  35 002c 23300500 		sd	zero,0(a0)
   6:src/KruzniBafer.cpp ****     vrati->kraj = 0;
  36              		.loc 1 6 5 is_stmt 1
  37              		.loc 1 6 17 is_stmt 0
  38 0030 23340500 		sd	zero,8(a0)
   7:src/KruzniBafer.cpp ****     vrati->brojac = 0;
  39              		.loc 1 7 5 is_stmt 1
  40              		.loc 1 7 19 is_stmt 0
  41 0034 23380500 		sd	zero,16(a0)
   8:src/KruzniBafer.cpp ****     vrati->zauzetostBafera = Semafor::OtvoriSemafor(0);
  42              		.loc 1 8 5 is_stmt 1
  43              		.loc 1 8 52 is_stmt 0
  44 0038 13050000 		li	a0,0
  45 003c 97000000 		call	_ZN7Semafor13OtvoriSemaforEj@plt
  45      E7800000 
  46              	.LVL3:
  47              		.loc 1 8 28
GAS LISTING /tmp/ccZe2l6Y.s 			page 2


  48 0044 23BCA440 		sd	a0,1048(s1)
   9:src/KruzniBafer.cpp ****     vrati->sis = false;
  49              		.loc 1 9 5 is_stmt 1
  50              		.loc 1 9 16 is_stmt 0
  51 0048 23800442 		sb	zero,1056(s1)
  10:src/KruzniBafer.cpp ****     return vrati;
  52              		.loc 1 10 5 is_stmt 1
  11:src/KruzniBafer.cpp **** }
  53              		.loc 1 11 1 is_stmt 0
  54 004c 13850400 		mv	a0,s1
  55 0050 83308101 		ld	ra,24(sp)
  56              		.cfi_restore 1
  57 0054 03340101 		ld	s0,16(sp)
  58              		.cfi_restore 8
  59              		.cfi_def_cfa 2, 32
  60 0058 83348100 		ld	s1,8(sp)
  61              		.cfi_restore 9
  62              	.LVL4:
  63 005c 13010102 		addi	sp,sp,32
  64              		.cfi_def_cfa_offset 0
  65 0060 67800000 		jr	ra
  66              		.cfi_endproc
  67              	.LFE20:
  69              		.align	2
  70              		.globl	_ZN11KruzniBafer4putcEc
  72              	_ZN11KruzniBafer4putcEc:
  73              	.LFB21:
  12:src/KruzniBafer.cpp **** 
  13:src/KruzniBafer.cpp **** void KruzniBafer::putc(char c) {
  74              		.loc 1 13 32 is_stmt 1
  75              		.cfi_startproc
  76              	.LVL5:
  14:src/KruzniBafer.cpp ****     if(brojac != VELICINA_BAFERA){
  77              		.loc 1 14 5
  78              		.loc 1 14 8 is_stmt 0
  79 0064 83370501 		ld	a5,16(a0)
  80              		.loc 1 14 5
  81 0068 13070040 		li	a4,1024
  82 006c 6394E700 		bne	a5,a4,.L9
  83 0070 67800000 		ret
  84              	.L9:
  13:src/KruzniBafer.cpp ****     if(brojac != VELICINA_BAFERA){
  85              		.loc 1 13 32
  86 0074 130101FF 		addi	sp,sp,-16
  87              		.cfi_def_cfa_offset 16
  88 0078 23341100 		sd	ra,8(sp)
  89 007c 23308100 		sd	s0,0(sp)
  90              		.cfi_offset 1, -8
  91              		.cfi_offset 8, -16
  92 0080 13040101 		addi	s0,sp,16
  93              		.cfi_def_cfa 8, 0
  15:src/KruzniBafer.cpp ****         bafer[kraj++] = c;
  94              		.loc 1 15 9 is_stmt 1
  95              		.loc 1 15 15 is_stmt 0
  96 0084 03378500 		ld	a4,8(a0)
  97              		.loc 1 15 19
  98 0088 93061700 		addi	a3,a4,1
GAS LISTING /tmp/ccZe2l6Y.s 			page 3


  99              		.loc 1 15 23
 100 008c 3307E500 		add	a4,a0,a4
 101 0090 230CB700 		sb	a1,24(a4)
  16:src/KruzniBafer.cpp ****         kraj %= VELICINA_BAFERA;
 102              		.loc 1 16 9 is_stmt 1
 103              		.loc 1 16 14 is_stmt 0
 104 0094 13F7F63F 		andi	a4,a3,1023
 105 0098 2334E500 		sd	a4,8(a0)
  17:src/KruzniBafer.cpp ****         brojac++;
 106              		.loc 1 17 9 is_stmt 1
 107              		.loc 1 17 15 is_stmt 0
 108 009c 93871700 		addi	a5,a5,1
 109 00a0 2338F500 		sd	a5,16(a0)
  18:src/KruzniBafer.cpp ****         zauzetostBafera->Signal();
 110              		.loc 1 18 9 is_stmt 1
 111              		.loc 1 18 32 is_stmt 0
 112 00a4 03358541 		ld	a0,1048(a0)
 113              	.LVL6:
 114 00a8 97000000 		call	_ZN7Semafor6SignalEv@plt
 114      E7800000 
 115              	.LVL7:
  19:src/KruzniBafer.cpp ****     }
  20:src/KruzniBafer.cpp **** }
 116              		.loc 1 20 1
 117 00b0 83308100 		ld	ra,8(sp)
 118              		.cfi_restore 1
 119 00b4 03340100 		ld	s0,0(sp)
 120              		.cfi_restore 8
 121              		.cfi_def_cfa 2, 16
 122 00b8 13010101 		addi	sp,sp,16
 123              		.cfi_def_cfa_offset 0
 124 00bc 67800000 		jr	ra
 125              		.cfi_endproc
 126              	.LFE21:
 128              		.align	2
 129              		.globl	_ZN11KruzniBafer4getcEv
 131              	_ZN11KruzniBafer4getcEv:
 132              	.LFB22:
  21:src/KruzniBafer.cpp **** 
  22:src/KruzniBafer.cpp **** char KruzniBafer::getc() {
 133              		.loc 1 22 26 is_stmt 1
 134              		.cfi_startproc
 135              	.LVL8:
 136 00c0 130101FE 		addi	sp,sp,-32
 137              		.cfi_def_cfa_offset 32
 138 00c4 233C1100 		sd	ra,24(sp)
 139 00c8 23388100 		sd	s0,16(sp)
 140 00cc 23349100 		sd	s1,8(sp)
 141              		.cfi_offset 1, -8
 142              		.cfi_offset 8, -16
 143              		.cfi_offset 9, -24
 144 00d0 13040102 		addi	s0,sp,32
 145              		.cfi_def_cfa 8, 0
 146 00d4 93040500 		mv	s1,a0
  23:src/KruzniBafer.cpp ****     if(!sis)zauzetostBafera->Wait();
 147              		.loc 1 23 5
 148              		.loc 1 23 9 is_stmt 0
GAS LISTING /tmp/ccZe2l6Y.s 			page 4


 149 00d8 83470542 		lbu	a5,1056(a0)
 150              		.loc 1 23 5
 151 00dc 638E0702 		beqz	a5,.L13
 152              	.LVL9:
 153              	.L11:
  24:src/KruzniBafer.cpp ****     char c = bafer[pocetak++];
 154              		.loc 1 24 5 is_stmt 1
 155              		.loc 1 24 20 is_stmt 0
 156 00e0 83B70400 		ld	a5,0(s1)
 157              		.loc 1 24 27
 158 00e4 13871700 		addi	a4,a5,1
 159              		.loc 1 24 29
 160 00e8 B387F400 		add	a5,s1,a5
 161 00ec 03C58701 		lbu	a0,24(a5)
 162              	.LVL10:
  25:src/KruzniBafer.cpp ****     pocetak %= VELICINA_BAFERA;
 163              		.loc 1 25 5 is_stmt 1
 164              		.loc 1 25 13 is_stmt 0
 165 00f0 9377F73F 		andi	a5,a4,1023
 166 00f4 23B0F400 		sd	a5,0(s1)
  26:src/KruzniBafer.cpp ****     brojac--;
 167              		.loc 1 26 5 is_stmt 1
 168 00f8 83B70401 		ld	a5,16(s1)
 169              		.loc 1 26 11 is_stmt 0
 170 00fc 9387F7FF 		addi	a5,a5,-1
 171 0100 23B8F400 		sd	a5,16(s1)
  27:src/KruzniBafer.cpp ****     return c;
 172              		.loc 1 27 5 is_stmt 1
  28:src/KruzniBafer.cpp **** }
 173              		.loc 1 28 1 is_stmt 0
 174 0104 83308101 		ld	ra,24(sp)
 175              		.cfi_remember_state
 176              		.cfi_restore 1
 177 0108 03340101 		ld	s0,16(sp)
 178              		.cfi_restore 8
 179              		.cfi_def_cfa 2, 32
 180 010c 83348100 		ld	s1,8(sp)
 181              		.cfi_restore 9
 182              	.LVL11:
 183 0110 13010102 		addi	sp,sp,32
 184              		.cfi_def_cfa_offset 0
 185 0114 67800000 		jr	ra
 186              	.LVL12:
 187              	.L13:
 188              		.cfi_restore_state
  23:src/KruzniBafer.cpp ****     char c = bafer[pocetak++];
 189              		.loc 1 23 13 is_stmt 1 discriminator 1
  23:src/KruzniBafer.cpp ****     char c = bafer[pocetak++];
 190              		.loc 1 23 34 is_stmt 0 discriminator 1
 191 0118 03358541 		ld	a0,1048(a0)
 192 011c 97000000 		call	_ZN7Semafor4WaitEv@plt
 192      E7800000 
 193              	.LVL13:
 194 0124 6FF0DFFB 		j	.L11
 195              		.cfi_endproc
 196              	.LFE22:
 198              		.align	2
GAS LISTING /tmp/ccZe2l6Y.s 			page 5


 199              		.globl	_ZN11KruzniBafer8IsprazniEv
 201              	_ZN11KruzniBafer8IsprazniEv:
 202              	.LFB23:
  29:src/KruzniBafer.cpp **** 
  30:src/KruzniBafer.cpp **** void KruzniBafer::Isprazni() {
 203              		.loc 1 30 30 is_stmt 1
 204              		.cfi_startproc
 205              	.LVL14:
 206 0128 130101FE 		addi	sp,sp,-32
 207              		.cfi_def_cfa_offset 32
 208 012c 233C1100 		sd	ra,24(sp)
 209 0130 23388100 		sd	s0,16(sp)
 210 0134 23349100 		sd	s1,8(sp)
 211 0138 23302101 		sd	s2,0(sp)
 212              		.cfi_offset 1, -8
 213              		.cfi_offset 8, -16
 214              		.cfi_offset 9, -24
 215              		.cfi_offset 18, -32
 216 013c 13040102 		addi	s0,sp,32
 217              		.cfi_def_cfa 8, 0
 218 0140 93040500 		mv	s1,a0
  31:src/KruzniBafer.cpp ****     sis = true;
 219              		.loc 1 31 5
 220              		.loc 1 31 9 is_stmt 0
 221 0144 93071000 		li	a5,1
 222 0148 2300F542 		sb	a5,1056(a0)
 223              	.LVL15:
 224              	.L16:
  32:src/KruzniBafer.cpp ****     while(brojac != 0){
 225              		.loc 1 32 5 is_stmt 1
 226              		.loc 1 32 18
 227              		.loc 1 32 11 is_stmt 0
 228 014c 83B70401 		ld	a5,16(s1)
 229              		.loc 1 32 18
 230 0150 638E0702 		beqz	a5,.L14
  33:src/KruzniBafer.cpp ****         if(*((char*)CONSOLE_STATUS) & CONSOLE_TX_STATUS_BIT){
 231              		.loc 1 33 9 is_stmt 1
 232              		.loc 1 33 12 is_stmt 0
 233 0154 97070000 		la	a5,CONSOLE_STATUS
 233      83B70700 
 234 015c 83B70700 		ld	a5,0(a5)
 235 0160 83C70700 		lbu	a5,0(a5)
 236              		.loc 1 33 9
 237 0164 93F70702 		andi	a5,a5,32
 238 0168 E38207FE 		beqz	a5,.L16
  34:src/KruzniBafer.cpp ****             *((char*)CONSOLE_TX_DATA) = this->getc();
 239              		.loc 1 34 13 is_stmt 1
 240 016c 97070000 		la	a5,CONSOLE_TX_DATA
 240      83B70700 
 241 0174 03B90700 		ld	s2,0(a5)
 242              		.loc 1 34 51 is_stmt 0
 243 0178 13850400 		mv	a0,s1
 244 017c 97000000 		call	_ZN11KruzniBafer4getcEv
 244      E7800000 
 245              	.LVL16:
 246              		.loc 1 34 39
 247 0184 2300A900 		sb	a0,0(s2)
GAS LISTING /tmp/ccZe2l6Y.s 			page 6


 248 0188 6FF05FFC 		j	.L16
 249              	.L14:
  35:src/KruzniBafer.cpp ****         }
  36:src/KruzniBafer.cpp ****     }
  37:src/KruzniBafer.cpp **** }
 250              		.loc 1 37 1
 251 018c 83308101 		ld	ra,24(sp)
 252              		.cfi_restore 1
 253 0190 03340101 		ld	s0,16(sp)
 254              		.cfi_restore 8
 255              		.cfi_def_cfa 2, 32
 256 0194 83348100 		ld	s1,8(sp)
 257              		.cfi_restore 9
 258              	.LVL17:
 259 0198 03390100 		ld	s2,0(sp)
 260              		.cfi_restore 18
 261 019c 13010102 		addi	sp,sp,32
 262              		.cfi_def_cfa_offset 0
 263 01a0 67800000 		jr	ra
 264              		.cfi_endproc
 265              	.LFE23:
 267              	.Letext0:
 268              		.file 2 "src/../h/../lib/hw.h"
 269              		.file 3 "src/../h/AlokatorMemorije.h"
 270              		.file 4 "src/../h/TCB.hpp"
 271              		.file 5 "src/../h/syscall_c.h"
 272              		.file 6 "src/../h/Semafor.hpp"
 273              		.file 7 "src/../h/KruzniBafer.hpp"
GAS LISTING /tmp/ccZe2l6Y.s 			page 7

