GAS LISTING /tmp/ccqjuQLl.s 			page 1


   1              		.file	"main.cpp"
   2              		.option pic
   3              		.option norelax
   4              		.text
   5              	.Ltext0:
   6              		.align	2
   7              		.globl	NitKonzola
   9              	NitKonzola:
  10              	.LFB32:
  11              		.file 1 "src/main.cpp"
   1:src/main.cpp  **** #include "../h/AlokatorMemorije.h"
   2:src/main.cpp  **** #include "../h/riscv.hpp"
   3:src/main.cpp  **** #include "../h/KruzniBafer.hpp"
   4:src/main.cpp  **** #include "../h/Scheduler.hpp"
   5:src/main.cpp  **** #include "../h/Semafor.hpp"
   6:src/main.cpp  **** #include "../h/syscall_c.h"
   7:src/main.cpp  **** #include "../h/syscall_cpp.hpp"
   8:src/main.cpp  **** #include "../h/TCB.hpp"
   9:src/main.cpp  **** #include "../lib/hw.h"
  10:src/main.cpp  **** #include "../lib/console.h"
  11:src/main.cpp  **** //#include "../test/Threads_C_API_test.hpp"
  12:src/main.cpp  **** #include "../test/printing.hpp"
  13:src/main.cpp  **** void userMain();
  14:src/main.cpp  **** 
  15:src/main.cpp  **** 
  16:src/main.cpp  **** KruzniBafer* RiscV::in = nullptr;
  17:src/main.cpp  **** KruzniBafer* RiscV::out = nullptr;
  18:src/main.cpp  **** 
  19:src/main.cpp  **** class A: public PeriodicThread{
  20:src/main.cpp  **** public:
  21:src/main.cpp  ****     A(time_t period): PeriodicThread(period){}
  22:src/main.cpp  ****     void periodicActivation() override{
  23:src/main.cpp  ****         putc('a');
  24:src/main.cpp  ****     }
  25:src/main.cpp  **** };
  26:src/main.cpp  **** 
  27:src/main.cpp  **** extern "C" void NitKonzola(void* a);
  28:src/main.cpp  **** extern "C" void User(void* a);
  29:src/main.cpp  **** 
  30:src/main.cpp  **** int main(){
  31:src/main.cpp  ****     RiscV::w_stvec((uint64) &RiscV::trap);
  32:src/main.cpp  ****     __asm__ volatile ("csrs stvec, 0x01");
  33:src/main.cpp  ****     TCB *nit;
  34:src/main.cpp  ****     thread_create_cpp(&nit, nullptr, nullptr);
  35:src/main.cpp  ****     TCB::running = nit;
  36:src/main.cpp  ****     RiscV::in = KruzniBafer::NapraviInstancu();
  37:src/main.cpp  ****     RiscV::out = KruzniBafer::NapraviInstancu();
  38:src/main.cpp  ****     TCB* obradi;
  39:src/main.cpp  ****     thread_create(&obradi, NitKonzola, nullptr);
  40:src/main.cpp  ****     //printInt((uint64)nit);
  41:src/main.cpp  ****     //__putc('\n');
  42:src/main.cpp  **** //    changeUser();
  43:src/main.cpp  **** 
  44:src/main.cpp  ****     /*KruzniBafer* kb = KruzniBafer::NapraviInstancu();
  45:src/main.cpp  ****     kb->putc(getc());
  46:src/main.cpp  ****     kb->putc(getc());
  47:src/main.cpp  ****     kb->putc(getc());
GAS LISTING /tmp/ccqjuQLl.s 			page 2


  48:src/main.cpp  ****     kb->putc(getc());
  49:src/main.cpp  ****     kb->putc(getc());
  50:src/main.cpp  **** 
  51:src/main.cpp  ****     __putc(kb->getc());
  52:src/main.cpp  ****     __putc(kb->getc());
  53:src/main.cpp  ****     __putc(kb->getc());
  54:src/main.cpp  ****     __putc(kb->getc());
  55:src/main.cpp  ****     __putc(kb->getc());*/
  56:src/main.cpp  **** 
  57:src/main.cpp  ****     //RiscV::NapraviBuffer();
  58:src/main.cpp  ****     //printInt((uint64)nit);
  59:src/main.cpp  ****     TCB* glavna;
  60:src/main.cpp  ****     thread_create(&glavna, User, nullptr);
  61:src/main.cpp  ****     //A* p = new A(5);
  62:src/main.cpp  ****     //p->start();
  63:src/main.cpp  ****     //p->join();
  64:src/main.cpp  ****     //time_sleep(100);
  65:src/main.cpp  ****     //p->terminate();
  66:src/main.cpp  ****     //while(!glavna->isGotov())thread_dispatch();
  67:src/main.cpp  ****     //AlokatorMemorije::dohvatiInstancu()->mem_free(nit);
  68:src/main.cpp  **** 	thread_join(glavna);
  69:src/main.cpp  ****     return 0;
  70:src/main.cpp  **** }
  71:src/main.cpp  **** 
  72:src/main.cpp  **** void NitKonzola(void* a){
  12              		.loc 1 72 25
  13              		.cfi_startproc
  14              	.LVL0:
  15              	.L6:
  73:src/main.cpp  ****     while(true){
  16              		.loc 1 73 5
  74:src/main.cpp  ****         if(*((char*)CONSOLE_STATUS) & CONSOLE_TX_STATUS_BIT){
  17              		.loc 1 74 9
  18              		.loc 1 74 12 is_stmt 0
  19 0000 97070000 		la	a5,CONSOLE_STATUS
  19      83B70700 
  20 0008 83B70700 		ld	a5,0(a5)
  21 000c 83C70700 		lbu	a5,0(a5)
  22              		.loc 1 74 9
  23 0010 93F70702 		andi	a5,a5,32
  24 0014 E38607FE 		beqz	a5,.L6
  72:src/main.cpp  ****     while(true){
  25              		.loc 1 72 25
  26 0018 130101FE 		addi	sp,sp,-32
  27              		.cfi_def_cfa_offset 32
  28 001c 233C1100 		sd	ra,24(sp)
  29 0020 23388100 		sd	s0,16(sp)
  30 0024 23349100 		sd	s1,8(sp)
  31              		.cfi_offset 1, -8
  32              		.cfi_offset 8, -16
  33              		.cfi_offset 9, -24
  34 0028 13040102 		addi	s0,sp,32
  35              		.cfi_def_cfa 8, 0
  36              	.LVL1:
  37              	.L5:
  75:src/main.cpp  ****             *((char*)CONSOLE_TX_DATA) = RiscV::out->getc();
  38              		.loc 1 75 13 is_stmt 1
GAS LISTING /tmp/ccqjuQLl.s 			page 3


  39 002c 97070000 		la	a5,CONSOLE_TX_DATA
  39      83B70700 
  40 0034 83B40700 		ld	s1,0(a5)
  41              		.loc 1 75 57 is_stmt 0
  42 0038 17050000 		ld	a0,.LANCHOR0
  42      03350500 
  43 0040 97000000 		call	_ZN11KruzniBafer4getcEv@plt
  43      E7800000 
  44              	.LVL2:
  45              		.loc 1 75 39
  46 0048 2380A400 		sb	a0,0(s1)
  47              	.L2:
  73:src/main.cpp  ****         if(*((char*)CONSOLE_STATUS) & CONSOLE_TX_STATUS_BIT){
  48              		.loc 1 73 5 is_stmt 1
  74:src/main.cpp  ****             *((char*)CONSOLE_TX_DATA) = RiscV::out->getc();
  49              		.loc 1 74 9
  74:src/main.cpp  ****             *((char*)CONSOLE_TX_DATA) = RiscV::out->getc();
  50              		.loc 1 74 12 is_stmt 0
  51 004c 97070000 		la	a5,CONSOLE_STATUS
  51      83B70700 
  52 0054 83B70700 		ld	a5,0(a5)
  53 0058 83C70700 		lbu	a5,0(a5)
  74:src/main.cpp  ****             *((char*)CONSOLE_TX_DATA) = RiscV::out->getc();
  54              		.loc 1 74 9
  55 005c 93F70702 		andi	a5,a5,32
  56 0060 E38607FE 		beqz	a5,.L2
  57 0064 6FF09FFC 		j	.L5
  58              		.cfi_endproc
  59              	.LFE32:
  61              		.align	2
  62              		.globl	User
  64              	User:
  65              	.LFB33:
  76:src/main.cpp  ****         }
  77:src/main.cpp  ****     }
  78:src/main.cpp  **** }
  79:src/main.cpp  **** 
  80:src/main.cpp  **** void User(void* a){
  66              		.loc 1 80 19 is_stmt 1
  67              		.cfi_startproc
  68              	.LVL3:
  69 0068 130101FF 		addi	sp,sp,-16
  70              		.cfi_def_cfa_offset 16
  71 006c 23341100 		sd	ra,8(sp)
  72 0070 23308100 		sd	s0,0(sp)
  73              		.cfi_offset 1, -8
  74              		.cfi_offset 8, -16
  75 0074 13040101 		addi	s0,sp,16
  76              		.cfi_def_cfa 8, 0
  81:src/main.cpp  ****     userMain();
  77              		.loc 1 81 5
  78              		.loc 1 81 13 is_stmt 0
  79 0078 97000000 		call	_Z8userMainv@plt
  79      E7800000 
  80              	.LVL4:
  82:src/main.cpp  **** }...
  81              		.loc 1 82 1
GAS LISTING /tmp/ccqjuQLl.s 			page 4


  82 0080 83308100 		ld	ra,8(sp)
  83              		.cfi_restore 1
  84 0084 03340100 		ld	s0,0(sp)
  85              		.cfi_restore 8
  86              		.cfi_def_cfa 2, 16
  87 0088 13010101 		addi	sp,sp,16
  88              		.cfi_def_cfa_offset 0
  89 008c 67800000 		jr	ra
  90              		.cfi_endproc
  91              	.LFE33:
  93              		.align	2
  94              		.globl	main
  96              	main:
  97              	.LFB31:
  30:src/main.cpp  **** int main(){
  98              		.loc 1 30 11 is_stmt 1
  99              		.cfi_startproc
 100 0090 130101FC 		addi	sp,sp,-64
 101              		.cfi_def_cfa_offset 64
 102 0094 233C1102 		sd	ra,56(sp)
 103 0098 23388102 		sd	s0,48(sp)
 104 009c 23349102 		sd	s1,40(sp)
 105              		.cfi_offset 1, -8
 106              		.cfi_offset 8, -16
 107              		.cfi_offset 9, -24
 108 00a0 13040104 		addi	s0,sp,64
 109              		.cfi_def_cfa 8, 0
  31:src/main.cpp  ****     RiscV::w_stvec((uint64) &RiscV::trap);
 110              		.loc 1 31 5
  31:src/main.cpp  ****     RiscV::w_stvec((uint64) &RiscV::trap);
 111              		.loc 1 31 19 is_stmt 0
 112 00a4 97070000 		la	a5,_ZN5RiscV4trapEv
 112      83B70700 
 113              	.LVL5:
 114              	.LBB4:
 115              	.LBB5:
 116              		.file 2 "src/../h/riscv.hpp"
   1:src/../h/riscv.hpp **** #ifndef riscv_hpp
   2:src/../h/riscv.hpp **** #define riscv_hpp
   3:src/../h/riscv.hpp **** 
   4:src/../h/riscv.hpp **** #include "../lib/hw.h"
   5:src/../h/riscv.hpp **** #include "TCB.hpp"
   6:src/../h/riscv.hpp **** #include "../lib/console.h"
   7:src/../h/riscv.hpp **** #include "STL.hpp"
   8:src/../h/riscv.hpp **** #include "KruzniBafer.hpp"
   9:src/../h/riscv.hpp **** #include "../test/printing.hpp"
  10:src/../h/riscv.hpp **** 
  11:src/../h/riscv.hpp **** class RiscV{
  12:src/../h/riscv.hpp **** private:
  13:src/../h/riscv.hpp **** 
  14:src/../h/riscv.hpp ****     static void handleSupervisorTrap();
  15:src/../h/riscv.hpp **** 
  16:src/../h/riscv.hpp ****     void HandleTimer();
  17:src/../h/riscv.hpp **** 
  18:src/../h/riscv.hpp ****     void HandleConsole();
  19:src/../h/riscv.hpp **** public:
  20:src/../h/riscv.hpp **** 
GAS LISTING /tmp/ccqjuQLl.s 			page 5


  21:src/../h/riscv.hpp ****     static KruzniBafer* in;
  22:src/../h/riscv.hpp ****     static KruzniBafer* out;
  23:src/../h/riscv.hpp **** 
  24:src/../h/riscv.hpp ****     static uint64 r_scause();
  25:src/../h/riscv.hpp **** 
  26:src/../h/riscv.hpp ****     static void mc_sip(uint64);
  27:src/../h/riscv.hpp **** 
  28:src/../h/riscv.hpp ****     static void popSppSpie();
  29:src/../h/riscv.hpp **** 
  30:src/../h/riscv.hpp ****     static uint64 r_sepc();
  31:src/../h/riscv.hpp **** 
  32:src/../h/riscv.hpp ****     static void w_sepc(uint64 sepc);
  33:src/../h/riscv.hpp **** 
  34:src/../h/riscv.hpp ****     static uint64 r_sstatus();
  35:src/../h/riscv.hpp **** 
  36:src/../h/riscv.hpp ****     static void w_sstatus(uint64 sstatus);
  37:src/../h/riscv.hpp **** 
  38:src/../h/riscv.hpp ****     static void mc_sstatus(uint64);
  39:src/../h/riscv.hpp **** 
  40:src/../h/riscv.hpp ****     static void w_stvec(uint64 stvec);
  41:src/../h/riscv.hpp **** 
  42:src/../h/riscv.hpp ****     static void trap();
  43:src/../h/riscv.hpp **** 
  44:src/../h/riscv.hpp ****     enum BitMaskSip{
  45:src/../h/riscv.hpp ****         SIP_SSIP = 1 << 1, // Upisuje se 0, cime se maskiraju spoljasnji prekidi
  46:src/../h/riscv.hpp ****         SIP_STIP = 1 << 5, // Prethodna vrednost SIE bita
  47:src/../h/riscv.hpp ****         SIP_SEIP = 1 << 8, // Iz kog rezima se dogodio skok (0-korisnicki)
  48:src/../h/riscv.hpp ****     };
  49:src/../h/riscv.hpp **** 
  50:src/../h/riscv.hpp **** };
  51:src/../h/riscv.hpp **** 
  52:src/../h/riscv.hpp **** inline uint64 RiscV::r_scause() {
  53:src/../h/riscv.hpp ****     uint64 volatile scause;
  54:src/../h/riscv.hpp ****     __asm__ volatile ("csrr %[scause], scause" : [scause] "=r"(scause));
  55:src/../h/riscv.hpp ****     return scause;
  56:src/../h/riscv.hpp **** }
  57:src/../h/riscv.hpp **** 
  58:src/../h/riscv.hpp **** inline void RiscV::mc_sip(uint64 mask){
  59:src/../h/riscv.hpp ****     __asm__ volatile ("csrc sip, %[mask]" : : [mask] "r"(mask));
  60:src/../h/riscv.hpp **** }
  61:src/../h/riscv.hpp **** 
  62:src/../h/riscv.hpp **** inline uint64 RiscV::r_sepc() {
  63:src/../h/riscv.hpp ****     uint64 volatile sepc;
  64:src/../h/riscv.hpp ****     __asm__ volatile ("csrr %[sepc], sepc" : [sepc]"=r"(sepc));
  65:src/../h/riscv.hpp ****     return sepc;
  66:src/../h/riscv.hpp **** }
  67:src/../h/riscv.hpp **** 
  68:src/../h/riscv.hpp **** inline void RiscV::w_sepc(uint64 sepc) {
  69:src/../h/riscv.hpp ****     __asm__ volatile ("csrw sepc, %[sepc]" : : [sepc]"r"(sepc));
  70:src/../h/riscv.hpp **** }
  71:src/../h/riscv.hpp **** 
  72:src/../h/riscv.hpp **** inline void RiscV::w_stvec(uint64 stvec) {
  73:src/../h/riscv.hpp ****     __asm__ volatile ("csrw stvec, %[stvec]" : : [stvec]"r"(stvec));
 117              		.loc 2 73 5 is_stmt 1
 118              		.loc 2 73 68 is_stmt 0
 119              	#APP
 120              	# 73 "src/../h/riscv.hpp" 1
GAS LISTING /tmp/ccqjuQLl.s 			page 6


  74              	}
 121              		csrw stvec, a5
 122              	# 0 "" 2
 123              	.LVL6:
 124              	#NO_APP
 125              	.LBE5:
 126              	.LBE4:
  32:src/main.cpp  ****     __asm__ volatile ("csrs stvec, 0x01");
 127              		.loc 1 32 5 is_stmt 1
  32:src/main.cpp  ****     __asm__ volatile ("csrs stvec, 0x01");
 128              		.loc 1 32 42 is_stmt 0
 129              	#APP
 130              	# 32 "src/main.cpp" 1
  33:src/main.cpp  ****     TCB *nit;
 131              		csrs stvec, 0x01
 132              	# 0 "" 2
 133              		.loc 1 33 5 is_stmt 1
  34:src/main.cpp  ****     thread_create_cpp(&nit, nullptr, nullptr);
 134              		.loc 1 34 5
  34:src/main.cpp  ****     thread_create_cpp(&nit, nullptr, nullptr);
 135              		.loc 1 34 22 is_stmt 0
 136              	#NO_APP
 137 00b4 13060000 		li	a2,0
 138 00b8 93050000 		li	a1,0
 139 00bc 130584FD 		addi	a0,s0,-40
 140 00c0 97000000 		call	_Z17thread_create_cppPP3TCBPFvPvES2_@plt
 140      E7800000 
 141              	.LVL7:
  35:src/main.cpp  ****     TCB::running = nit;
 142              		.loc 1 35 5 is_stmt 1
  35:src/main.cpp  ****     TCB::running = nit;
 143              		.loc 1 35 18 is_stmt 0
 144 00c8 97070000 		la	a5,_ZN3TCB7runningE
 144      83B70700 
 145 00d0 033784FD 		ld	a4,-40(s0)
 146 00d4 23B0E700 		sd	a4,0(a5)
  36:src/main.cpp  ****     RiscV::in = KruzniBafer::NapraviInstancu();
 147              		.loc 1 36 5 is_stmt 1
  36:src/main.cpp  ****     RiscV::in = KruzniBafer::NapraviInstancu();
 148              		.loc 1 36 45 is_stmt 0
 149 00d8 97000000 		call	_ZN11KruzniBafer15NapraviInstancuEv@plt
 149      E7800000 
 150              	.LVL8:
  36:src/main.cpp  ****     RiscV::in = KruzniBafer::NapraviInstancu();
 151              		.loc 1 36 15
 152 00e0 97040000 		lla	s1,.LANCHOR0
 152      93840400 
 153 00e8 23B4A400 		sd	a0,8(s1)
  37:src/main.cpp  ****     RiscV::out = KruzniBafer::NapraviInstancu();
 154              		.loc 1 37 5 is_stmt 1
  37:src/main.cpp  ****     RiscV::out = KruzniBafer::NapraviInstancu();
 155              		.loc 1 37 46 is_stmt 0
 156 00ec 97000000 		call	_ZN11KruzniBafer15NapraviInstancuEv@plt
 156      E7800000 
 157              	.LVL9:
  37:src/main.cpp  ****     RiscV::out = KruzniBafer::NapraviInstancu();
 158              		.loc 1 37 16
GAS LISTING /tmp/ccqjuQLl.s 			page 7


 159 00f4 23B0A400 		sd	a0,0(s1)
  38:src/main.cpp  ****     TCB* obradi;
 160              		.loc 1 38 5 is_stmt 1
  39:src/main.cpp  ****     thread_create(&obradi, NitKonzola, nullptr);
 161              		.loc 1 39 5
  39:src/main.cpp  ****     thread_create(&obradi, NitKonzola, nullptr);
 162              		.loc 1 39 18 is_stmt 0
 163 00f8 13060000 		li	a2,0
 164 00fc 97050000 		lla	a1,NitKonzola
 164      93850500 
 165 0104 130504FD 		addi	a0,s0,-48
 166 0108 97000000 		call	_Z13thread_createPP3TCBPFvPvES2_@plt
 166      E7800000 
 167              	.LVL10:
  59:src/main.cpp  ****     TCB* glavna;
 168              		.loc 1 59 5 is_stmt 1
  60:src/main.cpp  ****     thread_create(&glavna, User, nullptr);
 169              		.loc 1 60 5
  60:src/main.cpp  ****     thread_create(&glavna, User, nullptr);
 170              		.loc 1 60 18 is_stmt 0
 171 0110 13060000 		li	a2,0
 172 0114 97050000 		lla	a1,User
 172      93850500 
 173 011c 130584FC 		addi	a0,s0,-56
 174 0120 97000000 		call	_Z13thread_createPP3TCBPFvPvES2_@plt
 174      E7800000 
 175              	.LVL11:
  68:src/main.cpp  **** 	thread_join(glavna);
 176              		.loc 1 68 2 is_stmt 1
  68:src/main.cpp  **** 	thread_join(glavna);
 177              		.loc 1 68 13 is_stmt 0
 178 0128 033584FC 		ld	a0,-56(s0)
 179 012c 97000000 		call	_Z11thread_joinP3TCB@plt
 179      E7800000 
 180              	.LVL12:
  69:src/main.cpp  ****     return 0;
 181              		.loc 1 69 5 is_stmt 1
  70:src/main.cpp  **** }
 182              		.loc 1 70 1 is_stmt 0
 183 0134 13050000 		li	a0,0
 184 0138 83308103 		ld	ra,56(sp)
 185              		.cfi_restore 1
 186 013c 03340103 		ld	s0,48(sp)
 187              		.cfi_restore 8
 188              		.cfi_def_cfa 2, 64
 189 0140 83348102 		ld	s1,40(sp)
 190              		.cfi_restore 9
 191 0144 13010104 		addi	sp,sp,64
 192              		.cfi_def_cfa_offset 0
 193 0148 67800000 		jr	ra
 194              		.cfi_endproc
 195              	.LFE31:
 197              		.globl	_ZN5RiscV3outE
 198              		.globl	_ZN5RiscV2inE
 199              		.bss
 200              		.align	3
 201              		.set	.LANCHOR0,. + 0
GAS LISTING /tmp/ccqjuQLl.s 			page 8


 204              	_ZN5RiscV3outE:
 205 0000 00000000 		.zero	8
 205      00000000 
 208              	_ZN5RiscV2inE:
 209 0008 00000000 		.zero	8
 209      00000000 
 210              		.text
 211              	.Letext0:
 212              		.file 3 "src/../h/../lib/hw.h"
 213              		.file 4 "src/../h/TCB.hpp"
 214              		.file 5 "src/../h/syscall_c.h"
 215              		.file 6 "src/../h/Semafor.hpp"
 216              		.file 7 "src/../h/KruzniBafer.hpp"
GAS LISTING /tmp/ccqjuQLl.s 			page 9


DEFINED SYMBOLS
                            *ABS*:0000000000000000 main.cpp
     /tmp/ccqjuQLl.s:9      .text:0000000000000000 NitKonzola
     /tmp/ccqjuQLl.s:13     .text:0000000000000000 .L0 
     /tmp/ccqjuQLl.s:16     .text:0000000000000000 .L0 
     /tmp/ccqjuQLl.s:17     .text:0000000000000000 .L0 
     /tmp/ccqjuQLl.s:18     .text:0000000000000000 .L0 
     /tmp/ccqjuQLl.s:19     .text:0000000000000000 .L0 
     /tmp/ccqjuQLl.s:23     .text:0000000000000010 .L0 
     /tmp/ccqjuQLl.s:26     .text:0000000000000018 .L0 
     /tmp/ccqjuQLl.s:27     .text:000000000000001c .L0 
     /tmp/ccqjuQLl.s:31     .text:0000000000000028 .L0 
     /tmp/ccqjuQLl.s:32     .text:0000000000000028 .L0 
     /tmp/ccqjuQLl.s:33     .text:0000000000000028 .L0 
     /tmp/ccqjuQLl.s:35     .text:000000000000002c .L0 
     /tmp/ccqjuQLl.s:39     .text:000000000000002c .L0 
     /tmp/ccqjuQLl.s:42     .text:0000000000000038 .L0 
     /tmp/ccqjuQLl.s:46     .text:0000000000000048 .L0 
     /tmp/ccqjuQLl.s:49     .text:000000000000004c .L0 
     /tmp/ccqjuQLl.s:50     .text:000000000000004c .L0 
     /tmp/ccqjuQLl.s:51     .text:000000000000004c .L0 
     /tmp/ccqjuQLl.s:55     .text:000000000000005c .L0 
     /tmp/ccqjuQLl.s:58     .text:0000000000000068 .L0 
     /tmp/ccqjuQLl.s:64     .text:0000000000000068 User
     /tmp/ccqjuQLl.s:67     .text:0000000000000068 .L0 
     /tmp/ccqjuQLl.s:69     .text:0000000000000068 .L0 
     /tmp/ccqjuQLl.s:70     .text:000000000000006c .L0 
     /tmp/ccqjuQLl.s:73     .text:0000000000000074 .L0 
     /tmp/ccqjuQLl.s:74     .text:0000000000000074 .L0 
     /tmp/ccqjuQLl.s:76     .text:0000000000000078 .L0 
     /tmp/ccqjuQLl.s:78     .text:0000000000000078 .L0 
     /tmp/ccqjuQLl.s:79     .text:0000000000000078 .L0 
     /tmp/ccqjuQLl.s:82     .text:0000000000000080 .L0 
     /tmp/ccqjuQLl.s:83     .text:0000000000000084 .L0 
     /tmp/ccqjuQLl.s:85     .text:0000000000000088 .L0 
     /tmp/ccqjuQLl.s:86     .text:0000000000000088 .L0 
     /tmp/ccqjuQLl.s:88     .text:000000000000008c .L0 
     /tmp/ccqjuQLl.s:90     .text:0000000000000090 .L0 
     /tmp/ccqjuQLl.s:96     .text:0000000000000090 main
     /tmp/ccqjuQLl.s:99     .text:0000000000000090 .L0 
     /tmp/ccqjuQLl.s:100    .text:0000000000000090 .L0 
     /tmp/ccqjuQLl.s:101    .text:0000000000000094 .L0 
     /tmp/ccqjuQLl.s:105    .text:00000000000000a0 .L0 
     /tmp/ccqjuQLl.s:106    .text:00000000000000a0 .L0 
     /tmp/ccqjuQLl.s:107    .text:00000000000000a0 .L0 
     /tmp/ccqjuQLl.s:109    .text:00000000000000a4 .L0 
     /tmp/ccqjuQLl.s:111    .text:00000000000000a4 .L0 
     /tmp/ccqjuQLl.s:112    .text:00000000000000a4 .L0 
     /tmp/ccqjuQLl.s:118    .text:00000000000000ac .L0 
  src/../h/riscv.hpp:73     .text:00000000000000ac .L0 
     /tmp/ccqjuQLl.s:128    .text:00000000000000b0 .L0 
        src/main.cpp:32     .text:00000000000000b0 .L0 
     /tmp/ccqjuQLl.s:134    .text:00000000000000b4 .L0 
     /tmp/ccqjuQLl.s:135    .text:00000000000000b4 .L0 
     /tmp/ccqjuQLl.s:137    .text:00000000000000b4 .L0 
     /tmp/ccqjuQLl.s:143    .text:00000000000000c8 .L0 
     /tmp/ccqjuQLl.s:144    .text:00000000000000c8 .L0 
GAS LISTING /tmp/ccqjuQLl.s 			page 10


     /tmp/ccqjuQLl.s:148    .text:00000000000000d8 .L0 
     /tmp/ccqjuQLl.s:149    .text:00000000000000d8 .L0 
     /tmp/ccqjuQLl.s:152    .text:00000000000000e0 .L0 
     /tmp/ccqjuQLl.s:155    .text:00000000000000ec .L0 
     /tmp/ccqjuQLl.s:156    .text:00000000000000ec .L0 
     /tmp/ccqjuQLl.s:159    .text:00000000000000f4 .L0 
     /tmp/ccqjuQLl.s:161    .text:00000000000000f8 .L0 
     /tmp/ccqjuQLl.s:162    .text:00000000000000f8 .L0 
     /tmp/ccqjuQLl.s:163    .text:00000000000000f8 .L0 
     /tmp/ccqjuQLl.s:169    .text:0000000000000110 .L0 
     /tmp/ccqjuQLl.s:170    .text:0000000000000110 .L0 
     /tmp/ccqjuQLl.s:171    .text:0000000000000110 .L0 
     /tmp/ccqjuQLl.s:177    .text:0000000000000128 .L0 
     /tmp/ccqjuQLl.s:178    .text:0000000000000128 .L0 
     /tmp/ccqjuQLl.s:182    .text:0000000000000134 .L0 
     /tmp/ccqjuQLl.s:183    .text:0000000000000134 .L0 
     /tmp/ccqjuQLl.s:185    .text:000000000000013c .L0 
     /tmp/ccqjuQLl.s:187    .text:0000000000000140 .L0 
     /tmp/ccqjuQLl.s:188    .text:0000000000000140 .L0 
     /tmp/ccqjuQLl.s:190    .text:0000000000000144 .L0 
     /tmp/ccqjuQLl.s:192    .text:0000000000000148 .L0 
     /tmp/ccqjuQLl.s:194    .text:000000000000014c .L0 
     /tmp/ccqjuQLl.s:204    .bss:0000000000000000 _ZN5RiscV3outE
     /tmp/ccqjuQLl.s:208    .bss:0000000000000008 _ZN5RiscV2inE
     /tmp/ccqjuQLl.s:201    .bss:0000000000000000 .LANCHOR0
     /tmp/ccqjuQLl.s:217    .text:000000000000014c .L0 
     /tmp/ccqjuQLl.s:19     .text:0000000000000000 .L0 
     /tmp/ccqjuQLl.s:39     .text:000000000000002c .L0 
     /tmp/ccqjuQLl.s:42     .text:0000000000000038 .L0 
     /tmp/ccqjuQLl.s:51     .text:000000000000004c .L0 
     /tmp/ccqjuQLl.s:112    .text:00000000000000a4 .L0 
     /tmp/ccqjuQLl.s:144    .text:00000000000000c8 .L0 
     /tmp/ccqjuQLl.s:152    .text:00000000000000e0 .L0 
     /tmp/ccqjuQLl.s:164    .text:00000000000000fc .L0 
     /tmp/ccqjuQLl.s:172    .text:0000000000000114 .L0 
     /tmp/ccqjuQLl.s:15     .text:0000000000000000 .L6
     /tmp/ccqjuQLl.s:47     .text:000000000000004c .L2
     /tmp/ccqjuQLl.s:37     .text:000000000000002c .L5
     /tmp/ccqjuQLl.s:1282   .debug_abbrev:0000000000000000 .Ldebug_abbrev0
     /tmp/ccqjuQLl.s:2414   .debug_str:000000000000067c .LASF125
     /tmp/ccqjuQLl.s:2260   .debug_str:000000000000020d .LASF126
     /tmp/ccqjuQLl.s:2392   .debug_str:00000000000005f5 .LASF127
     /tmp/ccqjuQLl.s:5      .text:0000000000000000 .Ltext0
     /tmp/ccqjuQLl.s:211    .text:000000000000014c .Letext0
     /tmp/ccqjuQLl.s:2198   .debug_line:0000000000000000 .Ldebug_line0
     /tmp/ccqjuQLl.s:2288   .debug_str:000000000000031c .LASF0
     /tmp/ccqjuQLl.s:2312   .debug_str:00000000000003e7 .LASF1
     /tmp/ccqjuQLl.s:2382   .debug_str:00000000000005cb .LASF2
     /tmp/ccqjuQLl.s:2386   .debug_str:00000000000005de .LASF4
     /tmp/ccqjuQLl.s:2296   .debug_str:0000000000000363 .LASF3
     /tmp/ccqjuQLl.s:2208   .debug_str:0000000000000040 .LASF5
     /tmp/ccqjuQLl.s:2362   .debug_str:0000000000000540 .LASF6
     /tmp/ccqjuQLl.s:2302   .debug_str:000000000000038a .LASF7
     /tmp/ccqjuQLl.s:2266   .debug_str:0000000000000250 .LASF8
     /tmp/ccqjuQLl.s:2270   .debug_str:0000000000000281 .LASF9
     /tmp/ccqjuQLl.s:2228   .debug_str:00000000000000dd .LASF10
     /tmp/ccqjuQLl.s:2258   .debug_str:00000000000001fe .LASF11
GAS LISTING /tmp/ccqjuQLl.s 			page 11


     /tmp/ccqjuQLl.s:2238   .debug_str:000000000000013d .LASF12
     /tmp/ccqjuQLl.s:2226   .debug_str:00000000000000cd .LASF13
     /tmp/ccqjuQLl.s:2402   .debug_str:000000000000064e .LASF14
     /tmp/ccqjuQLl.s:2254   .debug_str:00000000000001d2 .LASF15
     /tmp/ccqjuQLl.s:2396   .debug_str:000000000000061e .LASF16
     /tmp/ccqjuQLl.s:2438   .debug_str:0000000000000798 .LASF17
     /tmp/ccqjuQLl.s:2432   .debug_str:0000000000000777 .LASF18
     /tmp/ccqjuQLl.s:2316   .debug_str:0000000000000403 .LASF128
     /tmp/ccqjuQLl.s:2248   .debug_str:00000000000001b6 .LASF19
     /tmp/ccqjuQLl.s:2384   .debug_str:00000000000005d9 .LASF20
     /tmp/ccqjuQLl.s:2298   .debug_str:0000000000000375 .LASF21
     /tmp/ccqjuQLl.s:2304   .debug_str:000000000000039d .LASF22
     /tmp/ccqjuQLl.s:2216   .debug_str:000000000000007b .LASF23
     /tmp/ccqjuQLl.s:2424   .debug_str:000000000000075a .LASF24
     /tmp/ccqjuQLl.s:2376   .debug_str:00000000000005a2 .LASF25
     /tmp/ccqjuQLl.s:2324   .debug_str:0000000000000436 .LASF26
     /tmp/ccqjuQLl.s:2340   .debug_str:000000000000049b .LASF27
     /tmp/ccqjuQLl.s:2220   .debug_str:0000000000000098 .LASF28
     /tmp/ccqjuQLl.s:2318   .debug_str:0000000000000408 .LASF30
     /tmp/ccqjuQLl.s:2250   .debug_str:00000000000001bb .LASF29
     /tmp/ccqjuQLl.s:2234   .debug_str:0000000000000117 .LASF31
     /tmp/ccqjuQLl.s:2206   .debug_str:000000000000002f .LASF129
     /tmp/ccqjuQLl.s:2464   .debug_str:000000000000083d .LASF130
     /tmp/ccqjuQLl.s:2462   .debug_str:000000000000082a .LASF131
     /tmp/ccqjuQLl.s:2428   .debug_str:0000000000000765 .LASF36
     /tmp/ccqjuQLl.s:2230   .debug_str:00000000000000ec .LASF38
     /tmp/ccqjuQLl.s:2372   .debug_str:0000000000000586 .LASF32
     /tmp/ccqjuQLl.s:2280   .debug_str:00000000000002e1 .LASF34
     /tmp/ccqjuQLl.s:2290   .debug_str:0000000000000329 .LASF33
     /tmp/ccqjuQLl.s:2264   .debug_str:000000000000022b .LASF35
     /tmp/ccqjuQLl.s:2390   .debug_str:00000000000005ea .LASF37
     /tmp/ccqjuQLl.s:2334   .debug_str:0000000000000478 .LASF39
     /tmp/ccqjuQLl.s:2200   .debug_str:0000000000000000 .LASF40
     /tmp/ccqjuQLl.s:2202   .debug_str:000000000000000c .LASF41
     /tmp/ccqjuQLl.s:2430   .debug_str:000000000000076d .LASF42
     /tmp/ccqjuQLl.s:2378   .debug_str:00000000000005ab .LASF43
     /tmp/ccqjuQLl.s:2458   .debug_str:000000000000081a .LASF44
     /tmp/ccqjuQLl.s:2214   .debug_str:0000000000000065 .LASF45
     /tmp/ccqjuQLl.s:2452   .debug_str:00000000000007e2 .LASF46
     /tmp/ccqjuQLl.s:2222   .debug_str:00000000000000a6 .LASF47
     /tmp/ccqjuQLl.s:2408   .debug_str:000000000000066a .LASF50
     /tmp/ccqjuQLl.s:2262   .debug_str:000000000000021a .LASF52
     /tmp/ccqjuQLl.s:2410   .debug_str:000000000000066f .LASF88
     /tmp/ccqjuQLl.s:2388   .debug_str:00000000000005e5 .LASF48
     /tmp/ccqjuQLl.s:2204   .debug_str:0000000000000023 .LASF49
     /tmp/ccqjuQLl.s:2450   .debug_str:00000000000007d9 .LASF51
     /tmp/ccqjuQLl.s:2236   .debug_str:000000000000012a .LASF53
     /tmp/ccqjuQLl.s:2444   .debug_str:00000000000007bc .LASF54
     /tmp/ccqjuQLl.s:2356   .debug_str:0000000000000521 .LASF55
     /tmp/ccqjuQLl.s:2366   .debug_str:0000000000000568 .LASF56
     /tmp/ccqjuQLl.s:2224   .debug_str:00000000000000c4 .LASF57
     /tmp/ccqjuQLl.s:2368   .debug_str:0000000000000571 .LASF58
     /tmp/ccqjuQLl.s:2346   .debug_str:00000000000004d4 .LASF59
     /tmp/ccqjuQLl.s:2320   .debug_str:0000000000000421 .LASF60
     /tmp/ccqjuQLl.s:2246   .debug_str:0000000000000196 .LASF61
     /tmp/ccqjuQLl.s:2418   .debug_str:0000000000000748 .LASF62
     /tmp/ccqjuQLl.s:2276   .debug_str:00000000000002a8 .LASF63
GAS LISTING /tmp/ccqjuQLl.s 			page 12


     /tmp/ccqjuQLl.s:2422   .debug_str:0000000000000755 .LASF64
     /tmp/ccqjuQLl.s:2328   .debug_str:000000000000045a .LASF65
     /tmp/ccqjuQLl.s:2406   .debug_str:0000000000000665 .LASF66
     /tmp/ccqjuQLl.s:2330   .debug_str:000000000000046d .LASF67
     /tmp/ccqjuQLl.s:2284   .debug_str:00000000000002ff .LASF68
     /tmp/ccqjuQLl.s:2398   .debug_str:0000000000000634 .LASF69
     /tmp/ccqjuQLl.s:2416   .debug_str:0000000000000740 .LASF70
     /tmp/ccqjuQLl.s:2212   .debug_str:0000000000000060 .LASF71
     /tmp/ccqjuQLl.s:2358   .debug_str:0000000000000529 .LASF72
     /tmp/ccqjuQLl.s:2332   .debug_str:0000000000000472 .LASF73
     /tmp/ccqjuQLl.s:2360   .debug_str:0000000000000530 .LASF74
     /tmp/ccqjuQLl.s:2278   .debug_str:00000000000002bd .LASF90
     /tmp/ccqjuQLl.s:2336   .debug_str:000000000000048f .LASF75
     /tmp/ccqjuQLl.s:2442   .debug_str:00000000000007a4 .LASF76
     /tmp/ccqjuQLl.s:2294   .debug_str:000000000000035e .LASF77
     /tmp/ccqjuQLl.s:2306   .debug_str:00000000000003a6 .LASF78
     /tmp/ccqjuQLl.s:2434   .debug_str:0000000000000780 .LASF79
     /tmp/ccqjuQLl.s:2326   .debug_str:000000000000043e .LASF80
     /tmp/ccqjuQLl.s:2420   .debug_str:000000000000074f .LASF81
     /tmp/ccqjuQLl.s:2364   .debug_str:0000000000000553 .LASF82
     /tmp/ccqjuQLl.s:2240   .debug_str:000000000000014d .LASF83
     /tmp/ccqjuQLl.s:2300   .debug_str:000000000000037e .LASF84
     /tmp/ccqjuQLl.s:2210   .debug_str:0000000000000047 .LASF85
     /tmp/ccqjuQLl.s:2252   .debug_str:00000000000001c4 .LASF86
     /tmp/ccqjuQLl.s:2344   .debug_str:00000000000004b9 .LASF87
     /tmp/ccqjuQLl.s:2314   .debug_str:00000000000003fa .LASF89
     /tmp/ccqjuQLl.s:2456   .debug_str:0000000000000805 .LASF91
     /tmp/ccqjuQLl.s:2274   .debug_str:00000000000002a1 .LASF92
     /tmp/ccqjuQLl.s:2374   .debug_str:000000000000058f .LASF93
     /tmp/ccqjuQLl.s:2282   .debug_str:00000000000002f4 .LASF106
     /tmp/ccqjuQLl.s:2342   .debug_str:00000000000004a1 .LASF108
     /tmp/ccqjuQLl.s:2370   .debug_str:000000000000057f .LASF94
     /tmp/ccqjuQLl.s:2310   .debug_str:00000000000003d4 .LASF95
     /tmp/ccqjuQLl.s:2350   .debug_str:00000000000004f9 .LASF96
     /tmp/ccqjuQLl.s:2242   .debug_str:000000000000016f .LASF97
     /tmp/ccqjuQLl.s:2448   .debug_str:00000000000007cf .LASF98
     /tmp/ccqjuQLl.s:2308   .debug_str:00000000000003be .LASF99
     /tmp/ccqjuQLl.s:2446   .debug_str:00000000000007c5 .LASF100
     /tmp/ccqjuQLl.s:2256   .debug_str:00000000000001e8 .LASF101
     /tmp/ccqjuQLl.s:2380   .debug_str:00000000000005c0 .LASF102
     /tmp/ccqjuQLl.s:2232   .debug_str:00000000000000ff .LASF103
     /tmp/ccqjuQLl.s:2348   .debug_str:00000000000004f1 .LASF104
     /tmp/ccqjuQLl.s:2244   .debug_str:0000000000000182 .LASF105
     /tmp/ccqjuQLl.s:2412   .debug_str:0000000000000677 .LASF107
     /tmp/ccqjuQLl.s:2454   .debug_str:00000000000007f4 .LASF109
     /tmp/ccqjuQLl.s:2218   .debug_str:000000000000008a .LASF110
     /tmp/ccqjuQLl.s:2436   .debug_str:0000000000000789 .LASF111
     /tmp/ccqjuQLl.s:2426   .debug_str:0000000000000760 .LASF112
     /tmp/ccqjuQLl.s:65     .text:0000000000000068 .LFB33
     /tmp/ccqjuQLl.s:91     .text:0000000000000090 .LFE33
     /tmp/ccqjuQLl.s:2157   .debug_loc:0000000000000000 .LLST1
     /tmp/ccqjuQLl.s:80     .text:0000000000000080 .LVL4
     /tmp/ccqjuQLl.s:2404   .debug_str:000000000000065a .LASF113
     /tmp/ccqjuQLl.s:10     .text:0000000000000000 .LFB32
     /tmp/ccqjuQLl.s:59     .text:0000000000000068 .LFE32
     /tmp/ccqjuQLl.s:2171   .debug_loc:0000000000000039 .LLST0
     /tmp/ccqjuQLl.s:44     .text:0000000000000048 .LVL2
GAS LISTING /tmp/ccqjuQLl.s 			page 13


     /tmp/ccqjuQLl.s:2460   .debug_str:0000000000000825 .LASF114
     /tmp/ccqjuQLl.s:97     .text:0000000000000090 .LFB31
     /tmp/ccqjuQLl.s:195    .text:000000000000014c .LFE31
     /tmp/ccqjuQLl.s:2338   .debug_str:0000000000000494 .LASF115
     /tmp/ccqjuQLl.s:2440   .debug_str:000000000000079d .LASF116
     /tmp/ccqjuQLl.s:114    .text:00000000000000ac .LBB4
     /tmp/ccqjuQLl.s:126    .text:00000000000000b0 .LBE4
     /tmp/ccqjuQLl.s:141    .text:00000000000000c8 .LVL7
     /tmp/ccqjuQLl.s:150    .text:00000000000000e0 .LVL8
     /tmp/ccqjuQLl.s:157    .text:00000000000000f4 .LVL9
     /tmp/ccqjuQLl.s:167    .text:0000000000000110 .LVL10
     /tmp/ccqjuQLl.s:175    .text:0000000000000128 .LVL11
     /tmp/ccqjuQLl.s:180    .text:0000000000000134 .LVL12
     /tmp/ccqjuQLl.s:2322   .debug_str:0000000000000430 .LASF132
     /tmp/ccqjuQLl.s:2286   .debug_str:000000000000030f .LASF117
     /tmp/ccqjuQLl.s:2394   .debug_str:0000000000000615 .LASF119
     /tmp/ccqjuQLl.s:2292   .debug_str:0000000000000339 .LASF118
     /tmp/ccqjuQLl.s:2272   .debug_str:000000000000028f .LASF120
     /tmp/ccqjuQLl.s:2268   .debug_str:0000000000000260 .LASF121
     /tmp/ccqjuQLl.s:2400   .debug_str:0000000000000640 .LASF122
     /tmp/ccqjuQLl.s:2354   .debug_str:000000000000050c .LASF123
     /tmp/ccqjuQLl.s:2352   .debug_str:0000000000000500 .LASF124
     /tmp/ccqjuQLl.s:68     .text:0000000000000068 .LVL3
     /tmp/ccqjuQLl.s:14     .text:0000000000000000 .LVL0
     /tmp/ccqjuQLl.s:36     .text:000000000000002c .LVL1
     /tmp/ccqjuQLl.s:218    .debug_info:0000000000000000 .Ldebug_info0

UNDEFINED SYMBOLS
CONSOLE_STATUS
CONSOLE_TX_DATA
_ZN11KruzniBafer4getcEv
_Z8userMainv
_ZN5RiscV4trapEv
_Z17thread_create_cppPP3TCBPFvPvES2_
_ZN3TCB7runningE
_ZN11KruzniBafer15NapraviInstancuEv
_Z13thread_createPP3TCBPFvPvES2_
_Z11thread_joinP3TCB
