GAS LISTING /tmp/ccr604J0.s 			page 1


   1              		.file	"riscv.cpp"
   2              		.option pic
   3              		.option norelax
   4              		.text
   5              	.Ltext0:
   6              		.align	2
   7              		.globl	_ZN5RiscV10popSppSpieEv
   9              	_ZN5RiscV10popSppSpieEv:
  10              	.LFB27:
  11              		.file 1 "src/riscv.cpp"
   1:src/riscv.cpp **** #include "../h/riscv.hpp"
   2:src/riscv.cpp **** 
   3:src/riscv.cpp **** void RiscV::popSppSpie() {
  12              		.loc 1 3 26
  13              		.cfi_startproc
  14 0000 130101FF 		addi	sp,sp,-16
  15              		.cfi_def_cfa_offset 16
  16 0004 23348100 		sd	s0,8(sp)
  17              		.cfi_offset 8, -8
  18 0008 13040101 		addi	s0,sp,16
  19              		.cfi_def_cfa 8, 0
   4:src/riscv.cpp ****     mc_sstatus(1<<8);
  20              		.loc 1 4 5
  21              	.LVL0:
  22              	.LBB48:
  23              	.LBB49:
  24              		.file 2 "src/../h/riscv.hpp"
   1:src/../h/riscv.hpp **** #ifndef riscv_hpp
   2:src/../h/riscv.hpp **** #define riscv_hpp
   3:src/../h/riscv.hpp **** 
   4:src/../h/riscv.hpp **** #include "../lib/hw.h"
   5:src/../h/riscv.hpp **** #include "TCB.hpp"
   6:src/../h/riscv.hpp **** #include "../lib/console.h"
   7:src/../h/riscv.hpp **** #include "STL.hpp"
   8:src/../h/riscv.hpp **** #include "KruzniBafer.hpp"
   9:src/../h/riscv.hpp **** #include "../test/printing.hpp"
  10:src/../h/riscv.hpp **** 
  11:src/../h/riscv.hpp **** class RiscV{
  12:src/../h/riscv.hpp **** private:
  13:src/../h/riscv.hpp **** 
  14:src/../h/riscv.hpp ****     static void handleSupervisorTrap();
  15:src/../h/riscv.hpp **** 
  16:src/../h/riscv.hpp ****     void HandleTimer();
  17:src/../h/riscv.hpp **** 
  18:src/../h/riscv.hpp ****     void HandleConsole();
  19:src/../h/riscv.hpp **** public:
  20:src/../h/riscv.hpp **** 
  21:src/../h/riscv.hpp ****     static KruzniBafer* in;
  22:src/../h/riscv.hpp ****     static KruzniBafer* out;
  23:src/../h/riscv.hpp **** 
  24:src/../h/riscv.hpp ****     static uint64 r_scause();
  25:src/../h/riscv.hpp **** 
  26:src/../h/riscv.hpp ****     static void mc_sip(uint64);
  27:src/../h/riscv.hpp **** 
  28:src/../h/riscv.hpp ****     static void popSppSpie();
  29:src/../h/riscv.hpp **** 
  30:src/../h/riscv.hpp ****     static uint64 r_sepc();
GAS LISTING /tmp/ccr604J0.s 			page 2


  31:src/../h/riscv.hpp **** 
  32:src/../h/riscv.hpp ****     static void w_sepc(uint64 sepc);
  33:src/../h/riscv.hpp **** 
  34:src/../h/riscv.hpp ****     static uint64 r_sstatus();
  35:src/../h/riscv.hpp **** 
  36:src/../h/riscv.hpp ****     static void w_sstatus(uint64 sstatus);
  37:src/../h/riscv.hpp **** 
  38:src/../h/riscv.hpp ****     static void mc_sstatus(uint64);
  39:src/../h/riscv.hpp **** 
  40:src/../h/riscv.hpp ****     static void w_stvec(uint64 stvec);
  41:src/../h/riscv.hpp **** 
  42:src/../h/riscv.hpp ****     static void trap();
  43:src/../h/riscv.hpp **** 
  44:src/../h/riscv.hpp ****     enum BitMaskSip{
  45:src/../h/riscv.hpp ****         SIP_SSIP = 1 << 1, // Upisuje se 0, cime se maskiraju spoljasnji prekidi
  46:src/../h/riscv.hpp ****         SIP_STIP = 1 << 5, // Prethodna vrednost SIE bita
  47:src/../h/riscv.hpp ****         SIP_SEIP = 1 << 8, // Iz kog rezima se dogodio skok (0-korisnicki)
  48:src/../h/riscv.hpp ****     };
  49:src/../h/riscv.hpp **** 
  50:src/../h/riscv.hpp **** };
  51:src/../h/riscv.hpp **** 
  52:src/../h/riscv.hpp **** inline uint64 RiscV::r_scause() {
  53:src/../h/riscv.hpp ****     uint64 volatile scause;
  54:src/../h/riscv.hpp ****     __asm__ volatile ("csrr %[scause], scause" : [scause] "=r"(scause));
  55:src/../h/riscv.hpp ****     return scause;
  56:src/../h/riscv.hpp **** }
  57:src/../h/riscv.hpp **** 
  58:src/../h/riscv.hpp **** inline void RiscV::mc_sip(uint64 mask){
  59:src/../h/riscv.hpp ****     __asm__ volatile ("csrc sip, %[mask]" : : [mask] "r"(mask));
  60:src/../h/riscv.hpp **** }
  61:src/../h/riscv.hpp **** 
  62:src/../h/riscv.hpp **** inline uint64 RiscV::r_sepc() {
  63:src/../h/riscv.hpp ****     uint64 volatile sepc;
  64:src/../h/riscv.hpp ****     __asm__ volatile ("csrr %[sepc], sepc" : [sepc]"=r"(sepc));
  65:src/../h/riscv.hpp ****     return sepc;
  66:src/../h/riscv.hpp **** }
  67:src/../h/riscv.hpp **** 
  68:src/../h/riscv.hpp **** inline void RiscV::w_sepc(uint64 sepc) {
  69:src/../h/riscv.hpp ****     __asm__ volatile ("csrw sepc, %[sepc]" : : [sepc]"r"(sepc));
  70:src/../h/riscv.hpp **** }
  71:src/../h/riscv.hpp **** 
  72:src/../h/riscv.hpp **** inline void RiscV::w_stvec(uint64 stvec) {
  73:src/../h/riscv.hpp ****     __asm__ volatile ("csrw stvec, %[stvec]" : : [stvec]"r"(stvec));
  74:src/../h/riscv.hpp **** }
  75:src/../h/riscv.hpp **** 
  76:src/../h/riscv.hpp **** inline uint64 RiscV::r_sstatus() {
  77:src/../h/riscv.hpp ****     uint64 volatile sstatus;
  78:src/../h/riscv.hpp ****     __asm__ volatile ("csrr %[sstatus], sstatus" : [sstatus]"=r"(sstatus));
  79:src/../h/riscv.hpp ****     return  sstatus;
  80:src/../h/riscv.hpp **** }
  81:src/../h/riscv.hpp **** 
  82:src/../h/riscv.hpp **** inline void RiscV::w_sstatus(uint64 sstatus) {
  83:src/../h/riscv.hpp ****     __asm__ volatile ("csrw sstatus, %[sstatus]" : : [sstatus]"r"(sstatus));
  84:src/../h/riscv.hpp **** }
  85:src/../h/riscv.hpp **** 
  86:src/../h/riscv.hpp **** inline void RiscV::mc_sstatus(uint64 mask) {
  87:src/../h/riscv.hpp ****     __asm__ volatile ("csrc sstatus, %[mask]" : : [mask] "r"(mask));
GAS LISTING /tmp/ccr604J0.s 			page 3


  25              		.loc 2 87 5
  26              		.loc 2 87 68 is_stmt 0
  27 000c 93070010 		li	a5,256
  28              	#APP
  29              	# 87 "src/../h/riscv.hpp" 1
  88              	}
  30              		csrc sstatus, a5
  31              	# 0 "" 2
  32              	.LVL1:
  33              	#NO_APP
  34              	.LBE49:
  35              	.LBE48:
   5:src/riscv.cpp ****     __asm__ volatile("csrw sepc, ra");
  36              		.loc 1 5 5 is_stmt 1
  37              		.loc 1 5 38 is_stmt 0
  38              	#APP
  39              	# 5 "src/riscv.cpp" 1
   6              	    __asm__ volatile ("sret");
  40              		csrw sepc, ra
  41              	# 0 "" 2
  42              		.loc 1 6 5 is_stmt 1
  43              		.loc 1 6 30 is_stmt 0
  44              	# 6 "src/riscv.cpp" 1
   7              	}
  45              		sret
  46              	# 0 "" 2
  47              		.loc 1 7 1
  48              	#NO_APP
  49 001c 03348100 		ld	s0,8(sp)
  50              		.cfi_restore 8
  51              		.cfi_def_cfa 2, 16
  52 0020 13010101 		addi	sp,sp,16
  53              		.cfi_def_cfa_offset 0
  54 0024 67800000 		jr	ra
  55              		.cfi_endproc
  56              	.LFE27:
  58              		.align	2
  59              		.globl	_ZN5RiscV20handleSupervisorTrapEv
  61              	_ZN5RiscV20handleSupervisorTrapEv:
  62              	.LFB28:
   8:src/riscv.cpp **** 
   9:src/riscv.cpp **** void RiscV::handleSupervisorTrap() {
  63              		.loc 1 9 36 is_stmt 1
  64              		.cfi_startproc
  65 0028 130101F8 		addi	sp,sp,-128
  66              		.cfi_def_cfa_offset 128
  67 002c 233C1106 		sd	ra,120(sp)
  68 0030 23388106 		sd	s0,112(sp)
  69 0034 23349106 		sd	s1,104(sp)
  70              		.cfi_offset 1, -8
  71              		.cfi_offset 8, -16
  72              		.cfi_offset 9, -24
  73 0038 13040108 		addi	s0,sp,128
  74              		.cfi_def_cfa 8, 0
  10:src/riscv.cpp ****     uint64 volatile a0, a1, a2, a3, a4;
  75              		.loc 1 10 5
  11:src/riscv.cpp ****     __asm__ volatile ("mv %[a0], a0" : [a0]"=r" (a0));
GAS LISTING /tmp/ccr604J0.s 			page 4


  76              		.loc 1 11 5
  77              		.loc 1 11 54 is_stmt 0
  78              	#APP
  79              	# 11 "src/riscv.cpp" 1
  12              	    __asm__ volatile ("mv %[a1], a1" : [a1]"=r"(a1));
  80              		mv a5, a0
  81              	# 0 "" 2
  82              	#NO_APP
  83 0040 233CF4FC 		sd	a5,-40(s0)
  84              		.loc 1 12 5 is_stmt 1
  85              		.loc 1 12 53 is_stmt 0
  86              	#APP
  87              	# 12 "src/riscv.cpp" 1
  13              	    __asm__ volatile ("mv %[a2], a2" : [a2]"=r"(a2));
  88              		mv a5, a1
  89              	# 0 "" 2
  90              	#NO_APP
  91 0048 2338F4FC 		sd	a5,-48(s0)
  92              		.loc 1 13 5 is_stmt 1
  93              		.loc 1 13 53 is_stmt 0
  94              	#APP
  95              	# 13 "src/riscv.cpp" 1
  14              	    __asm__ volatile ("mv %[a3], a3" : [a3]"=r"(a3));
  96              		mv a5, a2
  97              	# 0 "" 2
  98              	#NO_APP
  99 0050 2334F4FC 		sd	a5,-56(s0)
 100              		.loc 1 14 5 is_stmt 1
 101              		.loc 1 14 53 is_stmt 0
 102              	#APP
 103              	# 14 "src/riscv.cpp" 1
  15              	    __asm__ volatile ("mv %[a4], a4" : [a4]"=r"(a4));
 104              		mv a5, a3
 105              	# 0 "" 2
 106              	#NO_APP
 107 0058 2330F4FC 		sd	a5,-64(s0)
 108              		.loc 1 15 5 is_stmt 1
 109              		.loc 1 15 53 is_stmt 0
 110              	#APP
 111              	# 15 "src/riscv.cpp" 1
  16              	    uint64 volatile scause = r_scause();
 112              		mv a5, a4
 113              	# 0 "" 2
 114              	#NO_APP
 115 0060 233CF4FA 		sd	a5,-72(s0)
 116              		.loc 1 16 5 is_stmt 1
 117              	.LBB50:
 118              	.LBB51:
  53:src/../h/riscv.hpp ****     __asm__ volatile ("csrr %[scause], scause" : [scause] "=r"(scause));
 119              		.loc 2 53 5
  54:src/../h/riscv.hpp ****     return scause;
 120              		.loc 2 54 5
  54:src/../h/riscv.hpp ****     return scause;
 121              		.loc 2 54 72 is_stmt 0
 122              	#APP
 123              	# 54 "src/../h/riscv.hpp" 1
 124              		csrr a5, scause
GAS LISTING /tmp/ccr604J0.s 			page 5


 125              	# 0 "" 2
 126              	#NO_APP
 127 0068 2334F4F8 		sd	a5,-120(s0)
  55:src/../h/riscv.hpp **** }
 128              		.loc 2 55 5 is_stmt 1
  55:src/../h/riscv.hpp **** }
 129              		.loc 2 55 12 is_stmt 0
 130 006c 833784F8 		ld	a5,-120(s0)
 131              	.LBE51:
 132              	.LBE50:
 133              		.loc 1 16 39
 134 0070 2338F4FA 		sd	a5,-80(s0)
  17:src/riscv.cpp ****     if(scause != 8 && scause != 9){
 135              		.loc 1 17 5 is_stmt 1
 136              		.loc 1 17 15 is_stmt 0
 137 0074 033704FB 		ld	a4,-80(s0)
 138              		.loc 1 17 20
 139 0078 93078000 		li	a5,8
 140 007c 6308F700 		beq	a4,a5,.L4
 141              		.loc 1 17 30 discriminator 1
 142 0080 033704FB 		ld	a4,-80(s0)
 143              		.loc 1 17 20 discriminator 1
 144 0084 93079000 		li	a5,9
 145 0088 6318F704 		bne	a4,a5,.L29
 146              	.L4:
  18:src/riscv.cpp ****         out->putc((char)scause + '0');
  19:src/riscv.cpp ****         out->putc('\n');
  20:src/riscv.cpp ****         out->Isprazni();
  21:src/riscv.cpp ****         while(true);
  22:src/riscv.cpp ****     }
  23:src/riscv.cpp ****     //if(scause != 8 && scause != 9)printInt(scause);
  24:src/riscv.cpp ****     uint64 volatile sepc = r_sepc() + 4;
 147              		.loc 1 24 5 is_stmt 1
 148              	.LBB52:
 149              	.LBB53:
  63:src/../h/riscv.hpp ****     __asm__ volatile ("csrr %[sepc], sepc" : [sepc]"=r"(sepc));
 150              		.loc 2 63 5
  64:src/../h/riscv.hpp ****     return sepc;
 151              		.loc 2 64 5
  64:src/../h/riscv.hpp ****     return sepc;
 152              		.loc 2 64 63 is_stmt 0
 153              	#APP
 154              	# 64 "src/../h/riscv.hpp" 1
 155              		csrr a5, sepc
 156              	# 0 "" 2
 157              	#NO_APP
 158 0090 233CF4F8 		sd	a5,-104(s0)
  65:src/../h/riscv.hpp **** }
 159              		.loc 2 65 5 is_stmt 1
  65:src/../h/riscv.hpp **** }
 160              		.loc 2 65 12 is_stmt 0
 161 0094 833784F9 		ld	a5,-104(s0)
 162              	.LBE53:
 163              	.LBE52:
 164              		.loc 1 24 37
 165 0098 93874700 		addi	a5,a5,4
 166              		.loc 1 24 39
GAS LISTING /tmp/ccr604J0.s 			page 6


 167 009c 2334F4FA 		sd	a5,-88(s0)
  25:src/riscv.cpp ****     uint64 volatile sstatus = r_sstatus();
 168              		.loc 1 25 5 is_stmt 1
 169              	.LBB54:
 170              	.LBB55:
  77:src/../h/riscv.hpp ****     __asm__ volatile ("csrr %[sstatus], sstatus" : [sstatus]"=r"(sstatus));
 171              		.loc 2 77 5
  78:src/../h/riscv.hpp ****     return  sstatus;
 172              		.loc 2 78 5
  78:src/../h/riscv.hpp ****     return  sstatus;
 173              		.loc 2 78 75 is_stmt 0
 174              	#APP
 175              	# 78 "src/../h/riscv.hpp" 1
 176              		csrr a5, sstatus
 177              	# 0 "" 2
 178              	#NO_APP
 179 00a4 2338F4F8 		sd	a5,-112(s0)
  79:src/../h/riscv.hpp **** }
 180              		.loc 2 79 5 is_stmt 1
  79:src/../h/riscv.hpp **** }
 181              		.loc 2 79 13 is_stmt 0
 182 00a8 833704F9 		ld	a5,-112(s0)
 183              	.LBE55:
 184              	.LBE54:
 185              		.loc 1 25 41
 186 00ac 2330F4FA 		sd	a5,-96(s0)
  26:src/riscv.cpp ****     switch (a0) {
 187              		.loc 1 26 5 is_stmt 1
 188              	.LBB56:
 189              		.loc 1 26 13 is_stmt 0
 190 00b0 833784FD 		ld	a5,-40(s0)
 191 00b4 13072004 		li	a4,66
 192 00b8 636EF706 		bgtu	a5,a4,.L6
 193 00bc 93972700 		slli	a5,a5,2
 194 00c0 17070000 		lla	a4,.L8
 194      13070700 
 195 00c8 B387E700 		add	a5,a5,a4
 196 00cc 83A70700 		lw	a5,0(a5)
 197 00d0 B387E700 		add	a5,a5,a4
 198 00d4 67800700 		jr	a5
 199              		.section	.rodata
 200              		.align	2
 201              		.align	2
 202              	.L8:
 203 0000 00000000 		.word	.L6-.L8
 204 0004 00000000 		.word	.L20-.L8
 205 0008 00000000 		.word	.L19-.L8
 206 000c 00000000 		.word	.L6-.L8
 207 0010 00000000 		.word	.L6-.L8
 208 0014 00000000 		.word	.L6-.L8
 209 0018 00000000 		.word	.L6-.L8
 210 001c 00000000 		.word	.L6-.L8
 211 0020 00000000 		.word	.L6-.L8
 212 0024 00000000 		.word	.L6-.L8
 213 0028 00000000 		.word	.L6-.L8
 214 002c 00000000 		.word	.L6-.L8
 215 0030 00000000 		.word	.L6-.L8
GAS LISTING /tmp/ccr604J0.s 			page 7


 216 0034 00000000 		.word	.L6-.L8
 217 0038 00000000 		.word	.L6-.L8
 218 003c 00000000 		.word	.L6-.L8
 219 0040 00000000 		.word	.L18-.L8
 220 0044 00000000 		.word	.L18-.L8
 221 0048 00000000 		.word	.L17-.L8
 222 004c 00000000 		.word	.L16-.L8
 223 0050 00000000 		.word	.L15-.L8
 224 0054 00000000 		.word	.L6-.L8
 225 0058 00000000 		.word	.L6-.L8
 226 005c 00000000 		.word	.L6-.L8
 227 0060 00000000 		.word	.L6-.L8
 228 0064 00000000 		.word	.L6-.L8
 229 0068 00000000 		.word	.L6-.L8
 230 006c 00000000 		.word	.L6-.L8
 231 0070 00000000 		.word	.L6-.L8
 232 0074 00000000 		.word	.L6-.L8
 233 0078 00000000 		.word	.L6-.L8
 234 007c 00000000 		.word	.L6-.L8
 235 0080 00000000 		.word	.L6-.L8
 236 0084 00000000 		.word	.L14-.L8
 237 0088 00000000 		.word	.L13-.L8
 238 008c 00000000 		.word	.L12-.L8
 239 0090 00000000 		.word	.L11-.L8
 240 0094 00000000 		.word	.L6-.L8
 241 0098 00000000 		.word	.L6-.L8
 242 009c 00000000 		.word	.L6-.L8
 243 00a0 00000000 		.word	.L6-.L8
 244 00a4 00000000 		.word	.L6-.L8
 245 00a8 00000000 		.word	.L6-.L8
 246 00ac 00000000 		.word	.L6-.L8
 247 00b0 00000000 		.word	.L6-.L8
 248 00b4 00000000 		.word	.L6-.L8
 249 00b8 00000000 		.word	.L6-.L8
 250 00bc 00000000 		.word	.L6-.L8
 251 00c0 00000000 		.word	.L6-.L8
 252 00c4 00000000 		.word	.L10-.L8
 253 00c8 00000000 		.word	.L6-.L8
 254 00cc 00000000 		.word	.L6-.L8
 255 00d0 00000000 		.word	.L6-.L8
 256 00d4 00000000 		.word	.L6-.L8
 257 00d8 00000000 		.word	.L6-.L8
 258 00dc 00000000 		.word	.L6-.L8
 259 00e0 00000000 		.word	.L6-.L8
 260 00e4 00000000 		.word	.L6-.L8
 261 00e8 00000000 		.word	.L6-.L8
 262 00ec 00000000 		.word	.L6-.L8
 263 00f0 00000000 		.word	.L6-.L8
 264 00f4 00000000 		.word	.L6-.L8
 265 00f8 00000000 		.word	.L6-.L8
 266 00fc 00000000 		.word	.L6-.L8
 267 0100 00000000 		.word	.L6-.L8
 268 0104 00000000 		.word	.L9-.L8
 269 0108 00000000 		.word	.L7-.L8
 270              		.text
 271              	.L29:
 272              	.LBE56:
GAS LISTING /tmp/ccr604J0.s 			page 8


  18:src/riscv.cpp ****         out->putc('\n');
 273              		.loc 1 18 9 is_stmt 1
  18:src/riscv.cpp ****         out->putc('\n');
 274              		.loc 1 18 18 is_stmt 0
 275 00d8 833504FB 		ld	a1,-80(s0)
 276 00dc 9B850503 		addiw	a1,a1,48
 277 00e0 97040000 		la	s1,_ZN5RiscV3outE
 277      83B40400 
 278 00e8 93F5F50F 		andi	a1,a1,0xff
 279 00ec 03B50400 		ld	a0,0(s1)
 280 00f0 97000000 		call	_ZN11KruzniBafer4putcEc@plt
 280      E7800000 
 281              	.LVL2:
  19:src/riscv.cpp ****         out->Isprazni();
 282              		.loc 1 19 9 is_stmt 1
  19:src/riscv.cpp ****         out->Isprazni();
 283              		.loc 1 19 18 is_stmt 0
 284 00f8 9305A000 		li	a1,10
 285 00fc 03B50400 		ld	a0,0(s1)
 286 0100 97000000 		call	_ZN11KruzniBafer4putcEc@plt
 286      E7800000 
 287              	.LVL3:
  20:src/riscv.cpp ****         while(true);
 288              		.loc 1 20 9 is_stmt 1
  20:src/riscv.cpp ****         while(true);
 289              		.loc 1 20 22 is_stmt 0
 290 0108 03B50400 		ld	a0,0(s1)
 291 010c 97000000 		call	_ZN11KruzniBafer8IsprazniEv@plt
 291      E7800000 
 292              	.LVL4:
 293              	.L5:
  21:src/riscv.cpp ****     }
 294              		.loc 1 21 9 is_stmt 1 discriminator 1
  21:src/riscv.cpp ****     }
 295              		.loc 1 21 9 discriminator 1
 296 0114 6F000000 		j	.L5
 297              	.L20:
 298              	.LBB75:
 299              	.LBB57:
  27:src/riscv.cpp ****         case 0x01:{ //mem_alloc
 300              		.loc 1 27 9
 301              		.loc 1 27 19
 302              	.LBB58:
  28:src/riscv.cpp ****             size_t size = (size_t) a1;
 303              		.loc 1 28 13
 304              		.loc 1 28 36 is_stmt 0
 305 0118 833404FD 		ld	s1,-48(s0)
 306              	.LVL5:
  29:src/riscv.cpp ****             void* vrati = AlokatorMemorije::dohvatiInstancu()->mem_alloc(size);
 307              		.loc 1 29 13 is_stmt 1
 308              		.loc 1 29 73 is_stmt 0
 309 011c 97000000 		call	_ZN16AlokatorMemorije15dohvatiInstancuEv@plt
 309      E7800000 
 310              	.LVL6:
 311 0124 93850400 		mv	a1,s1
 312 0128 97000000 		call	_ZN16AlokatorMemorije9mem_allocEm@plt
 312      E7800000 
GAS LISTING /tmp/ccr604J0.s 			page 9


 313              	.LVL7:
  30:src/riscv.cpp ****             __asm__ volatile ("mv a0, %[povratna]" : : [povratna]"r" (vrati));
 314              		.loc 1 30 13 is_stmt 1
 315              		.loc 1 30 78 is_stmt 0
 316              	#APP
 317              	# 30 "src/riscv.cpp" 1
  31              	            break;
 318              		mv a0, a0
 319              	# 0 "" 2
 320              		.loc 1 31 13 is_stmt 1
 321              	.LVL8:
 322              	#NO_APP
 323              	.L6:
 324              	.LBE58:
 325              	.LBE57:
 326              	.LBE75:
  32:src/riscv.cpp ****         }
  33:src/riscv.cpp ****         case 0x02:{ //mem_free
  34:src/riscv.cpp ****             void* adr = (void*)a1;
  35:src/riscv.cpp ****             int vrati = AlokatorMemorije::dohvatiInstancu()->mem_free(adr);
  36:src/riscv.cpp ****             __asm__ volatile ("mv a0, %[povratna]" : : [povratna]"r" (vrati));
  37:src/riscv.cpp ****             break;
  38:src/riscv.cpp ****         }
  39:src/riscv.cpp ****         case 0x10:
  40:src/riscv.cpp ****         case 0x11:{ //thread_create
  41:src/riscv.cpp ****             thread_t* handle = (thread_t*)a1;
  42:src/riscv.cpp ****             using funk = void(*)(void*);
  43:src/riscv.cpp ****             void(*start_routine)(void*) = (funk)a2;
  44:src/riscv.cpp ****             void* arg = (void*)a3;
  45:src/riscv.cpp ****             uint64* stek = (uint64*)a4;
  46:src/riscv.cpp ****             *handle = TCB::NapraviInstancu(start_routine, arg, stek);
  47:src/riscv.cpp ****             if(a0 == 0x11)Scheduler::dohvatiInstancu()->Stavi(*handle);
  48:src/riscv.cpp ****             int vrati = (*handle != nullptr)? 0: -1;
  49:src/riscv.cpp ****             __asm__ volatile ("mv a0, %[povratna]" : : [povratna]"r" (vrati));
  50:src/riscv.cpp ****             break;
  51:src/riscv.cpp ****         }
  52:src/riscv.cpp ****         case 0x12:{ //thread_exit
  53:src/riscv.cpp ****             TCB::running->setGotov(true);
  54:src/riscv.cpp ****             TCB::running->Oslobodi();
  55:src/riscv.cpp ****             TCB::dispatch();
  56:src/riscv.cpp ****             int vrati = 0;
  57:src/riscv.cpp ****             __asm__ volatile ("mv a0, %[povratna]" : : [povratna]"r" (vrati));
  58:src/riscv.cpp ****             break;
  59:src/riscv.cpp ****         }
  60:src/riscv.cpp ****         case 0x13:{ //thread_dispatch
  61:src/riscv.cpp ****             TCB::dispatch();
  62:src/riscv.cpp ****             break;
  63:src/riscv.cpp ****         }
  64:src/riscv.cpp ****         case 0x14:{ //thread_join
  65:src/riscv.cpp ****             thread_t handle = (thread_t)a1;
  66:src/riscv.cpp ****             TCB::join(handle);
  67:src/riscv.cpp ****             int vrati = 0;
  68:src/riscv.cpp ****             __asm__ volatile ("mv a0, %[povratna]" : : [povratna]"r" (vrati));
  69:src/riscv.cpp ****             break;
  70:src/riscv.cpp ****         }
  71:src/riscv.cpp ****         case 0x21:{ //sem_open
  72:src/riscv.cpp ****             sem_t* handle = (sem_t*)a1;
GAS LISTING /tmp/ccr604J0.s 			page 10


  73:src/riscv.cpp ****             unsigned init = (unsigned)a2;
  74:src/riscv.cpp ****             *handle = Semafor::OtvoriSemafor(init);
  75:src/riscv.cpp ****             int vrati = (*handle != nullptr)? 0: -1;
  76:src/riscv.cpp ****             __asm__ volatile ("mv a0, %[povratna]" : : [povratna]"r" (vrati));
  77:src/riscv.cpp ****             break;
  78:src/riscv.cpp ****         }
  79:src/riscv.cpp ****         case 0x22:{ //sem_close
  80:src/riscv.cpp ****             sem_t handle = (sem_t)a1;
  81:src/riscv.cpp ****             Semafor::ZatvoriSemafor(handle);
  82:src/riscv.cpp ****             int vrati = 0;
  83:src/riscv.cpp ****             __asm__ volatile ("mv a0, %[povratna]" : : [povratna]"r" (vrati));
  84:src/riscv.cpp ****             break;
  85:src/riscv.cpp ****         }
  86:src/riscv.cpp ****         case 0x23:{ //sem_wait
  87:src/riscv.cpp ****             sem_t id = (sem_t)a1;
  88:src/riscv.cpp ****             int vrati = id->Wait();
  89:src/riscv.cpp ****             __asm__ volatile ("mv a0, %[povratna]" : : [povratna]"r" (vrati));
  90:src/riscv.cpp ****             break;
  91:src/riscv.cpp ****         }
  92:src/riscv.cpp ****         case 0x24:{ //sem_signal
  93:src/riscv.cpp ****             sem_t id = (sem_t)a1;
  94:src/riscv.cpp ****             id->Signal();
  95:src/riscv.cpp ****             int vrati = 0;
  96:src/riscv.cpp ****             __asm__ volatile ("mv a0, %[povratna]" : : [povratna]"r" (vrati));
  97:src/riscv.cpp ****             break;
  98:src/riscv.cpp ****         }
  99:src/riscv.cpp ****         case 0x31:{ //time_sleep
 100:src/riscv.cpp ****             time_t vreme = (time_t)a1;
 101:src/riscv.cpp ****             int volatile vrati = 0;
 102:src/riscv.cpp ****             if(vreme == 0)vrati = -1;
 103:src/riscv.cpp ****             else {
 104:src/riscv.cpp ****                 STL::DohvatiInstancu()->Stavi(vreme);
 105:src/riscv.cpp ****                 TCB::running->setUspavan(true);
 106:src/riscv.cpp ****                 TCB::dispatch();
 107:src/riscv.cpp ****             }
 108:src/riscv.cpp ****             __asm__ volatile ("mv a0, %[povratna]" : : [povratna]"r" (vrati));
 109:src/riscv.cpp ****             break;
 110:src/riscv.cpp ****         }
 111:src/riscv.cpp ****         case 0x41:{
 112:src/riscv.cpp ****             char volatile vrati = in->getc();
 113:src/riscv.cpp ****             //char vrati = __getc();
 114:src/riscv.cpp ****             __asm__ volatile ("mv a0, %[povratna]" : : [povratna]"r" (vrati));
 115:src/riscv.cpp ****             break;
 116:src/riscv.cpp ****         }
 117:src/riscv.cpp ****         case 0x42:{
 118:src/riscv.cpp ****             char chr = (char)a1;
 119:src/riscv.cpp ****             out->putc(chr);
 120:src/riscv.cpp ****             //__putc(chr);
 121:src/riscv.cpp ****             break;
 122:src/riscv.cpp ****         }
 123:src/riscv.cpp ****     }
 124:src/riscv.cpp ****     w_sstatus(sstatus);
 327              		.loc 1 124 5
 328              		.loc 1 124 14 is_stmt 0
 329 0134 833704FA 		ld	a5,-96(s0)
 330              	.LVL9:
 331              	.LBB76:
GAS LISTING /tmp/ccr604J0.s 			page 11


 332              	.LBB77:
  83:src/../h/riscv.hpp **** }
 333              		.loc 2 83 5 is_stmt 1
  83:src/../h/riscv.hpp **** }
 334              		.loc 2 83 76 is_stmt 0
 335              	#APP
 336              	# 83 "src/../h/riscv.hpp" 1
 337              		csrw sstatus, a5
 338              	# 0 "" 2
 339              	.LVL10:
 340              	#NO_APP
 341              	.LBE77:
 342              	.LBE76:
 125:src/riscv.cpp ****     w_sepc(sepc);
 343              		.loc 1 125 5 is_stmt 1
 344              		.loc 1 125 11 is_stmt 0
 345 013c 833784FA 		ld	a5,-88(s0)
 346              	.LVL11:
 347              	.LBB78:
 348              	.LBB79:
  69:src/../h/riscv.hpp **** }
 349              		.loc 2 69 5 is_stmt 1
  69:src/../h/riscv.hpp **** }
 350              		.loc 2 69 64 is_stmt 0
 351              	#APP
 352              	# 69 "src/../h/riscv.hpp" 1
 353              		csrw sepc, a5
 354              	# 0 "" 2
 355              	.LVL12:
 356              	#NO_APP
 357              	.LBE79:
 358              	.LBE78:
 126:src/riscv.cpp ****     mc_sip(SIP_SSIP);
 359              		.loc 1 126 5 is_stmt 1
 360              	.LBB80:
 361              	.LBB81:
  59:src/../h/riscv.hpp **** }
 362              		.loc 2 59 5
  59:src/../h/riscv.hpp **** }
 363              		.loc 2 59 64 is_stmt 0
 364 0144 93072000 		li	a5,2
 365              	#APP
 366              	# 59 "src/../h/riscv.hpp" 1
 367              		csrc sip, a5
 368              	# 0 "" 2
 369              	.LVL13:
 370              	#NO_APP
 371              	.LBE81:
 372              	.LBE80:
 127:src/riscv.cpp **** }
 373              		.loc 1 127 1
 374 014c 83308107 		ld	ra,120(sp)
 375              		.cfi_remember_state
 376              		.cfi_restore 1
 377 0150 03340107 		ld	s0,112(sp)
 378              		.cfi_restore 8
 379              		.cfi_def_cfa 2, 128
GAS LISTING /tmp/ccr604J0.s 			page 12


 380 0154 83348106 		ld	s1,104(sp)
 381              		.cfi_restore 9
 382 0158 13010108 		addi	sp,sp,128
 383              		.cfi_def_cfa_offset 0
 384 015c 67800000 		jr	ra
 385              	.L19:
 386              		.cfi_restore_state
 387              	.LBB82:
 388              	.LBB74:
  33:src/riscv.cpp ****             void* adr = (void*)a1;
 389              		.loc 1 33 9 is_stmt 1
  33:src/riscv.cpp ****             void* adr = (void*)a1;
 390              		.loc 1 33 19
 391              	.LBB59:
  34:src/riscv.cpp ****             int vrati = AlokatorMemorije::dohvatiInstancu()->mem_free(adr);
 392              		.loc 1 34 13
  34:src/riscv.cpp ****             int vrati = AlokatorMemorije::dohvatiInstancu()->mem_free(adr);
 393              		.loc 1 34 32 is_stmt 0
 394 0160 833404FD 		ld	s1,-48(s0)
 395              	.LVL14:
  35:src/riscv.cpp ****             __asm__ volatile ("mv a0, %[povratna]" : : [povratna]"r" (vrati));
 396              		.loc 1 35 13 is_stmt 1
  35:src/riscv.cpp ****             __asm__ volatile ("mv a0, %[povratna]" : : [povratna]"r" (vrati));
 397              		.loc 1 35 70 is_stmt 0
 398 0164 97000000 		call	_ZN16AlokatorMemorije15dohvatiInstancuEv@plt
 398      E7800000 
 399              	.LVL15:
 400 016c 93850400 		mv	a1,s1
 401 0170 97000000 		call	_ZN16AlokatorMemorije8mem_freeEPv@plt
 401      E7800000 
 402              	.LVL16:
  36:src/riscv.cpp ****             break;
 403              		.loc 1 36 13 is_stmt 1
  36:src/riscv.cpp ****             break;
 404              		.loc 1 36 78 is_stmt 0
 405              	#APP
 406              	# 36 "src/riscv.cpp" 1
  37:src/riscv.cpp ****         }
 407              		mv a0, a0
 408              	# 0 "" 2
 409              		.loc 1 37 13 is_stmt 1
 410              	#NO_APP
 411 017c 6FF09FFB 		j	.L6
 412              	.LVL17:
 413              	.L18:
 414              	.LBE59:
  39:src/riscv.cpp ****         case 0x11:{ //thread_create
 415              		.loc 1 39 9
  40:src/riscv.cpp ****             thread_t* handle = (thread_t*)a1;
 416              		.loc 1 40 9
  40:src/riscv.cpp ****             thread_t* handle = (thread_t*)a1;
 417              		.loc 1 40 19
 418              	.LBB60:
  41:src/riscv.cpp ****             using funk = void(*)(void*);
 419              		.loc 1 41 13
  41:src/riscv.cpp ****             using funk = void(*)(void*);
 420              		.loc 1 41 43 is_stmt 0
GAS LISTING /tmp/ccr604J0.s 			page 13


 421 0180 833404FD 		ld	s1,-48(s0)
 422              	.LVL18:
  42:src/riscv.cpp ****             void(*start_routine)(void*) = (funk)a2;
 423              		.loc 1 42 13 is_stmt 1
  43:src/riscv.cpp ****             void* arg = (void*)a3;
 424              		.loc 1 43 13
  43:src/riscv.cpp ****             void* arg = (void*)a3;
 425              		.loc 1 43 49 is_stmt 0
 426 0184 033584FC 		ld	a0,-56(s0)
 427              	.LVL19:
  44:src/riscv.cpp ****             uint64* stek = (uint64*)a4;
 428              		.loc 1 44 13 is_stmt 1
  44:src/riscv.cpp ****             uint64* stek = (uint64*)a4;
 429              		.loc 1 44 32 is_stmt 0
 430 0188 833504FC 		ld	a1,-64(s0)
 431              	.LVL20:
  45:src/riscv.cpp ****             *handle = TCB::NapraviInstancu(start_routine, arg, stek);
 432              		.loc 1 45 13 is_stmt 1
  45:src/riscv.cpp ****             *handle = TCB::NapraviInstancu(start_routine, arg, stek);
 433              		.loc 1 45 37 is_stmt 0
 434 018c 033684FB 		ld	a2,-72(s0)
 435              	.LVL21:
  46:src/riscv.cpp ****             if(a0 == 0x11)Scheduler::dohvatiInstancu()->Stavi(*handle);
 436              		.loc 1 46 13 is_stmt 1
  46:src/riscv.cpp ****             if(a0 == 0x11)Scheduler::dohvatiInstancu()->Stavi(*handle);
 437              		.loc 1 46 43 is_stmt 0
 438 0190 97000000 		call	_ZN3TCB15NapraviInstancuEPFvPvES0_Pm@plt
 438      E7800000 
 439              	.LVL22:
  46:src/riscv.cpp ****             if(a0 == 0x11)Scheduler::dohvatiInstancu()->Stavi(*handle);
 440              		.loc 1 46 21
 441 0198 23B0A400 		sd	a0,0(s1)
  47:src/riscv.cpp ****             int vrati = (*handle != nullptr)? 0: -1;
 442              		.loc 1 47 13 is_stmt 1
  47:src/riscv.cpp ****             int vrati = (*handle != nullptr)? 0: -1;
 443              		.loc 1 47 19 is_stmt 0
 444 019c 033784FD 		ld	a4,-40(s0)
  47:src/riscv.cpp ****             int vrati = (*handle != nullptr)? 0: -1;
 445              		.loc 1 47 13
 446 01a0 93071001 		li	a5,17
 447 01a4 630CF700 		beq	a4,a5,.L30
 448              	.L21:
  48:src/riscv.cpp ****             __asm__ volatile ("mv a0, %[povratna]" : : [povratna]"r" (vrati));
 449              		.loc 1 48 13 is_stmt 1
  48:src/riscv.cpp ****             __asm__ volatile ("mv a0, %[povratna]" : : [povratna]"r" (vrati));
 450              		.loc 1 48 26 is_stmt 0
 451 01a8 83B70400 		ld	a5,0(s1)
  48:src/riscv.cpp ****             __asm__ volatile ("mv a0, %[povratna]" : : [povratna]"r" (vrati));
 452              		.loc 1 48 45
 453 01ac 63840702 		beqz	a5,.L26
 454 01b0 93070000 		li	a5,0
 455              	.L22:
 456              	.LVL23:
  49:src/riscv.cpp ****             break;
 457              		.loc 1 49 13 is_stmt 1 discriminator 4
  49:src/riscv.cpp ****             break;
 458              		.loc 1 49 78 is_stmt 0 discriminator 4
GAS LISTING /tmp/ccr604J0.s 			page 14


 459              	#APP
 460              	# 49 "src/riscv.cpp" 1
  50:src/riscv.cpp ****         }
 461              		mv a0, a5
 462              	# 0 "" 2
 463              		.loc 1 50 13 is_stmt 1 discriminator 4
 464              	#NO_APP
 465 01b8 6FF0DFF7 		j	.L6
 466              	.LVL24:
 467              	.L30:
  47:src/riscv.cpp ****             int vrati = (*handle != nullptr)? 0: -1;
 468              		.loc 1 47 27 discriminator 1
  47:src/riscv.cpp ****             int vrati = (*handle != nullptr)? 0: -1;
 469              		.loc 1 47 62 is_stmt 0 discriminator 1
 470 01bc 97000000 		call	_ZN9Scheduler15dohvatiInstancuEv@plt
 470      E7800000 
 471              	.LVL25:
 472 01c4 83B50400 		ld	a1,0(s1)
 473 01c8 97000000 		call	_ZN9Scheduler5StaviEP3TCB@plt
 473      E7800000 
 474              	.LVL26:
 475 01d0 6FF09FFD 		j	.L21
 476              	.L26:
  48:src/riscv.cpp ****             __asm__ volatile ("mv a0, %[povratna]" : : [povratna]"r" (vrati));
 477              		.loc 1 48 45
 478 01d4 9307F0FF 		li	a5,-1
 479 01d8 6FF0DFFD 		j	.L22
 480              	.LVL27:
 481              	.L17:
 482              	.LBE60:
  52:src/riscv.cpp ****             TCB::running->setGotov(true);
 483              		.loc 1 52 9 is_stmt 1
  52:src/riscv.cpp ****             TCB::running->setGotov(true);
 484              		.loc 1 52 19
 485              	.LBB61:
  53:src/riscv.cpp ****             TCB::running->Oslobodi();
 486              		.loc 1 53 13
  53:src/riscv.cpp ****             TCB::running->Oslobodi();
 487              		.loc 1 53 35 is_stmt 0
 488 01dc 97070000 		la	a5,_ZN3TCB7runningE
 488      83B70700 
 489 01e4 03B50700 		ld	a0,0(a5)
 490              	.LVL28:
 491              	.LBB62:
 492              	.LBB63:
 493              		.file 3 "src/../h/TCB.hpp"
   1:src/../h/TCB.hpp **** #ifndef Tcb_hpp
   2:src/../h/TCB.hpp **** #define Tcb_hpp
   3:src/../h/TCB.hpp **** 
   4:src/../h/TCB.hpp **** #include "../lib/hw.h"
   5:src/../h/TCB.hpp **** #include "Scheduler.hpp"
   6:src/../h/TCB.hpp **** #include "syscall_cpp.hpp"
   7:src/../h/TCB.hpp **** #include "AlokatorMemorije.h"
   8:src/../h/TCB.hpp **** #include "syscall_c.h"
   9:src/../h/TCB.hpp **** 
  10:src/../h/TCB.hpp **** class TCB{
  11:src/../h/TCB.hpp **** public:
GAS LISTING /tmp/ccr604J0.s 			page 15


  12:src/../h/TCB.hpp ****     using Telo = void(*)(void*);
  13:src/../h/TCB.hpp **** 
  14:src/../h/TCB.hpp **** private:
  15:src/../h/TCB.hpp ****     struct Elem{
  16:src/../h/TCB.hpp ****         thread_t nit;
  17:src/../h/TCB.hpp ****         Elem* sl;
  18:src/../h/TCB.hpp ****     };
  19:src/../h/TCB.hpp ****     struct Kontekst{
  20:src/../h/TCB.hpp ****         uint64 ra;
  21:src/../h/TCB.hpp ****         uint64 sp;
  22:src/../h/TCB.hpp ****     };
  23:src/../h/TCB.hpp ****     Telo telo;
  24:src/../h/TCB.hpp ****     uint64* stek;
  25:src/../h/TCB.hpp ****     void* argument;
  26:src/../h/TCB.hpp ****     Kontekst kontekst;
  27:src/../h/TCB.hpp ****     uint64 dodeljenoVreme;
  28:src/../h/TCB.hpp ****     bool gotov;
  29:src/../h/TCB.hpp ****     bool blokiran;
  30:src/../h/TCB.hpp ****     bool uspavan;
  31:src/../h/TCB.hpp ****     Elem* glava, *rep;
  32:src/../h/TCB.hpp **** 
  33:src/../h/TCB.hpp ****     friend class RiscV;
  34:src/../h/TCB.hpp ****     friend class Semafor;
  35:src/../h/TCB.hpp ****     friend class STL;
  36:src/../h/TCB.hpp ****     friend class Scheduler;
  37:src/../h/TCB.hpp **** 
  38:src/../h/TCB.hpp ****     static void threadWrapper();
  39:src/../h/TCB.hpp **** 
  40:src/../h/TCB.hpp ****     static void dispatch();
  41:src/../h/TCB.hpp **** 
  42:src/../h/TCB.hpp ****     static void promenaKonteksta(Kontekst* stariKontekst, Kontekst* noviKontekst);
  43:src/../h/TCB.hpp **** 
  44:src/../h/TCB.hpp ****     static uint64 brojacDodeljivanja;
  45:src/../h/TCB.hpp **** 
  46:src/../h/TCB.hpp **** public:
  47:src/../h/TCB.hpp ****     bool isGotov() const {return gotov;};
  48:src/../h/TCB.hpp **** 
  49:src/../h/TCB.hpp ****     void setGotov(bool gotov) {this->gotov = gotov;};
 494              		.loc 3 49 32 is_stmt 1
 495              		.loc 3 49 44 is_stmt 0
 496 01e8 93071000 		li	a5,1
 497 01ec 2308F502 		sb	a5,48(a0)
 498              	.LVL29:
 499              	.LBE63:
 500              	.LBE62:
  54:src/riscv.cpp ****             TCB::dispatch();
 501              		.loc 1 54 13 is_stmt 1
  54:src/riscv.cpp ****             TCB::dispatch();
 502              		.loc 1 54 35 is_stmt 0
 503 01f0 97000000 		call	_ZN3TCB8OslobodiEv@plt
 503      E7800000 
 504              	.LVL30:
  55:src/riscv.cpp ****             int vrati = 0;
 505              		.loc 1 55 13 is_stmt 1
  55:src/riscv.cpp ****             int vrati = 0;
 506              		.loc 1 55 26 is_stmt 0
 507 01f8 97000000 		call	_ZN3TCB8dispatchEv@plt
GAS LISTING /tmp/ccr604J0.s 			page 16


 507      E7800000 
 508              	.LVL31:
  56:src/riscv.cpp ****             __asm__ volatile ("mv a0, %[povratna]" : : [povratna]"r" (vrati));
 509              		.loc 1 56 13 is_stmt 1
  57:src/riscv.cpp ****             break;
 510              		.loc 1 57 13
  57:src/riscv.cpp ****             break;
 511              		.loc 1 57 78 is_stmt 0
 512 0200 93070000 		li	a5,0
 513              	#APP
 514              	# 57 "src/riscv.cpp" 1
  58:src/riscv.cpp ****         }
 515              		mv a0, a5
 516              	# 0 "" 2
 517              		.loc 1 58 13 is_stmt 1
 518              	#NO_APP
 519 0208 6FF0DFF2 		j	.L6
 520              	.LVL32:
 521              	.L16:
 522              	.LBE61:
  60:src/riscv.cpp ****             TCB::dispatch();
 523              		.loc 1 60 9
  60:src/riscv.cpp ****             TCB::dispatch();
 524              		.loc 1 60 19
  61:src/riscv.cpp ****             break;
 525              		.loc 1 61 13
  61:src/riscv.cpp ****             break;
 526              		.loc 1 61 26 is_stmt 0
 527 020c 97000000 		call	_ZN3TCB8dispatchEv@plt
 527      E7800000 
 528              	.LVL33:
  62:src/riscv.cpp ****         }
 529              		.loc 1 62 13 is_stmt 1
 530 0214 6FF01FF2 		j	.L6
 531              	.L15:
  64:src/riscv.cpp ****             thread_t handle = (thread_t)a1;
 532              		.loc 1 64 9
  64:src/riscv.cpp ****             thread_t handle = (thread_t)a1;
 533              		.loc 1 64 19
 534              	.LBB64:
  65:src/riscv.cpp ****             TCB::join(handle);
 535              		.loc 1 65 13
  65:src/riscv.cpp ****             TCB::join(handle);
 536              		.loc 1 65 41 is_stmt 0
 537 0218 033504FD 		ld	a0,-48(s0)
 538              	.LVL34:
  66:src/riscv.cpp ****             int vrati = 0;
 539              		.loc 1 66 13 is_stmt 1
  66:src/riscv.cpp ****             int vrati = 0;
 540              		.loc 1 66 22 is_stmt 0
 541 021c 97000000 		call	_ZN3TCB4joinEPS_@plt
 541      E7800000 
 542              	.LVL35:
  67:src/riscv.cpp ****             __asm__ volatile ("mv a0, %[povratna]" : : [povratna]"r" (vrati));
 543              		.loc 1 67 13 is_stmt 1
  68:src/riscv.cpp ****             break;
 544              		.loc 1 68 13
GAS LISTING /tmp/ccr604J0.s 			page 17


  68:src/riscv.cpp ****             break;
 545              		.loc 1 68 78 is_stmt 0
 546 0224 93070000 		li	a5,0
 547              	#APP
 548              	# 68 "src/riscv.cpp" 1
  69:src/riscv.cpp ****         }
 549              		mv a0, a5
 550              	# 0 "" 2
 551              		.loc 1 69 13 is_stmt 1
 552              	#NO_APP
 553 022c 6FF09FF0 		j	.L6
 554              	.LVL36:
 555              	.L14:
 556              	.LBE64:
  71:src/riscv.cpp ****             sem_t* handle = (sem_t*)a1;
 557              		.loc 1 71 9
  71:src/riscv.cpp ****             sem_t* handle = (sem_t*)a1;
 558              		.loc 1 71 19
 559              	.LBB65:
  72:src/riscv.cpp ****             unsigned init = (unsigned)a2;
 560              		.loc 1 72 13
  72:src/riscv.cpp ****             unsigned init = (unsigned)a2;
 561              		.loc 1 72 37 is_stmt 0
 562 0230 833404FD 		ld	s1,-48(s0)
 563              	.LVL37:
  73:src/riscv.cpp ****             *handle = Semafor::OtvoriSemafor(init);
 564              		.loc 1 73 13 is_stmt 1
  73:src/riscv.cpp ****             *handle = Semafor::OtvoriSemafor(init);
 565              		.loc 1 73 39 is_stmt 0
 566 0234 033584FC 		ld	a0,-56(s0)
 567              	.LVL38:
  74:src/riscv.cpp ****             int vrati = (*handle != nullptr)? 0: -1;
 568              		.loc 1 74 13 is_stmt 1
  74:src/riscv.cpp ****             int vrati = (*handle != nullptr)? 0: -1;
 569              		.loc 1 74 45 is_stmt 0
 570 0238 1B050500 		sext.w	a0,a0
 571 023c 97000000 		call	_ZN7Semafor13OtvoriSemaforEj@plt
 571      E7800000 
 572              	.LVL39:
  74:src/riscv.cpp ****             int vrati = (*handle != nullptr)? 0: -1;
 573              		.loc 1 74 21
 574 0244 23B0A400 		sd	a0,0(s1)
  75:src/riscv.cpp ****             __asm__ volatile ("mv a0, %[povratna]" : : [povratna]"r" (vrati));
 575              		.loc 1 75 13 is_stmt 1
  75:src/riscv.cpp ****             __asm__ volatile ("mv a0, %[povratna]" : : [povratna]"r" (vrati));
 576              		.loc 1 75 45 is_stmt 0
 577 0248 63080500 		beqz	a0,.L27
 578 024c 93070000 		li	a5,0
 579              	.L23:
 580              	.LVL40:
  76:src/riscv.cpp ****             break;
 581              		.loc 1 76 13 is_stmt 1 discriminator 4
  76:src/riscv.cpp ****             break;
 582              		.loc 1 76 78 is_stmt 0 discriminator 4
 583              	#APP
 584              	# 76 "src/riscv.cpp" 1
  77:src/riscv.cpp ****         }
GAS LISTING /tmp/ccr604J0.s 			page 18


 585              		mv a0, a5
 586              	# 0 "" 2
 587              		.loc 1 77 13 is_stmt 1 discriminator 4
 588              	#NO_APP
 589 0254 6FF01FEE 		j	.L6
 590              	.LVL41:
 591              	.L27:
  75:src/riscv.cpp ****             __asm__ volatile ("mv a0, %[povratna]" : : [povratna]"r" (vrati));
 592              		.loc 1 75 45 is_stmt 0
 593 0258 9307F0FF 		li	a5,-1
 594 025c 6FF05FFF 		j	.L23
 595              	.LVL42:
 596              	.L13:
 597              	.LBE65:
  79:src/riscv.cpp ****             sem_t handle = (sem_t)a1;
 598              		.loc 1 79 9 is_stmt 1
  79:src/riscv.cpp ****             sem_t handle = (sem_t)a1;
 599              		.loc 1 79 19
 600              	.LBB66:
  80:src/riscv.cpp ****             Semafor::ZatvoriSemafor(handle);
 601              		.loc 1 80 13
  80:src/riscv.cpp ****             Semafor::ZatvoriSemafor(handle);
 602              		.loc 1 80 35 is_stmt 0
 603 0260 033504FD 		ld	a0,-48(s0)
 604              	.LVL43:
  81:src/riscv.cpp ****             int vrati = 0;
 605              		.loc 1 81 13 is_stmt 1
  81:src/riscv.cpp ****             int vrati = 0;
 606              		.loc 1 81 36 is_stmt 0
 607 0264 97000000 		call	_ZN7Semafor14ZatvoriSemaforEPS_@plt
 607      E7800000 
 608              	.LVL44:
  82:src/riscv.cpp ****             __asm__ volatile ("mv a0, %[povratna]" : : [povratna]"r" (vrati));
 609              		.loc 1 82 13 is_stmt 1
  83:src/riscv.cpp ****             break;
 610              		.loc 1 83 13
  83:src/riscv.cpp ****             break;
 611              		.loc 1 83 78 is_stmt 0
 612 026c 93070000 		li	a5,0
 613              	#APP
 614              	# 83 "src/riscv.cpp" 1
  84:src/riscv.cpp ****         }
 615              		mv a0, a5
 616              	# 0 "" 2
 617              		.loc 1 84 13 is_stmt 1
 618              	#NO_APP
 619 0274 6FF01FEC 		j	.L6
 620              	.LVL45:
 621              	.L12:
 622              	.LBE66:
  86:src/riscv.cpp ****             sem_t id = (sem_t)a1;
 623              		.loc 1 86 9
  86:src/riscv.cpp ****             sem_t id = (sem_t)a1;
 624              		.loc 1 86 19
 625              	.LBB67:
  87:src/riscv.cpp ****             int vrati = id->Wait();
 626              		.loc 1 87 13
GAS LISTING /tmp/ccr604J0.s 			page 19


  87:src/riscv.cpp ****             int vrati = id->Wait();
 627              		.loc 1 87 31 is_stmt 0
 628 0278 033504FD 		ld	a0,-48(s0)
 629              	.LVL46:
  88:src/riscv.cpp ****             __asm__ volatile ("mv a0, %[povratna]" : : [povratna]"r" (vrati));
 630              		.loc 1 88 13 is_stmt 1
  88:src/riscv.cpp ****             __asm__ volatile ("mv a0, %[povratna]" : : [povratna]"r" (vrati));
 631              		.loc 1 88 33 is_stmt 0
 632 027c 97000000 		call	_ZN7Semafor4WaitEv@plt
 632      E7800000 
 633              	.LVL47:
  89:src/riscv.cpp ****             break;
 634              		.loc 1 89 13 is_stmt 1
  89:src/riscv.cpp ****             break;
 635              		.loc 1 89 78 is_stmt 0
 636              	#APP
 637              	# 89 "src/riscv.cpp" 1
  90:src/riscv.cpp ****         }
 638              		mv a0, a0
 639              	# 0 "" 2
 640              		.loc 1 90 13 is_stmt 1
 641              	#NO_APP
 642 0288 6FF0DFEA 		j	.L6
 643              	.LVL48:
 644              	.L11:
 645              	.LBE67:
  92:src/riscv.cpp ****             sem_t id = (sem_t)a1;
 646              		.loc 1 92 9
  92:src/riscv.cpp ****             sem_t id = (sem_t)a1;
 647              		.loc 1 92 19
 648              	.LBB68:
  93:src/riscv.cpp ****             id->Signal();
 649              		.loc 1 93 13
  93:src/riscv.cpp ****             id->Signal();
 650              		.loc 1 93 31 is_stmt 0
 651 028c 033504FD 		ld	a0,-48(s0)
 652              	.LVL49:
  94:src/riscv.cpp ****             int vrati = 0;
 653              		.loc 1 94 13 is_stmt 1
  94:src/riscv.cpp ****             int vrati = 0;
 654              		.loc 1 94 23 is_stmt 0
 655 0290 97000000 		call	_ZN7Semafor6SignalEv@plt
 655      E7800000 
 656              	.LVL50:
  95:src/riscv.cpp ****             __asm__ volatile ("mv a0, %[povratna]" : : [povratna]"r" (vrati));
 657              		.loc 1 95 13 is_stmt 1
  96:src/riscv.cpp ****             break;
 658              		.loc 1 96 13
  96:src/riscv.cpp ****             break;
 659              		.loc 1 96 78 is_stmt 0
 660 0298 93070000 		li	a5,0
 661              	#APP
 662              	# 96 "src/riscv.cpp" 1
  97:src/riscv.cpp ****         }
 663              		mv a0, a5
 664              	# 0 "" 2
 665              		.loc 1 97 13 is_stmt 1
GAS LISTING /tmp/ccr604J0.s 			page 20


 666              	#NO_APP
 667 02a0 6FF05FE9 		j	.L6
 668              	.LVL51:
 669              	.L10:
 670              	.LBE68:
  99:src/riscv.cpp ****             time_t vreme = (time_t)a1;
 671              		.loc 1 99 9
  99:src/riscv.cpp ****             time_t vreme = (time_t)a1;
 672              		.loc 1 99 19
 673              	.LBB69:
 100:src/riscv.cpp ****             int volatile vrati = 0;
 674              		.loc 1 100 13
 100:src/riscv.cpp ****             int volatile vrati = 0;
 675              		.loc 1 100 36 is_stmt 0
 676 02a4 833404FD 		ld	s1,-48(s0)
 677              	.LVL52:
 101:src/riscv.cpp ****             if(vreme == 0)vrati = -1;
 678              		.loc 1 101 13 is_stmt 1
 101:src/riscv.cpp ****             if(vreme == 0)vrati = -1;
 679              		.loc 1 101 26 is_stmt 0
 680 02a8 232204F8 		sw	zero,-124(s0)
 102:src/riscv.cpp ****             else {
 681              		.loc 1 102 13 is_stmt 1
 682 02ac 639C0400 		bnez	s1,.L24
 102:src/riscv.cpp ****             else {
 683              		.loc 1 102 27 discriminator 1
 102:src/riscv.cpp ****             else {
 684              		.loc 1 102 33 is_stmt 0 discriminator 1
 685 02b0 9307F0FF 		li	a5,-1
 686 02b4 2322F4F8 		sw	a5,-124(s0)
 687              	.L25:
 108:src/riscv.cpp ****             break;
 688              		.loc 1 108 13 is_stmt 1
 108:src/riscv.cpp ****             break;
 689              		.loc 1 108 71 is_stmt 0
 690 02b8 832744F8 		lw	a5,-124(s0)
 108:src/riscv.cpp ****             break;
 691              		.loc 1 108 78
 692              	#APP
 693              	# 108 "src/riscv.cpp" 1
 109:src/riscv.cpp ****         }
 694              		mv a0, a5
 695              	# 0 "" 2
 696              		.loc 1 109 13 is_stmt 1
 697              	#NO_APP
 698 02c0 6FF05FE7 		j	.L6
 699              	.L24:
 104:src/riscv.cpp ****                 TCB::running->setUspavan(true);
 700              		.loc 1 104 17
 104:src/riscv.cpp ****                 TCB::running->setUspavan(true);
 701              		.loc 1 104 46 is_stmt 0
 702 02c4 97000000 		call	_ZN3STL15DohvatiInstancuEv@plt
 702      E7800000 
 703              	.LVL53:
 704 02cc 93850400 		mv	a1,s1
 705 02d0 97000000 		call	_ZN3STL5StaviEm@plt
 705      E7800000 
GAS LISTING /tmp/ccr604J0.s 			page 21


 706              	.LVL54:
 105:src/riscv.cpp ****                 TCB::dispatch();
 707              		.loc 1 105 17 is_stmt 1
 105:src/riscv.cpp ****                 TCB::dispatch();
 708              		.loc 1 105 41 is_stmt 0
 709 02d8 97070000 		la	a5,_ZN3TCB7runningE
 709      83B70700 
 710 02e0 83B70700 		ld	a5,0(a5)
 711              	.LVL55:
 712              	.LBB70:
 713              	.LBB71:
  50:src/../h/TCB.hpp **** 
  51:src/../h/TCB.hpp ****     static TCB* NapraviInstancu(Telo telo, void* arg, uint64* stek);
  52:src/../h/TCB.hpp **** 
  53:src/../h/TCB.hpp ****     bool isBlokiran() const {return blokiran;};
  54:src/../h/TCB.hpp **** 
  55:src/../h/TCB.hpp ****     void setBlokiran(bool blokiran) {this->blokiran = blokiran;};
  56:src/../h/TCB.hpp **** 
  57:src/../h/TCB.hpp ****     bool isUspavan() const {return uspavan;};
  58:src/../h/TCB.hpp **** 
  59:src/../h/TCB.hpp ****     void setUspavan(bool uspavan) {this->uspavan = uspavan;};
 714              		.loc 3 59 36 is_stmt 1
 715              		.loc 3 59 50 is_stmt 0
 716 02e4 13071000 		li	a4,1
 717 02e8 2389E702 		sb	a4,50(a5)
 718              	.LVL56:
 719              	.LBE71:
 720              	.LBE70:
 106:src/riscv.cpp ****             }
 721              		.loc 1 106 17 is_stmt 1
 106:src/riscv.cpp ****             }
 722              		.loc 1 106 30 is_stmt 0
 723 02ec 97000000 		call	_ZN3TCB8dispatchEv@plt
 723      E7800000 
 724              	.LVL57:
 725 02f4 6FF05FFC 		j	.L25
 726              	.LVL58:
 727              	.L9:
 728              	.LBE69:
 111:src/riscv.cpp ****             char volatile vrati = in->getc();
 729              		.loc 1 111 9 is_stmt 1
 111:src/riscv.cpp ****             char volatile vrati = in->getc();
 730              		.loc 1 111 19
 731              	.LBB72:
 112:src/riscv.cpp ****             //char vrati = __getc();
 732              		.loc 1 112 13
 112:src/riscv.cpp ****             //char vrati = __getc();
 733              		.loc 1 112 43 is_stmt 0
 734 02f8 97070000 		la	a5,_ZN5RiscV2inE
 734      83B70700 
 735 0300 03B50700 		ld	a0,0(a5)
 736 0304 97000000 		call	_ZN11KruzniBafer4getcEv@plt
 736      E7800000 
 737              	.LVL59:
 112:src/riscv.cpp ****             //char vrati = __getc();
 738              		.loc 1 112 44
 739 030c A301A4F8 		sb	a0,-125(s0)
GAS LISTING /tmp/ccr604J0.s 			page 22


 114:src/riscv.cpp ****             break;
 740              		.loc 1 114 13 is_stmt 1
 114:src/riscv.cpp ****             break;
 741              		.loc 1 114 71 is_stmt 0
 742 0310 834734F8 		lbu	a5,-125(s0)
 114:src/riscv.cpp ****             break;
 743              		.loc 1 114 78
 744              	#APP
 745              	# 114 "src/riscv.cpp" 1
 115:src/riscv.cpp ****         }
 746              		mv a0, a5
 747              	# 0 "" 2
 748              		.loc 1 115 13 is_stmt 1
 749              	#NO_APP
 750 0318 6FF0DFE1 		j	.L6
 751              	.L7:
 752              	.LBE72:
 117:src/riscv.cpp ****             char chr = (char)a1;
 753              		.loc 1 117 9
 117:src/riscv.cpp ****             char chr = (char)a1;
 754              		.loc 1 117 19
 755              	.LBB73:
 118:src/riscv.cpp ****             out->putc(chr);
 756              		.loc 1 118 13
 118:src/riscv.cpp ****             out->putc(chr);
 757              		.loc 1 118 30 is_stmt 0
 758 031c 833504FD 		ld	a1,-48(s0)
 759              	.LVL60:
 119:src/riscv.cpp ****             //__putc(chr);
 760              		.loc 1 119 13 is_stmt 1
 119:src/riscv.cpp ****             //__putc(chr);
 761              		.loc 1 119 22 is_stmt 0
 762 0320 93F5F50F 		andi	a1,a1,0xff
 763 0324 97070000 		la	a5,_ZN5RiscV3outE
 763      83B70700 
 764 032c 03B50700 		ld	a0,0(a5)
 765 0330 97000000 		call	_ZN11KruzniBafer4putcEc@plt
 765      E7800000 
 766              	.LVL61:
 121:src/riscv.cpp ****         }
 767              		.loc 1 121 13 is_stmt 1
 768 0338 6FF0DFDF 		j	.L6
 769              	.LBE73:
 770              	.LBE74:
 771              	.LBE82:
 772              		.cfi_endproc
 773              	.LFE28:
 775              		.align	2
 776              		.globl	_ZN5RiscV11HandleTimerEv
 778              	_ZN5RiscV11HandleTimerEv:
 779              	.LFB29:
 128:src/riscv.cpp **** 
 129:src/riscv.cpp **** void RiscV::HandleTimer(){
 780              		.loc 1 129 26
 781              		.cfi_startproc
 782              	.LVL62:
 783 033c 130101FC 		addi	sp,sp,-64
GAS LISTING /tmp/ccr604J0.s 			page 23


 784              		.cfi_def_cfa_offset 64
 785 0340 233C1102 		sd	ra,56(sp)
 786 0344 23388102 		sd	s0,48(sp)
 787 0348 23349102 		sd	s1,40(sp)
 788              		.cfi_offset 1, -8
 789              		.cfi_offset 8, -16
 790              		.cfi_offset 9, -24
 791 034c 13040104 		addi	s0,sp,64
 792              		.cfi_def_cfa 8, 0
 130:src/riscv.cpp ****     TCB::brojacDodeljivanja++;
 793              		.loc 1 130 5
 794              		.loc 1 130 28 is_stmt 0
 795 0350 97040000 		la	s1,_ZN3TCB18brojacDodeljivanjaE
 795      83B40400 
 796 0358 83B70400 		ld	a5,0(s1)
 797 035c 93871700 		addi	a5,a5,1
 798 0360 23B0F400 		sd	a5,0(s1)
 131:src/riscv.cpp ****     STL::DohvatiInstancu()->SmanjiIOslobodi();
 799              		.loc 1 131 5 is_stmt 1
 800              		.loc 1 131 44 is_stmt 0
 801 0364 97000000 		call	_ZN3STL15DohvatiInstancuEv@plt
 801      E7800000 
 802              	.LVL63:
 803 036c 97000000 		call	_ZN3STL15SmanjiIOslobodiEv@plt
 803      E7800000 
 804              	.LVL64:
 132:src/riscv.cpp ****     mc_sip(SIP_SSIP);
 805              		.loc 1 132 5 is_stmt 1
 806              	.LBB83:
 807              	.LBB84:
  59:src/../h/riscv.hpp **** }
 808              		.loc 2 59 5
  59:src/../h/riscv.hpp **** }
 809              		.loc 2 59 64 is_stmt 0
 810 0374 93072000 		li	a5,2
 811              	#APP
 812              	# 59 "src/../h/riscv.hpp" 1
 813              		csrc sip, a5
 814              	# 0 "" 2
 815              	.LVL65:
 816              	#NO_APP
 817              	.LBE84:
 818              	.LBE83:
 133:src/riscv.cpp ****     if(TCB::brojacDodeljivanja >= TCB::running->getDodeljenoVreme()) {
 819              		.loc 1 133 5 is_stmt 1
 820              	.LBB85:
 821              		.loc 1 133 66 is_stmt 0
 822 037c 97070000 		la	a5,_ZN3TCB7runningE
 822      83B70700 
 823 0384 83B70700 		ld	a5,0(a5)
 824              	.LVL66:
 825              	.LBB86:
 826              	.LBB87:
  60:src/../h/TCB.hpp **** 
  61:src/../h/TCB.hpp ****     uint64 getDodeljenoVreme() const {return dodeljenoVreme;}
 827              		.loc 3 61 39 is_stmt 1
 828              		.loc 3 61 46 is_stmt 0
GAS LISTING /tmp/ccr604J0.s 			page 24


 829 0388 83B78702 		ld	a5,40(a5)
 830              	.LVL67:
 831              	.LBE87:
 832              	.LBE86:
 833              		.loc 1 133 32
 834 038c 03B70400 		ld	a4,0(s1)
 835              		.loc 1 133 5
 836 0390 637CF700 		bgeu	a4,a5,.L34
 837              	.L31:
 838              	.LBE85:
 134:src/riscv.cpp ****         uint64 volatile sepc = r_sepc();
 135:src/riscv.cpp ****         uint64 volatile sstatus = r_sstatus();
 136:src/riscv.cpp ****         TCB::brojacDodeljivanja = 0;
 137:src/riscv.cpp ****         TCB::dispatch();
 138:src/riscv.cpp ****         w_sstatus(sstatus);
 139:src/riscv.cpp ****         w_sepc(sepc);
 140:src/riscv.cpp ****     }
 141:src/riscv.cpp **** }
 839              		.loc 1 141 1
 840 0394 83308103 		ld	ra,56(sp)
 841              		.cfi_remember_state
 842              		.cfi_restore 1
 843 0398 03340103 		ld	s0,48(sp)
 844              		.cfi_restore 8
 845              		.cfi_def_cfa 2, 64
 846 039c 83348102 		ld	s1,40(sp)
 847              		.cfi_restore 9
 848 03a0 13010104 		addi	sp,sp,64
 849              		.cfi_def_cfa_offset 0
 850 03a4 67800000 		jr	ra
 851              	.L34:
 852              		.cfi_restore_state
 853              	.LBB97:
 854              	.LBB88:
 134:src/riscv.cpp ****         uint64 volatile sepc = r_sepc();
 855              		.loc 1 134 9 is_stmt 1
 856              	.LBB89:
 857              	.LBB90:
  63:src/../h/riscv.hpp ****     __asm__ volatile ("csrr %[sepc], sepc" : [sepc]"=r"(sepc));
 858              		.loc 2 63 5
  64:src/../h/riscv.hpp ****     return sepc;
 859              		.loc 2 64 5
  64:src/../h/riscv.hpp ****     return sepc;
 860              		.loc 2 64 63 is_stmt 0
 861              	#APP
 862              	# 64 "src/../h/riscv.hpp" 1
 863              		csrr a5, sepc
 864              	# 0 "" 2
 865              	#NO_APP
 866 03ac 233CF4FC 		sd	a5,-40(s0)
  65:src/../h/riscv.hpp **** }
 867              		.loc 2 65 5 is_stmt 1
  65:src/../h/riscv.hpp **** }
 868              		.loc 2 65 12 is_stmt 0
 869 03b0 833784FD 		ld	a5,-40(s0)
 870              	.LBE90:
 871              	.LBE89:
GAS LISTING /tmp/ccr604J0.s 			page 25


 134:src/riscv.cpp ****         uint64 volatile sstatus = r_sstatus();
 872              		.loc 1 134 39
 873 03b4 2330F4FC 		sd	a5,-64(s0)
 135:src/riscv.cpp ****         TCB::brojacDodeljivanja = 0;
 874              		.loc 1 135 9 is_stmt 1
 875              	.LBB91:
 876              	.LBB92:
  77:src/../h/riscv.hpp ****     __asm__ volatile ("csrr %[sstatus], sstatus" : [sstatus]"=r"(sstatus));
 877              		.loc 2 77 5
  78:src/../h/riscv.hpp ****     return  sstatus;
 878              		.loc 2 78 5
  78:src/../h/riscv.hpp ****     return  sstatus;
 879              		.loc 2 78 75 is_stmt 0
 880              	#APP
 881              	# 78 "src/../h/riscv.hpp" 1
 882              		csrr a5, sstatus
 883              	# 0 "" 2
 884              	#NO_APP
 885 03bc 2338F4FC 		sd	a5,-48(s0)
  79:src/../h/riscv.hpp **** }
 886              		.loc 2 79 5 is_stmt 1
  79:src/../h/riscv.hpp **** }
 887              		.loc 2 79 13 is_stmt 0
 888 03c0 833704FD 		ld	a5,-48(s0)
 889              	.LBE92:
 890              	.LBE91:
 135:src/riscv.cpp ****         TCB::brojacDodeljivanja = 0;
 891              		.loc 1 135 45
 892 03c4 2334F4FC 		sd	a5,-56(s0)
 136:src/riscv.cpp ****         TCB::dispatch();
 893              		.loc 1 136 9 is_stmt 1
 136:src/riscv.cpp ****         TCB::dispatch();
 894              		.loc 1 136 33 is_stmt 0
 895 03c8 23B00400 		sd	zero,0(s1)
 137:src/riscv.cpp ****         w_sstatus(sstatus);
 896              		.loc 1 137 9 is_stmt 1
 137:src/riscv.cpp ****         w_sstatus(sstatus);
 897              		.loc 1 137 22 is_stmt 0
 898 03cc 97000000 		call	_ZN3TCB8dispatchEv@plt
 898      E7800000 
 899              	.LVL68:
 138:src/riscv.cpp ****         w_sepc(sepc);
 900              		.loc 1 138 9 is_stmt 1
 138:src/riscv.cpp ****         w_sepc(sepc);
 901              		.loc 1 138 18 is_stmt 0
 902 03d4 833784FC 		ld	a5,-56(s0)
 903              	.LVL69:
 904              	.LBB93:
 905              	.LBB94:
  83:src/../h/riscv.hpp **** }
 906              		.loc 2 83 5 is_stmt 1
  83:src/../h/riscv.hpp **** }
 907              		.loc 2 83 76 is_stmt 0
 908              	#APP
 909              	# 83 "src/../h/riscv.hpp" 1
 910              		csrw sstatus, a5
 911              	# 0 "" 2
GAS LISTING /tmp/ccr604J0.s 			page 26


 912              	.LVL70:
 913              	#NO_APP
 914              	.LBE94:
 915              	.LBE93:
 139:src/riscv.cpp ****     }
 916              		.loc 1 139 9 is_stmt 1
 139:src/riscv.cpp ****     }
 917              		.loc 1 139 15 is_stmt 0
 918 03dc 833704FC 		ld	a5,-64(s0)
 919              	.LVL71:
 920              	.LBB95:
 921              	.LBB96:
  69:src/../h/riscv.hpp **** }
 922              		.loc 2 69 5 is_stmt 1
  69:src/../h/riscv.hpp **** }
 923              		.loc 2 69 64 is_stmt 0
 924              	#APP
 925              	# 69 "src/../h/riscv.hpp" 1
 926              		csrw sepc, a5
 927              	# 0 "" 2
 928              	.LVL72:
 929              	#NO_APP
 930              	.LBE96:
 931              	.LBE95:
 932              	.LBE88:
 933              	.LBE97:
 934              		.loc 1 141 1
 935 03e4 6FF01FFB 		j	.L31
 936              		.cfi_endproc
 937              	.LFE29:
 939              		.align	2
 940              		.globl	_ZN5RiscV13HandleConsoleEv
 942              	_ZN5RiscV13HandleConsoleEv:
 943              	.LFB30:
 142:src/riscv.cpp **** 
 143:src/riscv.cpp **** void RiscV::HandleConsole(){
 944              		.loc 1 143 28 is_stmt 1
 945              		.cfi_startproc
 946              	.LVL73:
 947 03e8 130101FE 		addi	sp,sp,-32
 948              		.cfi_def_cfa_offset 32
 949 03ec 233C1100 		sd	ra,24(sp)
 950 03f0 23388100 		sd	s0,16(sp)
 951              		.cfi_offset 1, -8
 952              		.cfi_offset 8, -16
 953 03f4 13040102 		addi	s0,sp,32
 954              		.cfi_def_cfa 8, 0
 144:src/riscv.cpp ****     int volatile plic = plic_claim();
 955              		.loc 1 144 5
 956              		.loc 1 144 35 is_stmt 0
 957 03f8 97000000 		call	plic_claim@plt
 957      E7800000 
 958              	.LVL74:
 959              		.loc 1 144 36
 960 0400 2326A4FE 		sw	a0,-20(s0)
 145:src/riscv.cpp ****     while(*((char*)CONSOLE_STATUS) & CONSOLE_RX_STATUS_BIT){
 961              		.loc 1 145 5 is_stmt 1
GAS LISTING /tmp/ccr604J0.s 			page 27


 962              		.loc 1 145 38
 963              		.loc 1 145 11 is_stmt 0
 964 0404 97070000 		la	a5,CONSOLE_STATUS
 964      83B70700 
 965 040c 83B70700 		ld	a5,0(a5)
 966 0410 83C70700 		lbu	a5,0(a5)
 967              		.loc 1 145 38
 968 0414 93F71700 		andi	a5,a5,1
 969 0418 63920702 		bnez	a5,.L38
 970              	.L36:
 146:src/riscv.cpp ****         char c = *((char*)CONSOLE_RX_DATA);
 147:src/riscv.cpp ****         in->putc(c);
 148:src/riscv.cpp ****         break;
 149:src/riscv.cpp ****     }
 150:src/riscv.cpp ****     plic_complete(plic);
 971              		.loc 1 150 5 is_stmt 1
 972              		.loc 1 150 18 is_stmt 0
 973 041c 0325C4FE 		lw	a0,-20(s0)
 974 0420 1B050500 		sext.w	a0,a0
 975 0424 97000000 		call	plic_complete@plt
 975      E7800000 
 976              	.LVL75:
 151:src/riscv.cpp **** }...
 977              		.loc 1 151 1
 978 042c 83308101 		ld	ra,24(sp)
 979              		.cfi_remember_state
 980              		.cfi_restore 1
 981 0430 03340101 		ld	s0,16(sp)
 982              		.cfi_restore 8
 983              		.cfi_def_cfa 2, 32
 984 0434 13010102 		addi	sp,sp,32
 985              		.cfi_def_cfa_offset 0
 986 0438 67800000 		jr	ra
 987              	.L38:
 988              		.cfi_restore_state
 989              	.LBB98:
 146:src/riscv.cpp ****         char c = *((char*)CONSOLE_RX_DATA);
 990              		.loc 1 146 9 is_stmt 1
 146:src/riscv.cpp ****         char c = *((char*)CONSOLE_RX_DATA);
 991              		.loc 1 146 18 is_stmt 0
 992 043c 97070000 		la	a5,CONSOLE_RX_DATA
 992      83B70700 
 993 0444 83B70700 		ld	a5,0(a5)
 994              	.LVL76:
 147:src/riscv.cpp ****         in->putc(c);
 995              		.loc 1 147 9 is_stmt 1
 147:src/riscv.cpp ****         in->putc(c);
 996              		.loc 1 147 17 is_stmt 0
 997 0448 83C50700 		lbu	a1,0(a5)
 998 044c 97070000 		la	a5,_ZN5RiscV2inE
 998      83B70700 
 999              	.LVL77:
 1000 0454 03B50700 		ld	a0,0(a5)
 1001 0458 97000000 		call	_ZN11KruzniBafer4putcEc@plt
 1001      E7800000 
 1002              	.LVL78:
 148:src/riscv.cpp ****         break;
GAS LISTING /tmp/ccr604J0.s 			page 28


 1003              		.loc 1 148 9 is_stmt 1
 1004 0460 6FF0DFFB 		j	.L36
 1005              	.LBE98:
 1006              		.cfi_endproc
 1007              	.LFE30:
 1009              	.Letext0:
 1010              		.file 4 "src/../h/../lib/hw.h"
 1011              		.file 5 "src/../h/AlokatorMemorije.h"
 1012              		.file 6 "src/../h/Scheduler.hpp"
 1013              		.file 7 "src/../h/syscall_c.h"
 1014              		.file 8 "src/../h/Semafor.hpp"
 1015              		.file 9 "src/../h/STL.hpp"
 1016              		.file 10 "src/../h/KruzniBafer.hpp"
GAS LISTING /tmp/ccr604J0.s 			page 29


DEFINED SYMBOLS
                            *ABS*:0000000000000000 riscv.cpp
     /tmp/ccr604J0.s:9      .text:0000000000000000 _ZN5RiscV10popSppSpieEv
     /tmp/ccr604J0.s:13     .text:0000000000000000 .L0 
     /tmp/ccr604J0.s:14     .text:0000000000000000 .L0 
     /tmp/ccr604J0.s:15     .text:0000000000000004 .L0 
     /tmp/ccr604J0.s:17     .text:0000000000000008 .L0 
     /tmp/ccr604J0.s:19     .text:000000000000000c .L0 
     /tmp/ccr604J0.s:25     .text:000000000000000c .L0 
     /tmp/ccr604J0.s:26     .text:000000000000000c .L0 
     /tmp/ccr604J0.s:27     .text:000000000000000c .L0 
     /tmp/ccr604J0.s:37     .text:0000000000000014 .L0 
       src/riscv.cpp:5      .text:0000000000000014 .L0 
     /tmp/ccr604J0.s:43     .text:0000000000000018 .L0 
       src/riscv.cpp:6      .text:0000000000000018 .L0 
     /tmp/ccr604J0.s:49     .text:000000000000001c .L0 
     /tmp/ccr604J0.s:50     .text:0000000000000020 .L0 
     /tmp/ccr604J0.s:51     .text:0000000000000020 .L0 
     /tmp/ccr604J0.s:53     .text:0000000000000024 .L0 
     /tmp/ccr604J0.s:55     .text:0000000000000028 .L0 
     /tmp/ccr604J0.s:61     .text:0000000000000028 _ZN5RiscV20handleSupervisorTrapEv
     /tmp/ccr604J0.s:64     .text:0000000000000028 .L0 
     /tmp/ccr604J0.s:65     .text:0000000000000028 .L0 
     /tmp/ccr604J0.s:66     .text:000000000000002c .L0 
     /tmp/ccr604J0.s:70     .text:0000000000000038 .L0 
     /tmp/ccr604J0.s:71     .text:0000000000000038 .L0 
     /tmp/ccr604J0.s:72     .text:0000000000000038 .L0 
     /tmp/ccr604J0.s:74     .text:000000000000003c .L0 
     /tmp/ccr604J0.s:76     .text:000000000000003c .L0 
     /tmp/ccr604J0.s:77     .text:000000000000003c .L0 
       src/riscv.cpp:11     .text:000000000000003c .L0 
     /tmp/ccr604J0.s:85     .text:0000000000000044 .L0 
       src/riscv.cpp:12     .text:0000000000000044 .L0 
     /tmp/ccr604J0.s:93     .text:000000000000004c .L0 
       src/riscv.cpp:13     .text:000000000000004c .L0 
     /tmp/ccr604J0.s:101    .text:0000000000000054 .L0 
       src/riscv.cpp:14     .text:0000000000000054 .L0 
     /tmp/ccr604J0.s:109    .text:000000000000005c .L0 
       src/riscv.cpp:15     .text:000000000000005c .L0 
     /tmp/ccr604J0.s:119    .text:0000000000000064 .L0 
     /tmp/ccr604J0.s:120    .text:0000000000000064 .L0 
     /tmp/ccr604J0.s:121    .text:0000000000000064 .L0 
  src/../h/riscv.hpp:54     .text:0000000000000064 .L0 
     /tmp/ccr604J0.s:129    .text:000000000000006c .L0 
     /tmp/ccr604J0.s:130    .text:000000000000006c .L0 
     /tmp/ccr604J0.s:134    .text:0000000000000070 .L0 
     /tmp/ccr604J0.s:136    .text:0000000000000074 .L0 
     /tmp/ccr604J0.s:137    .text:0000000000000074 .L0 
     /tmp/ccr604J0.s:139    .text:0000000000000078 .L0 
     /tmp/ccr604J0.s:142    .text:0000000000000080 .L0 
     /tmp/ccr604J0.s:144    .text:0000000000000084 .L0 
     /tmp/ccr604J0.s:150    .text:000000000000008c .L0 
     /tmp/ccr604J0.s:151    .text:000000000000008c .L0 
     /tmp/ccr604J0.s:152    .text:000000000000008c .L0 
  src/../h/riscv.hpp:64     .text:000000000000008c .L0 
     /tmp/ccr604J0.s:160    .text:0000000000000094 .L0 
     /tmp/ccr604J0.s:161    .text:0000000000000094 .L0 
GAS LISTING /tmp/ccr604J0.s 			page 30


     /tmp/ccr604J0.s:165    .text:0000000000000098 .L0 
     /tmp/ccr604J0.s:167    .text:000000000000009c .L0 
     /tmp/ccr604J0.s:171    .text:00000000000000a0 .L0 
     /tmp/ccr604J0.s:172    .text:00000000000000a0 .L0 
     /tmp/ccr604J0.s:173    .text:00000000000000a0 .L0 
  src/../h/riscv.hpp:78     .text:00000000000000a0 .L0 
     /tmp/ccr604J0.s:181    .text:00000000000000a8 .L0 
     /tmp/ccr604J0.s:182    .text:00000000000000a8 .L0 
     /tmp/ccr604J0.s:186    .text:00000000000000ac .L0 
     /tmp/ccr604J0.s:189    .text:00000000000000b0 .L0 
     /tmp/ccr604J0.s:190    .text:00000000000000b0 .L0 
     /tmp/ccr604J0.s:274    .text:00000000000000d8 .L0 
     /tmp/ccr604J0.s:275    .text:00000000000000d8 .L0 
     /tmp/ccr604J0.s:283    .text:00000000000000f8 .L0 
     /tmp/ccr604J0.s:284    .text:00000000000000f8 .L0 
     /tmp/ccr604J0.s:289    .text:0000000000000108 .L0 
     /tmp/ccr604J0.s:290    .text:0000000000000108 .L0 
     /tmp/ccr604J0.s:295    .text:0000000000000114 .L0 
     /tmp/ccr604J0.s:296    .text:0000000000000114 .L0 
     /tmp/ccr604J0.s:301    .text:0000000000000118 .L0 
     /tmp/ccr604J0.s:303    .text:0000000000000118 .L0 
     /tmp/ccr604J0.s:304    .text:0000000000000118 .L0 
     /tmp/ccr604J0.s:305    .text:0000000000000118 .L0 
     /tmp/ccr604J0.s:308    .text:000000000000011c .L0 
     /tmp/ccr604J0.s:309    .text:000000000000011c .L0 
     /tmp/ccr604J0.s:315    .text:0000000000000130 .L0 
       src/riscv.cpp:30     .text:0000000000000130 .L0 
     /tmp/ccr604J0.s:327    .text:0000000000000134 .L0 
     /tmp/ccr604J0.s:328    .text:0000000000000134 .L0 
     /tmp/ccr604J0.s:329    .text:0000000000000134 .L0 
     /tmp/ccr604J0.s:334    .text:0000000000000138 .L0 
  src/../h/riscv.hpp:83     .text:0000000000000138 .L0 
     /tmp/ccr604J0.s:344    .text:000000000000013c .L0 
     /tmp/ccr604J0.s:345    .text:000000000000013c .L0 
     /tmp/ccr604J0.s:350    .text:0000000000000140 .L0 
  src/../h/riscv.hpp:69     .text:0000000000000140 .L0 
     /tmp/ccr604J0.s:362    .text:0000000000000144 .L0 
     /tmp/ccr604J0.s:363    .text:0000000000000144 .L0 
     /tmp/ccr604J0.s:364    .text:0000000000000144 .L0 
     /tmp/ccr604J0.s:374    .text:000000000000014c .L0 
     /tmp/ccr604J0.s:375    .text:0000000000000150 .L0 
     /tmp/ccr604J0.s:376    .text:0000000000000150 .L0 
     /tmp/ccr604J0.s:378    .text:0000000000000154 .L0 
     /tmp/ccr604J0.s:379    .text:0000000000000154 .L0 
     /tmp/ccr604J0.s:381    .text:0000000000000158 .L0 
     /tmp/ccr604J0.s:383    .text:000000000000015c .L0 
     /tmp/ccr604J0.s:386    .text:0000000000000160 .L0 
     /tmp/ccr604J0.s:390    .text:0000000000000160 .L0 
     /tmp/ccr604J0.s:392    .text:0000000000000160 .L0 
     /tmp/ccr604J0.s:393    .text:0000000000000160 .L0 
     /tmp/ccr604J0.s:394    .text:0000000000000160 .L0 
     /tmp/ccr604J0.s:397    .text:0000000000000164 .L0 
     /tmp/ccr604J0.s:398    .text:0000000000000164 .L0 
     /tmp/ccr604J0.s:404    .text:0000000000000178 .L0 
       src/riscv.cpp:36     .text:0000000000000178 .L0 
     /tmp/ccr604J0.s:411    .text:000000000000017c .L0 
     /tmp/ccr604J0.s:416    .text:0000000000000180 .L0 
GAS LISTING /tmp/ccr604J0.s 			page 31


     /tmp/ccr604J0.s:417    .text:0000000000000180 .L0 
     /tmp/ccr604J0.s:419    .text:0000000000000180 .L0 
     /tmp/ccr604J0.s:420    .text:0000000000000180 .L0 
     /tmp/ccr604J0.s:421    .text:0000000000000180 .L0 
     /tmp/ccr604J0.s:424    .text:0000000000000184 .L0 
     /tmp/ccr604J0.s:425    .text:0000000000000184 .L0 
     /tmp/ccr604J0.s:426    .text:0000000000000184 .L0 
     /tmp/ccr604J0.s:429    .text:0000000000000188 .L0 
     /tmp/ccr604J0.s:430    .text:0000000000000188 .L0 
     /tmp/ccr604J0.s:433    .text:000000000000018c .L0 
     /tmp/ccr604J0.s:434    .text:000000000000018c .L0 
     /tmp/ccr604J0.s:437    .text:0000000000000190 .L0 
     /tmp/ccr604J0.s:438    .text:0000000000000190 .L0 
     /tmp/ccr604J0.s:441    .text:0000000000000198 .L0 
     /tmp/ccr604J0.s:443    .text:000000000000019c .L0 
     /tmp/ccr604J0.s:444    .text:000000000000019c .L0 
     /tmp/ccr604J0.s:446    .text:00000000000001a0 .L0 
     /tmp/ccr604J0.s:450    .text:00000000000001a8 .L0 
     /tmp/ccr604J0.s:451    .text:00000000000001a8 .L0 
     /tmp/ccr604J0.s:453    .text:00000000000001ac .L0 
     /tmp/ccr604J0.s:458    .text:00000000000001b4 .L0 
       src/riscv.cpp:49     .text:00000000000001b4 .L0 
     /tmp/ccr604J0.s:465    .text:00000000000001b8 .L0 
     /tmp/ccr604J0.s:469    .text:00000000000001bc .L0 
     /tmp/ccr604J0.s:470    .text:00000000000001bc .L0 
     /tmp/ccr604J0.s:478    .text:00000000000001d4 .L0 
     /tmp/ccr604J0.s:484    .text:00000000000001dc .L0 
     /tmp/ccr604J0.s:486    .text:00000000000001dc .L0 
     /tmp/ccr604J0.s:487    .text:00000000000001dc .L0 
     /tmp/ccr604J0.s:488    .text:00000000000001dc .L0 
     /tmp/ccr604J0.s:495    .text:00000000000001e8 .L0 
     /tmp/ccr604J0.s:496    .text:00000000000001e8 .L0 
     /tmp/ccr604J0.s:502    .text:00000000000001f0 .L0 
     /tmp/ccr604J0.s:503    .text:00000000000001f0 .L0 
     /tmp/ccr604J0.s:506    .text:00000000000001f8 .L0 
     /tmp/ccr604J0.s:507    .text:00000000000001f8 .L0 
     /tmp/ccr604J0.s:510    .text:0000000000000200 .L0 
     /tmp/ccr604J0.s:511    .text:0000000000000200 .L0 
     /tmp/ccr604J0.s:512    .text:0000000000000200 .L0 
     /tmp/ccr604J0.s:519    .text:0000000000000208 .L0 
     /tmp/ccr604J0.s:524    .text:000000000000020c .L0 
     /tmp/ccr604J0.s:525    .text:000000000000020c .L0 
     /tmp/ccr604J0.s:526    .text:000000000000020c .L0 
     /tmp/ccr604J0.s:527    .text:000000000000020c .L0 
     /tmp/ccr604J0.s:530    .text:0000000000000214 .L0 
     /tmp/ccr604J0.s:533    .text:0000000000000218 .L0 
     /tmp/ccr604J0.s:535    .text:0000000000000218 .L0 
     /tmp/ccr604J0.s:536    .text:0000000000000218 .L0 
     /tmp/ccr604J0.s:537    .text:0000000000000218 .L0 
     /tmp/ccr604J0.s:540    .text:000000000000021c .L0 
     /tmp/ccr604J0.s:541    .text:000000000000021c .L0 
     /tmp/ccr604J0.s:544    .text:0000000000000224 .L0 
     /tmp/ccr604J0.s:545    .text:0000000000000224 .L0 
     /tmp/ccr604J0.s:546    .text:0000000000000224 .L0 
     /tmp/ccr604J0.s:553    .text:000000000000022c .L0 
     /tmp/ccr604J0.s:558    .text:0000000000000230 .L0 
     /tmp/ccr604J0.s:560    .text:0000000000000230 .L0 
GAS LISTING /tmp/ccr604J0.s 			page 32


     /tmp/ccr604J0.s:561    .text:0000000000000230 .L0 
     /tmp/ccr604J0.s:562    .text:0000000000000230 .L0 
     /tmp/ccr604J0.s:565    .text:0000000000000234 .L0 
     /tmp/ccr604J0.s:566    .text:0000000000000234 .L0 
     /tmp/ccr604J0.s:569    .text:0000000000000238 .L0 
     /tmp/ccr604J0.s:570    .text:0000000000000238 .L0 
     /tmp/ccr604J0.s:574    .text:0000000000000244 .L0 
     /tmp/ccr604J0.s:576    .text:0000000000000248 .L0 
     /tmp/ccr604J0.s:577    .text:0000000000000248 .L0 
     /tmp/ccr604J0.s:582    .text:0000000000000250 .L0 
       src/riscv.cpp:76     .text:0000000000000250 .L0 
     /tmp/ccr604J0.s:589    .text:0000000000000254 .L0 
     /tmp/ccr604J0.s:593    .text:0000000000000258 .L0 
     /tmp/ccr604J0.s:599    .text:0000000000000260 .L0 
     /tmp/ccr604J0.s:601    .text:0000000000000260 .L0 
     /tmp/ccr604J0.s:602    .text:0000000000000260 .L0 
     /tmp/ccr604J0.s:603    .text:0000000000000260 .L0 
     /tmp/ccr604J0.s:606    .text:0000000000000264 .L0 
     /tmp/ccr604J0.s:607    .text:0000000000000264 .L0 
     /tmp/ccr604J0.s:610    .text:000000000000026c .L0 
     /tmp/ccr604J0.s:611    .text:000000000000026c .L0 
     /tmp/ccr604J0.s:612    .text:000000000000026c .L0 
     /tmp/ccr604J0.s:619    .text:0000000000000274 .L0 
     /tmp/ccr604J0.s:624    .text:0000000000000278 .L0 
     /tmp/ccr604J0.s:626    .text:0000000000000278 .L0 
     /tmp/ccr604J0.s:627    .text:0000000000000278 .L0 
     /tmp/ccr604J0.s:628    .text:0000000000000278 .L0 
     /tmp/ccr604J0.s:631    .text:000000000000027c .L0 
     /tmp/ccr604J0.s:632    .text:000000000000027c .L0 
     /tmp/ccr604J0.s:635    .text:0000000000000284 .L0 
       src/riscv.cpp:89     .text:0000000000000284 .L0 
     /tmp/ccr604J0.s:642    .text:0000000000000288 .L0 
     /tmp/ccr604J0.s:647    .text:000000000000028c .L0 
     /tmp/ccr604J0.s:649    .text:000000000000028c .L0 
     /tmp/ccr604J0.s:650    .text:000000000000028c .L0 
     /tmp/ccr604J0.s:651    .text:000000000000028c .L0 
     /tmp/ccr604J0.s:654    .text:0000000000000290 .L0 
     /tmp/ccr604J0.s:655    .text:0000000000000290 .L0 
     /tmp/ccr604J0.s:658    .text:0000000000000298 .L0 
     /tmp/ccr604J0.s:659    .text:0000000000000298 .L0 
     /tmp/ccr604J0.s:660    .text:0000000000000298 .L0 
     /tmp/ccr604J0.s:667    .text:00000000000002a0 .L0 
     /tmp/ccr604J0.s:672    .text:00000000000002a4 .L0 
     /tmp/ccr604J0.s:674    .text:00000000000002a4 .L0 
     /tmp/ccr604J0.s:675    .text:00000000000002a4 .L0 
     /tmp/ccr604J0.s:676    .text:00000000000002a4 .L0 
     /tmp/ccr604J0.s:679    .text:00000000000002a8 .L0 
     /tmp/ccr604J0.s:680    .text:00000000000002a8 .L0 
     /tmp/ccr604J0.s:682    .text:00000000000002ac .L0 
     /tmp/ccr604J0.s:684    .text:00000000000002b0 .L0 
     /tmp/ccr604J0.s:685    .text:00000000000002b0 .L0 
     /tmp/ccr604J0.s:689    .text:00000000000002b8 .L0 
     /tmp/ccr604J0.s:690    .text:00000000000002b8 .L0 
       src/riscv.cpp:108    .text:00000000000002bc .L0 
     /tmp/ccr604J0.s:698    .text:00000000000002c0 .L0 
     /tmp/ccr604J0.s:701    .text:00000000000002c4 .L0 
     /tmp/ccr604J0.s:702    .text:00000000000002c4 .L0 
GAS LISTING /tmp/ccr604J0.s 			page 33


     /tmp/ccr604J0.s:708    .text:00000000000002d8 .L0 
     /tmp/ccr604J0.s:709    .text:00000000000002d8 .L0 
     /tmp/ccr604J0.s:715    .text:00000000000002e4 .L0 
     /tmp/ccr604J0.s:716    .text:00000000000002e4 .L0 
     /tmp/ccr604J0.s:722    .text:00000000000002ec .L0 
     /tmp/ccr604J0.s:723    .text:00000000000002ec .L0 
     /tmp/ccr604J0.s:730    .text:00000000000002f8 .L0 
     /tmp/ccr604J0.s:732    .text:00000000000002f8 .L0 
     /tmp/ccr604J0.s:733    .text:00000000000002f8 .L0 
     /tmp/ccr604J0.s:734    .text:00000000000002f8 .L0 
     /tmp/ccr604J0.s:739    .text:000000000000030c .L0 
     /tmp/ccr604J0.s:741    .text:0000000000000310 .L0 
     /tmp/ccr604J0.s:742    .text:0000000000000310 .L0 
       src/riscv.cpp:114    .text:0000000000000314 .L0 
     /tmp/ccr604J0.s:750    .text:0000000000000318 .L0 
     /tmp/ccr604J0.s:754    .text:000000000000031c .L0 
     /tmp/ccr604J0.s:756    .text:000000000000031c .L0 
     /tmp/ccr604J0.s:757    .text:000000000000031c .L0 
     /tmp/ccr604J0.s:758    .text:000000000000031c .L0 
     /tmp/ccr604J0.s:761    .text:0000000000000320 .L0 
     /tmp/ccr604J0.s:762    .text:0000000000000320 .L0 
     /tmp/ccr604J0.s:768    .text:0000000000000338 .L0 
     /tmp/ccr604J0.s:772    .text:000000000000033c .L0 
     /tmp/ccr604J0.s:778    .text:000000000000033c _ZN5RiscV11HandleTimerEv
     /tmp/ccr604J0.s:781    .text:000000000000033c .L0 
     /tmp/ccr604J0.s:783    .text:000000000000033c .L0 
     /tmp/ccr604J0.s:784    .text:0000000000000340 .L0 
     /tmp/ccr604J0.s:788    .text:000000000000034c .L0 
     /tmp/ccr604J0.s:789    .text:000000000000034c .L0 
     /tmp/ccr604J0.s:790    .text:000000000000034c .L0 
     /tmp/ccr604J0.s:792    .text:0000000000000350 .L0 
     /tmp/ccr604J0.s:794    .text:0000000000000350 .L0 
     /tmp/ccr604J0.s:795    .text:0000000000000350 .L0 
     /tmp/ccr604J0.s:800    .text:0000000000000364 .L0 
     /tmp/ccr604J0.s:801    .text:0000000000000364 .L0 
     /tmp/ccr604J0.s:808    .text:0000000000000374 .L0 
     /tmp/ccr604J0.s:809    .text:0000000000000374 .L0 
     /tmp/ccr604J0.s:810    .text:0000000000000374 .L0 
     /tmp/ccr604J0.s:821    .text:000000000000037c .L0 
     /tmp/ccr604J0.s:822    .text:000000000000037c .L0 
     /tmp/ccr604J0.s:828    .text:0000000000000388 .L0 
     /tmp/ccr604J0.s:829    .text:0000000000000388 .L0 
     /tmp/ccr604J0.s:834    .text:000000000000038c .L0 
     /tmp/ccr604J0.s:836    .text:0000000000000390 .L0 
     /tmp/ccr604J0.s:840    .text:0000000000000394 .L0 
     /tmp/ccr604J0.s:841    .text:0000000000000398 .L0 
     /tmp/ccr604J0.s:842    .text:0000000000000398 .L0 
     /tmp/ccr604J0.s:844    .text:000000000000039c .L0 
     /tmp/ccr604J0.s:845    .text:000000000000039c .L0 
     /tmp/ccr604J0.s:847    .text:00000000000003a0 .L0 
     /tmp/ccr604J0.s:849    .text:00000000000003a4 .L0 
     /tmp/ccr604J0.s:852    .text:00000000000003a8 .L0 
     /tmp/ccr604J0.s:858    .text:00000000000003a8 .L0 
     /tmp/ccr604J0.s:859    .text:00000000000003a8 .L0 
     /tmp/ccr604J0.s:860    .text:00000000000003a8 .L0 
  src/../h/riscv.hpp:64     .text:00000000000003a8 .L0 
     /tmp/ccr604J0.s:868    .text:00000000000003b0 .L0 
GAS LISTING /tmp/ccr604J0.s 			page 34


     /tmp/ccr604J0.s:869    .text:00000000000003b0 .L0 
     /tmp/ccr604J0.s:873    .text:00000000000003b4 .L0 
     /tmp/ccr604J0.s:877    .text:00000000000003b8 .L0 
     /tmp/ccr604J0.s:878    .text:00000000000003b8 .L0 
     /tmp/ccr604J0.s:879    .text:00000000000003b8 .L0 
  src/../h/riscv.hpp:78     .text:00000000000003b8 .L0 
     /tmp/ccr604J0.s:887    .text:00000000000003c0 .L0 
     /tmp/ccr604J0.s:888    .text:00000000000003c0 .L0 
     /tmp/ccr604J0.s:892    .text:00000000000003c4 .L0 
     /tmp/ccr604J0.s:894    .text:00000000000003c8 .L0 
     /tmp/ccr604J0.s:895    .text:00000000000003c8 .L0 
     /tmp/ccr604J0.s:897    .text:00000000000003cc .L0 
     /tmp/ccr604J0.s:898    .text:00000000000003cc .L0 
     /tmp/ccr604J0.s:901    .text:00000000000003d4 .L0 
     /tmp/ccr604J0.s:902    .text:00000000000003d4 .L0 
     /tmp/ccr604J0.s:907    .text:00000000000003d8 .L0 
  src/../h/riscv.hpp:83     .text:00000000000003d8 .L0 
     /tmp/ccr604J0.s:917    .text:00000000000003dc .L0 
     /tmp/ccr604J0.s:918    .text:00000000000003dc .L0 
     /tmp/ccr604J0.s:923    .text:00000000000003e0 .L0 
  src/../h/riscv.hpp:69     .text:00000000000003e0 .L0 
     /tmp/ccr604J0.s:935    .text:00000000000003e4 .L0 
     /tmp/ccr604J0.s:936    .text:00000000000003e8 .L0 
     /tmp/ccr604J0.s:942    .text:00000000000003e8 _ZN5RiscV13HandleConsoleEv
     /tmp/ccr604J0.s:945    .text:00000000000003e8 .L0 
     /tmp/ccr604J0.s:947    .text:00000000000003e8 .L0 
     /tmp/ccr604J0.s:948    .text:00000000000003ec .L0 
     /tmp/ccr604J0.s:951    .text:00000000000003f4 .L0 
     /tmp/ccr604J0.s:952    .text:00000000000003f4 .L0 
     /tmp/ccr604J0.s:954    .text:00000000000003f8 .L0 
     /tmp/ccr604J0.s:956    .text:00000000000003f8 .L0 
     /tmp/ccr604J0.s:957    .text:00000000000003f8 .L0 
     /tmp/ccr604J0.s:960    .text:0000000000000400 .L0 
     /tmp/ccr604J0.s:962    .text:0000000000000404 .L0 
     /tmp/ccr604J0.s:963    .text:0000000000000404 .L0 
     /tmp/ccr604J0.s:964    .text:0000000000000404 .L0 
     /tmp/ccr604J0.s:968    .text:0000000000000414 .L0 
     /tmp/ccr604J0.s:972    .text:000000000000041c .L0 
     /tmp/ccr604J0.s:973    .text:000000000000041c .L0 
     /tmp/ccr604J0.s:978    .text:000000000000042c .L0 
     /tmp/ccr604J0.s:979    .text:0000000000000430 .L0 
     /tmp/ccr604J0.s:980    .text:0000000000000430 .L0 
     /tmp/ccr604J0.s:982    .text:0000000000000434 .L0 
     /tmp/ccr604J0.s:983    .text:0000000000000434 .L0 
     /tmp/ccr604J0.s:985    .text:0000000000000438 .L0 
     /tmp/ccr604J0.s:988    .text:000000000000043c .L0 
     /tmp/ccr604J0.s:991    .text:000000000000043c .L0 
     /tmp/ccr604J0.s:992    .text:000000000000043c .L0 
     /tmp/ccr604J0.s:996    .text:0000000000000448 .L0 
     /tmp/ccr604J0.s:997    .text:0000000000000448 .L0 
     /tmp/ccr604J0.s:1004   .text:0000000000000460 .L0 
     /tmp/ccr604J0.s:1006   .text:0000000000000464 .L0 
     /tmp/ccr604J0.s:1017   .text:0000000000000464 .L0 
     /tmp/ccr604J0.s:202    .rodata:0000000000000000 .L8
     /tmp/ccr604J0.s:194    .text:00000000000000c0 .L0 
     /tmp/ccr604J0.s:277    .text:00000000000000e0 .L0 
     /tmp/ccr604J0.s:488    .text:00000000000001dc .L0 
GAS LISTING /tmp/ccr604J0.s 			page 35


     /tmp/ccr604J0.s:709    .text:00000000000002d8 .L0 
     /tmp/ccr604J0.s:734    .text:00000000000002f8 .L0 
     /tmp/ccr604J0.s:763    .text:0000000000000324 .L0 
     /tmp/ccr604J0.s:795    .text:0000000000000350 .L0 
     /tmp/ccr604J0.s:822    .text:000000000000037c .L0 
     /tmp/ccr604J0.s:964    .text:0000000000000404 .L0 
     /tmp/ccr604J0.s:992    .text:000000000000043c .L0 
     /tmp/ccr604J0.s:998    .text:000000000000044c .L0 
     /tmp/ccr604J0.s:146    .text:000000000000008c .L4
     /tmp/ccr604J0.s:271    .text:00000000000000d8 .L29
     /tmp/ccr604J0.s:323    .text:0000000000000134 .L6
     /tmp/ccr604J0.s:293    .text:0000000000000114 .L5
     /tmp/ccr604J0.s:467    .text:00000000000001bc .L30
     /tmp/ccr604J0.s:476    .text:00000000000001d4 .L26
     /tmp/ccr604J0.s:448    .text:00000000000001a8 .L21
     /tmp/ccr604J0.s:455    .text:00000000000001b4 .L22
     /tmp/ccr604J0.s:591    .text:0000000000000258 .L27
     /tmp/ccr604J0.s:579    .text:0000000000000250 .L23
     /tmp/ccr604J0.s:699    .text:00000000000002c4 .L24
     /tmp/ccr604J0.s:687    .text:00000000000002b8 .L25
     /tmp/ccr604J0.s:851    .text:00000000000003a8 .L34
     /tmp/ccr604J0.s:837    .text:0000000000000394 .L31
     /tmp/ccr604J0.s:987    .text:000000000000043c .L38
     /tmp/ccr604J0.s:970    .text:000000000000041c .L36
     /tmp/ccr604J0.s:297    .text:0000000000000118 .L20
     /tmp/ccr604J0.s:385    .text:0000000000000160 .L19
     /tmp/ccr604J0.s:413    .text:0000000000000180 .L18
     /tmp/ccr604J0.s:481    .text:00000000000001dc .L17
     /tmp/ccr604J0.s:521    .text:000000000000020c .L16
     /tmp/ccr604J0.s:531    .text:0000000000000218 .L15
     /tmp/ccr604J0.s:555    .text:0000000000000230 .L14
     /tmp/ccr604J0.s:596    .text:0000000000000260 .L13
     /tmp/ccr604J0.s:621    .text:0000000000000278 .L12
     /tmp/ccr604J0.s:644    .text:000000000000028c .L11
     /tmp/ccr604J0.s:669    .text:00000000000002a4 .L10
     /tmp/ccr604J0.s:727    .text:00000000000002f8 .L9
     /tmp/ccr604J0.s:751    .text:000000000000031c .L7
     /tmp/ccr604J0.s:3217   .debug_abbrev:0000000000000000 .Ldebug_abbrev0
     /tmp/ccr604J0.s:4900   .debug_str:0000000000000826 .LASF169
     /tmp/ccr604J0.s:4952   .debug_str:0000000000000a20 .LASF170
     /tmp/ccr604J0.s:4868   .debug_str:000000000000074d .LASF171
     /tmp/ccr604J0.s:5      .text:0000000000000000 .Ltext0
     /tmp/ccr604J0.s:1009   .text:0000000000000464 .Letext0
     /tmp/ccr604J0.s:4622   .debug_line:0000000000000000 .Ldebug_line0
     /tmp/ccr604J0.s:4728   .debug_str:000000000000035a .LASF0
     /tmp/ccr604J0.s:4754   .debug_str:0000000000000431 .LASF1
     /tmp/ccr604J0.s:4852   .debug_str:00000000000006f1 .LASF2
     /tmp/ccr604J0.s:4862   .debug_str:0000000000000736 .LASF4
     /tmp/ccr604J0.s:4734   .debug_str:000000000000037c .LASF3
     /tmp/ccr604J0.s:4632   .debug_str:0000000000000040 .LASF5
     /tmp/ccr604J0.s:4826   .debug_str:000000000000064c .LASF6
     /tmp/ccr604J0.s:4818   .debug_str:0000000000000609 .LASF7
     /tmp/ccr604J0.s:4742   .debug_str:00000000000003ab .LASF8
     /tmp/ccr604J0.s:4712   .debug_str:00000000000002ce .LASF9
     /tmp/ccr604J0.s:4714   .debug_str:00000000000002de .LASF10
     /tmp/ccr604J0.s:4660   .debug_str:0000000000000104 .LASF11
     /tmp/ccr604J0.s:4698   .debug_str:0000000000000259 .LASF12
GAS LISTING /tmp/ccr604J0.s 			page 36


     /tmp/ccr604J0.s:4672   .debug_str:0000000000000179 .LASF13
     /tmp/ccr604J0.s:4658   .debug_str:00000000000000f4 .LASF14
     /tmp/ccr604J0.s:4880   .debug_str:00000000000007d2 .LASF15
     /tmp/ccr604J0.s:4690   .debug_str:0000000000000213 .LASF16
     /tmp/ccr604J0.s:4872   .debug_str:0000000000000787 .LASF17
     /tmp/ccr604J0.s:4696   .debug_str:0000000000000248 .LASF20
     /tmp/ccr604J0.s:4974   .debug_str:0000000000000aed .LASF28
     /tmp/ccr604J0.s:4642   .debug_str:000000000000008b .LASF18
     /tmp/ccr604J0.s:4786   .debug_str:0000000000000509 .LASF19
     /tmp/ccr604J0.s:4888   .debug_str:00000000000007fd .LASF30
     /tmp/ccr604J0.s:4740   .debug_str:00000000000003a5 .LASF39
     /tmp/ccr604J0.s:4970   .debug_str:0000000000000aa9 .LASF41
     /tmp/ccr604J0.s:4870   .debug_str:000000000000076d .LASF21
     /tmp/ccr604J0.s:4816   .debug_str:00000000000005ed .LASF22
     /tmp/ccr604J0.s:4856   .debug_str:0000000000000704 .LASF23
     /tmp/ccr604J0.s:4810   .debug_str:00000000000005bc .LASF24
     /tmp/ccr604J0.s:4798   .debug_str:0000000000000573 .LASF36
     /tmp/ccr604J0.s:4746   .debug_str:00000000000003c7 .LASF37
     /tmp/ccr604J0.s:4782   .debug_str:00000000000004ec .LASF25
     /tmp/ccr604J0.s:4860   .debug_str:0000000000000714 .LASF26
     /tmp/ccr604J0.s:4882   .debug_str:00000000000007de .LASF43
     /tmp/ccr604J0.s:4904   .debug_str:00000000000008ef .LASF45
     /tmp/ccr604J0.s:4710   .debug_str:00000000000002c4 .LASF27
     /tmp/ccr604J0.s:4814   .debug_str:00000000000005e8 .LASF29
     /tmp/ccr604J0.s:4636   .debug_str:0000000000000062 .LASF31
     /tmp/ccr604J0.s:4956   .debug_str:0000000000000a37 .LASF32
     /tmp/ccr604J0.s:4962   .debug_str:0000000000000a52 .LASF33
     /tmp/ccr604J0.s:4912   .debug_str:0000000000000927 .LASF34
     /tmp/ccr604J0.s:4878   .debug_str:00000000000007be .LASF35
     /tmp/ccr604J0.s:4664   .debug_str:0000000000000126 .LASF38
     /tmp/ccr604J0.s:4834   .debug_str:0000000000000682 .LASF40
     /tmp/ccr604J0.s:4968   .debug_str:0000000000000a84 .LASF42
     /tmp/ccr604J0.s:4638   .debug_str:000000000000006c .LASF44
     /tmp/ccr604J0.s:4876   .debug_str:00000000000007a4 .LASF46
     /tmp/ccr604J0.s:4838   .debug_str:000000000000069e .LASF47
     /tmp/ccr604J0.s:4822   .debug_str:000000000000062e .LASF48
     /tmp/ccr604J0.s:4928   .debug_str:0000000000000977 .LASF49
     /tmp/ccr604J0.s:4924   .debug_str:000000000000095e .LASF50
     /tmp/ccr604J0.s:4758   .debug_str:000000000000044d .LASF172
     /tmp/ccr604J0.s:4684   .debug_str:00000000000001f7 .LASF51
     /tmp/ccr604J0.s:4854   .debug_str:00000000000006ff .LASF52
     /tmp/ccr604J0.s:4736   .debug_str:000000000000038e .LASF53
     /tmp/ccr604J0.s:4744   .debug_str:00000000000003be .LASF54
     /tmp/ccr604J0.s:4650   .debug_str:00000000000000b0 .LASF55
     /tmp/ccr604J0.s:4918   .debug_str:0000000000000946 .LASF56
     /tmp/ccr604J0.s:4844   .debug_str:00000000000006c3 .LASF57
     /tmp/ccr604J0.s:4766   .debug_str:0000000000000483 .LASF58
     /tmp/ccr604J0.s:4652   .debug_str:00000000000000bf .LASF59
     /tmp/ccr604J0.s:4762   .debug_str:000000000000045b .LASF61
     /tmp/ccr604J0.s:4686   .debug_str:00000000000001fc .LASF60
     /tmp/ccr604J0.s:4666   .debug_str:0000000000000147 .LASF62
     /tmp/ccr604J0.s:4630   .debug_str:000000000000002f .LASF173
     /tmp/ccr604J0.s:4934   .debug_str:000000000000099b .LASF174
     /tmp/ccr604J0.s:4830   .debug_str:0000000000000661 .LASF63
     /tmp/ccr604J0.s:4920   .debug_str:000000000000094c .LASF64
     /tmp/ccr604J0.s:4662   .debug_str:0000000000000113 .LASF65
     /tmp/ccr604J0.s:4836   .debug_str:0000000000000695 .LASF66
GAS LISTING /tmp/ccr604J0.s 			page 37


     /tmp/ccr604J0.s:4722   .debug_str:000000000000032c .LASF67
     /tmp/ccr604J0.s:4730   .debug_str:0000000000000367 .LASF68
     /tmp/ccr604J0.s:4708   .debug_str:000000000000029f .LASF69
     /tmp/ccr604J0.s:4866   .debug_str:0000000000000742 .LASF70
     /tmp/ccr604J0.s:4778   .debug_str:00000000000004d0 .LASF71
     /tmp/ccr604J0.s:4624   .debug_str:0000000000000000 .LASF72
     /tmp/ccr604J0.s:4626   .debug_str:000000000000000c .LASF73
     /tmp/ccr604J0.s:4922   .debug_str:0000000000000954 .LASF74
     /tmp/ccr604J0.s:4848   .debug_str:00000000000006d1 .LASF75
     /tmp/ccr604J0.s:4966   .debug_str:0000000000000a79 .LASF76
     /tmp/ccr604J0.s:4648   .debug_str:000000000000009a .LASF77
     /tmp/ccr604J0.s:4820   .debug_str:000000000000061c .LASF78
     /tmp/ccr604J0.s:4654   .debug_str:00000000000000cd .LASF79
     /tmp/ccr604J0.s:4892   .debug_str:000000000000080f .LASF80
     /tmp/ccr604J0.s:4702   .debug_str:000000000000026e .LASF81
     /tmp/ccr604J0.s:4896   .debug_str:0000000000000819 .LASF134
     /tmp/ccr604J0.s:4864   .debug_str:000000000000073d .LASF82
     /tmp/ccr604J0.s:4628   .debug_str:0000000000000023 .LASF83
     /tmp/ccr604J0.s:4950   .debug_str:0000000000000a17 .LASF84
     /tmp/ccr604J0.s:4668   .debug_str:000000000000015a .LASF85
     /tmp/ccr604J0.s:4940   .debug_str:00000000000009e4 .LASF86
     /tmp/ccr604J0.s:4960   .debug_str:0000000000000a4c .LASF87
     /tmp/ccr604J0.s:4806   .debug_str:00000000000005ad .LASF88
     /tmp/ccr604J0.s:4824   .debug_str:0000000000000643 .LASF89
     /tmp/ccr604J0.s:4656   .debug_str:00000000000000eb .LASF90
     /tmp/ccr604J0.s:4832   .debug_str:0000000000000674 .LASF91
     /tmp/ccr604J0.s:4794   .debug_str:000000000000054e .LASF92
     /tmp/ccr604J0.s:4764   .debug_str:0000000000000474 .LASF93
     /tmp/ccr604J0.s:4682   .debug_str:00000000000001d7 .LASF94
     /tmp/ccr604J0.s:4910   .debug_str:0000000000000920 .LASF95
     /tmp/ccr604J0.s:4718   .debug_str:00000000000002f3 .LASF96
     /tmp/ccr604J0.s:4916   .debug_str:0000000000000941 .LASF97
     /tmp/ccr604J0.s:4770   .debug_str:00000000000004a7 .LASF98
     /tmp/ccr604J0.s:4884   .debug_str:00000000000007e7 .LASF99
     /tmp/ccr604J0.s:4774   .debug_str:00000000000004c5 .LASF100
     /tmp/ccr604J0.s:4858   .debug_str:000000000000070e .LASF101
     /tmp/ccr604J0.s:4790   .debug_str:0000000000000527 .LASF102
     /tmp/ccr604J0.s:4800   .debug_str:0000000000000583 .LASF103
     /tmp/ccr604J0.s:4738   .debug_str:0000000000000397 .LASF104
     /tmp/ccr604J0.s:4802   .debug_str:0000000000000591 .LASF105
     /tmp/ccr604J0.s:4706   .debug_str:0000000000000284 .LASF106
     /tmp/ccr604J0.s:4926   .debug_str:0000000000000967 .LASF107
     /tmp/ccr604J0.s:4972   .debug_str:0000000000000add .LASF108
     /tmp/ccr604J0.s:4634   .debug_str:0000000000000047 .LASF109
     /tmp/ccr604J0.s:4726   .debug_str:000000000000034a .LASF110
     /tmp/ccr604J0.s:4804   .debug_str:00000000000005a1 .LASF111
     /tmp/ccr604J0.s:4906   .debug_str:0000000000000911 .LASF112
     /tmp/ccr604J0.s:4644   .debug_str:0000000000000090 .LASF113
     /tmp/ccr604J0.s:4808   .debug_str:00000000000005b5 .LASF114
     /tmp/ccr604J0.s:4776   .debug_str:00000000000004ca .LASF115
     /tmp/ccr604J0.s:4812   .debug_str:00000000000005d8 .LASF116
     /tmp/ccr604J0.s:4720   .debug_str:0000000000000308 .LASF117
     /tmp/ccr604J0.s:4780   .debug_str:00000000000004e7 .LASF118
     /tmp/ccr604J0.s:4938   .debug_str:00000000000009cc .LASF119
     /tmp/ccr604J0.s:4732   .debug_str:0000000000000377 .LASF120
     /tmp/ccr604J0.s:4748   .debug_str:00000000000003f0 .LASF121
     /tmp/ccr604J0.s:4890   .debug_str:0000000000000806 .LASF122
GAS LISTING /tmp/ccr604J0.s 			page 38


     /tmp/ccr604J0.s:4768   .debug_str:000000000000048b .LASF123
     /tmp/ccr604J0.s:4914   .debug_str:000000000000093b .LASF124
     /tmp/ccr604J0.s:4840   .debug_str:00000000000006a3 .LASF175
     /tmp/ccr604J0.s:4760   .debug_str:0000000000000452 .LASF125
     /tmp/ccr604J0.s:4694   .debug_str:000000000000023f .LASF126
     /tmp/ccr604J0.s:4954   .debug_str:0000000000000a2e .LASF127
     /tmp/ccr604J0.s:4842   .debug_str:00000000000006ae .LASF128
     /tmp/ccr604J0.s:4674   .debug_str:0000000000000189 .LASF129
     /tmp/ccr604J0.s:4670   .debug_str:000000000000016d .LASF130
     /tmp/ccr604J0.s:4640   .debug_str:0000000000000072 .LASF131
     /tmp/ccr604J0.s:4688   .debug_str:0000000000000205 .LASF132
     /tmp/ccr604J0.s:4792   .debug_str:0000000000000533 .LASF133
     /tmp/ccr604J0.s:4756   .debug_str:0000000000000444 .LASF135
     /tmp/ccr604J0.s:4964   .debug_str:0000000000000a64 .LASF136
     /tmp/ccr604J0.s:4716   .debug_str:00000000000002ec .LASF137
     /tmp/ccr604J0.s:4784   .debug_str:00000000000004f6 .LASF138
     /tmp/ccr604J0.s:4724   .debug_str:000000000000033f .LASF151
     /tmp/ccr604J0.s:4788   .debug_str:000000000000050f .LASF153
     /tmp/ccr604J0.s:4932   .debug_str:0000000000000994 .LASF139
     /tmp/ccr604J0.s:4752   .debug_str:000000000000041e .LASF140
     /tmp/ccr604J0.s:4908   .debug_str:0000000000000919 .LASF141
     /tmp/ccr604J0.s:4676   .debug_str:00000000000001ab .LASF142
     /tmp/ccr604J0.s:4944   .debug_str:00000000000009f7 .LASF143
     /tmp/ccr604J0.s:4750   .debug_str:0000000000000408 .LASF144
     /tmp/ccr604J0.s:4942   .debug_str:00000000000009ed .LASF145
     /tmp/ccr604J0.s:4692   .debug_str:0000000000000229 .LASF146
     /tmp/ccr604J0.s:4850   .debug_str:00000000000006e6 .LASF147
     /tmp/ccr604J0.s:4930   .debug_str:000000000000097c .LASF148
     /tmp/ccr604J0.s:4796   .debug_str:000000000000056b .LASF149
     /tmp/ccr604J0.s:4680   .debug_str:00000000000001c3 .LASF150
     /tmp/ccr604J0.s:4898   .debug_str:0000000000000821 .LASF152
     /tmp/ccr604J0.s:4886   .debug_str:00000000000007ec .LASF154
     /tmp/ccr604J0.s:943    .text:00000000000003e8 .LFB30
     /tmp/ccr604J0.s:1007   .text:0000000000000464 .LFE30
     /tmp/ccr604J0.s:4704   .debug_str:000000000000027f .LASF156
     /tmp/ccr604J0.s:4318   .debug_loc:0000000000000000 .LLST36
     /tmp/ccr604J0.s:4846   .debug_str:00000000000006cc .LASF155
     /tmp/ccr604J0.s:989    .text:000000000000043c .LBB98
     /tmp/ccr604J0.s:1005   .text:0000000000000464 .LBE98
     /tmp/ccr604J0.s:4332   .debug_loc:0000000000000039 .LLST37
     /tmp/ccr604J0.s:1002   .text:0000000000000460 .LVL78
     /tmp/ccr604J0.s:958    .text:0000000000000400 .LVL74
     /tmp/ccr604J0.s:976    .text:000000000000042c .LVL75
     /tmp/ccr604J0.s:779    .text:000000000000033c .LFB29
     /tmp/ccr604J0.s:937    .text:00000000000003e8 .LFE29
     /tmp/ccr604J0.s:4340   .debug_loc:000000000000005d .LLST31
     /tmp/ccr604J0.s:854    .text:00000000000003a8 .LBB88
     /tmp/ccr604J0.s:932    .text:00000000000003e4 .LBE88
     /tmp/ccr604J0.s:4902   .debug_str:00000000000008ea .LASF157
     /tmp/ccr604J0.s:4946   .debug_str:0000000000000a01 .LASF158
     /tmp/ccr604J0.s:856    .text:00000000000003a8 .LBB89
     /tmp/ccr604J0.s:871    .text:00000000000003b4 .LBE89
     /tmp/ccr604J0.s:875    .text:00000000000003b8 .LBB91
     /tmp/ccr604J0.s:890    .text:00000000000003c4 .LBE91
     /tmp/ccr604J0.s:904    .text:00000000000003d8 .LBB93
     /tmp/ccr604J0.s:915    .text:00000000000003dc .LBE93
     /tmp/ccr604J0.s:4354   .debug_loc:0000000000000096 .LLST34
GAS LISTING /tmp/ccr604J0.s 			page 39


     /tmp/ccr604J0.s:920    .text:00000000000003e0 .LBB95
     /tmp/ccr604J0.s:931    .text:00000000000003e4 .LBE95
     /tmp/ccr604J0.s:4361   .debug_loc:00000000000000b9 .LLST35
     /tmp/ccr604J0.s:899    .text:00000000000003d4 .LVL68
     /tmp/ccr604J0.s:806    .text:0000000000000374 .LBB83
     /tmp/ccr604J0.s:818    .text:000000000000037c .LBE83
     /tmp/ccr604J0.s:4368   .debug_loc:00000000000000dc .LLST32
     /tmp/ccr604J0.s:825    .text:0000000000000388 .LBB86
     /tmp/ccr604J0.s:832    .text:000000000000038c .LBE86
     /tmp/ccr604J0.s:4376   .debug_loc:0000000000000100 .LLST33
     /tmp/ccr604J0.s:802    .text:000000000000036c .LVL63
     /tmp/ccr604J0.s:804    .text:0000000000000374 .LVL64
     /tmp/ccr604J0.s:62     .text:0000000000000028 .LFB28
     /tmp/ccr604J0.s:773    .text:000000000000033c .LFE28
     /tmp/ccr604J0.s:4874   .debug_str:000000000000079d .LASF159
     /tmp/ccr604J0.s:302    .text:0000000000000118 .LBB58
     /tmp/ccr604J0.s:324    .text:0000000000000134 .LBE58
     /tmp/ccr604J0.s:4678   .debug_str:00000000000001be .LASF160
     /tmp/ccr604J0.s:4383   .debug_loc:0000000000000123 .LLST1
     /tmp/ccr604J0.s:4700   .debug_str:0000000000000268 .LASF161
     /tmp/ccr604J0.s:4390   .debug_loc:0000000000000146 .LLST2
     /tmp/ccr604J0.s:310    .text:0000000000000124 .LVL6
     /tmp/ccr604J0.s:313    .text:0000000000000130 .LVL7
     /tmp/ccr604J0.s:391    .text:0000000000000160 .LBB59
     /tmp/ccr604J0.s:414    .text:0000000000000180 .LBE59
     /tmp/ccr604J0.s:4397   .debug_loc:0000000000000169 .LLST3
     /tmp/ccr604J0.s:4404   .debug_loc:000000000000018c .LLST4
     /tmp/ccr604J0.s:399    .text:000000000000016c .LVL15
     /tmp/ccr604J0.s:402    .text:0000000000000178 .LVL16
     /tmp/ccr604J0.s:418    .text:0000000000000180 .LBB60
     /tmp/ccr604J0.s:482    .text:00000000000001dc .LBE60
     /tmp/ccr604J0.s:4958   .debug_str:0000000000000a45 .LASF162
     /tmp/ccr604J0.s:4411   .debug_loc:00000000000001af .LLST5
     /tmp/ccr604J0.s:4894   .debug_str:0000000000000814 .LASF163
     /tmp/ccr604J0.s:4828   .debug_str:0000000000000653 .LASF164
     /tmp/ccr604J0.s:4418   .debug_loc:00000000000001d2 .LLST6
     /tmp/ccr604J0.s:4425   .debug_loc:00000000000001f5 .LLST7
     /tmp/ccr604J0.s:4432   .debug_loc:0000000000000218 .LLST8
     /tmp/ccr604J0.s:4439   .debug_loc:000000000000023b .LLST9
     /tmp/ccr604J0.s:439    .text:0000000000000198 .LVL22
     /tmp/ccr604J0.s:471    .text:00000000000001c4 .LVL25
     /tmp/ccr604J0.s:474    .text:00000000000001d0 .LVL26
     /tmp/ccr604J0.s:485    .text:00000000000001dc .LBB61
     /tmp/ccr604J0.s:522    .text:000000000000020c .LBE61
     /tmp/ccr604J0.s:4446   .debug_loc:000000000000025e .LLST10
     /tmp/ccr604J0.s:491    .text:00000000000001e8 .LBB62
     /tmp/ccr604J0.s:500    .text:00000000000001f0 .LBE62
     /tmp/ccr604J0.s:4454   .debug_loc:0000000000000282 .LLST11
     /tmp/ccr604J0.s:4462   .debug_loc:00000000000002a6 .LLST12
     /tmp/ccr604J0.s:504    .text:00000000000001f8 .LVL30
     /tmp/ccr604J0.s:508    .text:0000000000000200 .LVL31
     /tmp/ccr604J0.s:534    .text:0000000000000218 .LBB64
     /tmp/ccr604J0.s:556    .text:0000000000000230 .LBE64
     /tmp/ccr604J0.s:4469   .debug_loc:00000000000002c9 .LLST13
     /tmp/ccr604J0.s:4476   .debug_loc:00000000000002ec .LLST14
     /tmp/ccr604J0.s:542    .text:0000000000000224 .LVL35
     /tmp/ccr604J0.s:559    .text:0000000000000230 .LBB65
GAS LISTING /tmp/ccr604J0.s 			page 40


     /tmp/ccr604J0.s:597    .text:0000000000000260 .LBE65
     /tmp/ccr604J0.s:4484   .debug_loc:0000000000000310 .LLST15
     /tmp/ccr604J0.s:4646   .debug_str:0000000000000095 .LASF165
     /tmp/ccr604J0.s:4491   .debug_loc:0000000000000333 .LLST16
     /tmp/ccr604J0.s:4498   .debug_loc:0000000000000356 .LLST17
     /tmp/ccr604J0.s:572    .text:0000000000000244 .LVL39
     /tmp/ccr604J0.s:600    .text:0000000000000260 .LBB66
     /tmp/ccr604J0.s:622    .text:0000000000000278 .LBE66
     /tmp/ccr604J0.s:4505   .debug_loc:0000000000000379 .LLST18
     /tmp/ccr604J0.s:4512   .debug_loc:000000000000039c .LLST19
     /tmp/ccr604J0.s:608    .text:000000000000026c .LVL44
     /tmp/ccr604J0.s:625    .text:0000000000000278 .LBB67
     /tmp/ccr604J0.s:645    .text:000000000000028c .LBE67
     /tmp/ccr604J0.s:4520   .debug_loc:00000000000003c0 .LLST20
     /tmp/ccr604J0.s:4527   .debug_loc:00000000000003e3 .LLST21
     /tmp/ccr604J0.s:633    .text:0000000000000284 .LVL47
     /tmp/ccr604J0.s:648    .text:000000000000028c .LBB68
     /tmp/ccr604J0.s:670    .text:00000000000002a4 .LBE68
     /tmp/ccr604J0.s:4534   .debug_loc:0000000000000406 .LLST22
     /tmp/ccr604J0.s:4541   .debug_loc:0000000000000429 .LLST23
     /tmp/ccr604J0.s:656    .text:0000000000000298 .LVL50
     /tmp/ccr604J0.s:673    .text:00000000000002a4 .LBB69
     /tmp/ccr604J0.s:728    .text:00000000000002f8 .LBE69
     /tmp/ccr604J0.s:4549   .debug_loc:000000000000044d .LLST24
     /tmp/ccr604J0.s:712    .text:00000000000002e4 .LBB70
     /tmp/ccr604J0.s:720    .text:00000000000002ec .LBE70
     /tmp/ccr604J0.s:4556   .debug_loc:0000000000000470 .LLST25
     /tmp/ccr604J0.s:4564   .debug_loc:0000000000000494 .LLST26
     /tmp/ccr604J0.s:703    .text:00000000000002cc .LVL53
     /tmp/ccr604J0.s:706    .text:00000000000002d8 .LVL54
     /tmp/ccr604J0.s:724    .text:00000000000002f4 .LVL57
     /tmp/ccr604J0.s:731    .text:00000000000002f8 .LBB72
     /tmp/ccr604J0.s:752    .text:000000000000031c .LBE72
     /tmp/ccr604J0.s:737    .text:000000000000030c .LVL59
     /tmp/ccr604J0.s:755    .text:000000000000031c .LBB73
     /tmp/ccr604J0.s:769    .text:000000000000033c .LBE73
     /tmp/ccr604J0.s:4571   .debug_loc:00000000000004b7 .LLST27
     /tmp/ccr604J0.s:766    .text:0000000000000338 .LVL61
     /tmp/ccr604J0.s:117    .text:0000000000000064 .LBB50
     /tmp/ccr604J0.s:132    .text:0000000000000070 .LBE50
     /tmp/ccr604J0.s:148    .text:000000000000008c .LBB52
     /tmp/ccr604J0.s:163    .text:0000000000000098 .LBE52
     /tmp/ccr604J0.s:169    .text:00000000000000a0 .LBB54
     /tmp/ccr604J0.s:184    .text:00000000000000ac .LBE54
     /tmp/ccr604J0.s:331    .text:0000000000000138 .LBB76
     /tmp/ccr604J0.s:342    .text:000000000000013c .LBE76
     /tmp/ccr604J0.s:4578   .debug_loc:00000000000004da .LLST28
     /tmp/ccr604J0.s:347    .text:0000000000000140 .LBB78
     /tmp/ccr604J0.s:358    .text:0000000000000144 .LBE78
     /tmp/ccr604J0.s:4585   .debug_loc:00000000000004fd .LLST29
     /tmp/ccr604J0.s:360    .text:0000000000000144 .LBB80
     /tmp/ccr604J0.s:372    .text:000000000000014c .LBE80
     /tmp/ccr604J0.s:4592   .debug_loc:0000000000000520 .LLST30
     /tmp/ccr604J0.s:281    .text:00000000000000f8 .LVL2
     /tmp/ccr604J0.s:287    .text:0000000000000108 .LVL3
     /tmp/ccr604J0.s:292    .text:0000000000000114 .LVL4
     /tmp/ccr604J0.s:528    .text:0000000000000214 .LVL33
GAS LISTING /tmp/ccr604J0.s 			page 41


     /tmp/ccr604J0.s:10     .text:0000000000000000 .LFB27
     /tmp/ccr604J0.s:56     .text:0000000000000028 .LFE27
     /tmp/ccr604J0.s:22     .text:000000000000000c .LBB48
     /tmp/ccr604J0.s:35     .text:0000000000000014 .LBE48
     /tmp/ccr604J0.s:4600   .debug_loc:0000000000000544 .LLST0
     /tmp/ccr604J0.s:4936   .debug_str:00000000000009c7 .LASF166
     /tmp/ccr604J0.s:4772   .debug_str:00000000000004ba .LASF167
     /tmp/ccr604J0.s:4948   .debug_str:0000000000000a09 .LASF168
     /tmp/ccr604J0.s:946    .text:00000000000003e8 .LVL73
     /tmp/ccr604J0.s:994    .text:0000000000000448 .LVL76
     /tmp/ccr604J0.s:999    .text:0000000000000454 .LVL77
     /tmp/ccr604J0.s:782    .text:000000000000033c .LVL62
     /tmp/ccr604J0.s:903    .text:00000000000003d8 .LVL69
     /tmp/ccr604J0.s:912    .text:00000000000003dc .LVL70
     /tmp/ccr604J0.s:919    .text:00000000000003e0 .LVL71
     /tmp/ccr604J0.s:928    .text:00000000000003e4 .LVL72
     /tmp/ccr604J0.s:815    .text:000000000000037c .LVL65
     /tmp/ccr604J0.s:824    .text:0000000000000388 .LVL66
     /tmp/ccr604J0.s:830    .text:000000000000038c .LVL67
     /tmp/ccr604J0.s:306    .text:000000000000011c .LVL5
     /tmp/ccr604J0.s:321    .text:0000000000000134 .LVL8
     /tmp/ccr604J0.s:395    .text:0000000000000164 .LVL14
     /tmp/ccr604J0.s:412    .text:0000000000000180 .LVL17
     /tmp/ccr604J0.s:422    .text:0000000000000184 .LVL18
     /tmp/ccr604J0.s:480    .text:00000000000001dc .LVL27
     /tmp/ccr604J0.s:427    .text:0000000000000188 .LVL19
     /tmp/ccr604J0.s:431    .text:000000000000018c .LVL20
     /tmp/ccr604J0.s:435    .text:0000000000000190 .LVL21
     /tmp/ccr604J0.s:456    .text:00000000000001b4 .LVL23
     /tmp/ccr604J0.s:466    .text:00000000000001bc .LVL24
     /tmp/ccr604J0.s:520    .text:000000000000020c .LVL32
     /tmp/ccr604J0.s:490    .text:00000000000001e8 .LVL28
     /tmp/ccr604J0.s:498    .text:00000000000001f0 .LVL29
     /tmp/ccr604J0.s:538    .text:000000000000021c .LVL34
     /tmp/ccr604J0.s:554    .text:0000000000000230 .LVL36
     /tmp/ccr604J0.s:563    .text:0000000000000234 .LVL37
     /tmp/ccr604J0.s:595    .text:0000000000000260 .LVL42
     /tmp/ccr604J0.s:567    .text:0000000000000238 .LVL38
     /tmp/ccr604J0.s:580    .text:0000000000000250 .LVL40
     /tmp/ccr604J0.s:590    .text:0000000000000258 .LVL41
     /tmp/ccr604J0.s:604    .text:0000000000000264 .LVL43
     /tmp/ccr604J0.s:620    .text:0000000000000278 .LVL45
     /tmp/ccr604J0.s:629    .text:000000000000027c .LVL46
     /tmp/ccr604J0.s:643    .text:000000000000028c .LVL48
     /tmp/ccr604J0.s:652    .text:0000000000000290 .LVL49
     /tmp/ccr604J0.s:668    .text:00000000000002a4 .LVL51
     /tmp/ccr604J0.s:677    .text:00000000000002a8 .LVL52
     /tmp/ccr604J0.s:726    .text:00000000000002f8 .LVL58
     /tmp/ccr604J0.s:711    .text:00000000000002e4 .LVL55
     /tmp/ccr604J0.s:718    .text:00000000000002ec .LVL56
     /tmp/ccr604J0.s:759    .text:0000000000000320 .LVL60
     /tmp/ccr604J0.s:330    .text:0000000000000138 .LVL9
     /tmp/ccr604J0.s:339    .text:000000000000013c .LVL10
     /tmp/ccr604J0.s:346    .text:0000000000000140 .LVL11
     /tmp/ccr604J0.s:355    .text:0000000000000144 .LVL12
     /tmp/ccr604J0.s:369    .text:000000000000014c .LVL13
     /tmp/ccr604J0.s:21     .text:000000000000000c .LVL0
GAS LISTING /tmp/ccr604J0.s 			page 42


     /tmp/ccr604J0.s:32     .text:0000000000000014 .LVL1
     /tmp/ccr604J0.s:1018   .debug_info:0000000000000000 .Ldebug_info0

UNDEFINED SYMBOLS
_ZN5RiscV3outE
_ZN11KruzniBafer4putcEc
_ZN11KruzniBafer8IsprazniEv
_ZN16AlokatorMemorije15dohvatiInstancuEv
_ZN16AlokatorMemorije9mem_allocEm
_ZN16AlokatorMemorije8mem_freeEPv
_ZN3TCB15NapraviInstancuEPFvPvES0_Pm
_ZN9Scheduler15dohvatiInstancuEv
_ZN9Scheduler5StaviEP3TCB
_ZN3TCB7runningE
_ZN3TCB8OslobodiEv
_ZN3TCB8dispatchEv
_ZN3TCB4joinEPS_
_ZN7Semafor13OtvoriSemaforEj
_ZN7Semafor14ZatvoriSemaforEPS_
_ZN7Semafor4WaitEv
_ZN7Semafor6SignalEv
_ZN3STL15DohvatiInstancuEv
_ZN3STL5StaviEm
_ZN5RiscV2inE
_ZN11KruzniBafer4getcEv
_ZN3TCB18brojacDodeljivanjaE
_ZN3STL15SmanjiIOslobodiEv
plic_claim
CONSOLE_STATUS
plic_complete
CONSOLE_RX_DATA
