GAS LISTING /tmp/cc1pf9sB.s 			page 1


   1              		.file	"Scheduler.cpp"
   2              		.option pic
   3              		.option norelax
   4              		.text
   5              	.Ltext0:
   6              		.align	2
   7              		.globl	_ZN9Scheduler18besposlenaFunkcijaEPv
   9              	_ZN9Scheduler18besposlenaFunkcijaEPv:
  10              	.LFB19:
  11              		.file 1 "src/Scheduler.cpp"
   1:src/Scheduler.cpp **** #include "../h/Scheduler.hpp"
   2:src/Scheduler.cpp **** 
   3:src/Scheduler.cpp **** Scheduler* Scheduler::scheduler = nullptr;
   4:src/Scheduler.cpp **** TCB* Scheduler::bezposlenaNit = nullptr;
   5:src/Scheduler.cpp **** 
   6:src/Scheduler.cpp **** void Scheduler::besposlenaFunkcija(void *) {
  12              		.loc 1 6 44
  13              		.cfi_startproc
  14 0000 130101FF 		addi	sp,sp,-16
  15              		.cfi_def_cfa_offset 16
  16 0004 23348100 		sd	s0,8(sp)
  17              		.cfi_offset 8, -8
  18 0008 13040101 		addi	s0,sp,16
  19              		.cfi_def_cfa 8, 0
  20              	.L2:
   7:src/Scheduler.cpp **** //    changeUser();
   8:src/Scheduler.cpp ****         while(scheduler->glava == nullptr);
  21              		.loc 1 8 9
  22              		.loc 1 8 32
  23              		.loc 1 8 26 is_stmt 0
  24 000c 97070000 		ld	a5,.LANCHOR0
  24      83B70700 
  25 0014 83B70700 		ld	a5,0(a5)
  26              		.loc 1 8 32
  27 0018 E38A07FE 		beqz	a5,.L2
   9:src/Scheduler.cpp **** //        while(scheduler->glava)thread_dispatch();
  10:src/Scheduler.cpp **** }
  28              		.loc 1 10 1
  29 001c 03348100 		ld	s0,8(sp)
  30              		.cfi_restore 8
  31              		.cfi_def_cfa 2, 16
  32 0020 13010101 		addi	sp,sp,16
  33              		.cfi_def_cfa_offset 0
  34 0024 67800000 		jr	ra
  35              		.cfi_endproc
  36              	.LFE19:
  38              		.align	2
  39              		.globl	_ZN9Scheduler15dohvatiInstancuEv
  41              	_ZN9Scheduler15dohvatiInstancuEv:
  42              	.LFB20:
  11:src/Scheduler.cpp **** 
  12:src/Scheduler.cpp **** Scheduler *Scheduler::dohvatiInstancu() {
  43              		.loc 1 12 41 is_stmt 1
  44              		.cfi_startproc
  13:src/Scheduler.cpp ****     if(scheduler == nullptr){
  45              		.loc 1 13 5
  46              		.loc 1 13 18 is_stmt 0
GAS LISTING /tmp/cc1pf9sB.s 			page 2


  47 0028 97070000 		ld	a5,.LANCHOR0
  47      83B70700 
  48              		.loc 1 13 5
  49 0030 63880700 		beqz	a5,.L10
  14:src/Scheduler.cpp ****         scheduler = (Scheduler*)AlokatorMemorije::dohvatiInstancu()->mem_alloc(sizeof(Scheduler));
  15:src/Scheduler.cpp ****         scheduler->memorija = AlokatorMemorije::dohvatiInstancu();
  16:src/Scheduler.cpp ****         scheduler->glava = scheduler->rep = nullptr;
  17:src/Scheduler.cpp ****     }
  18:src/Scheduler.cpp ****     return scheduler;
  50              		.loc 1 18 5 is_stmt 1
  19:src/Scheduler.cpp **** }
  51              		.loc 1 19 1 is_stmt 0
  52 0034 17050000 		ld	a0,.LANCHOR0
  52      03350500 
  53 003c 67800000 		ret
  54              	.L10:
  12:src/Scheduler.cpp ****     if(scheduler == nullptr){
  55              		.loc 1 12 41
  56 0040 130101FE 		addi	sp,sp,-32
  57              		.cfi_def_cfa_offset 32
  58 0044 233C1100 		sd	ra,24(sp)
  59 0048 23388100 		sd	s0,16(sp)
  60 004c 23349100 		sd	s1,8(sp)
  61 0050 23302101 		sd	s2,0(sp)
  62              		.cfi_offset 1, -8
  63              		.cfi_offset 8, -16
  64              		.cfi_offset 9, -24
  65              		.cfi_offset 18, -32
  66 0054 13040102 		addi	s0,sp,32
  67              		.cfi_def_cfa 8, 0
  14:src/Scheduler.cpp ****         scheduler = (Scheduler*)AlokatorMemorije::dohvatiInstancu()->mem_alloc(sizeof(Scheduler));
  68              		.loc 1 14 9 is_stmt 1
  14:src/Scheduler.cpp ****         scheduler = (Scheduler*)AlokatorMemorije::dohvatiInstancu()->mem_alloc(sizeof(Scheduler));
  69              		.loc 1 14 79 is_stmt 0
  70 0058 97000000 		call	_ZN16AlokatorMemorije15dohvatiInstancuEv@plt
  70      E7800000 
  71              	.LVL0:
  72 0060 93058001 		li	a1,24
  73 0064 97000000 		call	_ZN16AlokatorMemorije9mem_allocEm@plt
  73      E7800000 
  74              	.LVL1:
  75 006c 93040500 		mv	s1,a0
  14:src/Scheduler.cpp ****         scheduler = (Scheduler*)AlokatorMemorije::dohvatiInstancu()->mem_alloc(sizeof(Scheduler));
  76              		.loc 1 14 19
  77 0070 17090000 		lla	s2,.LANCHOR0
  77      13090900 
  78 0078 2330A900 		sd	a0,0(s2)
  15:src/Scheduler.cpp ****         scheduler->glava = scheduler->rep = nullptr;
  79              		.loc 1 15 9 is_stmt 1
  15:src/Scheduler.cpp ****         scheduler->glava = scheduler->rep = nullptr;
  80              		.loc 1 15 64 is_stmt 0
  81 007c 97000000 		call	_ZN16AlokatorMemorije15dohvatiInstancuEv@plt
  81      E7800000 
  82              	.LVL2:
  15:src/Scheduler.cpp ****         scheduler->glava = scheduler->rep = nullptr;
  83              		.loc 1 15 29
  84 0084 23B8A400 		sd	a0,16(s1)
GAS LISTING /tmp/cc1pf9sB.s 			page 3


  16:src/Scheduler.cpp ****     }
  85              		.loc 1 16 9 is_stmt 1
  16:src/Scheduler.cpp ****     }
  86              		.loc 1 16 39 is_stmt 0
  87 0088 83370900 		ld	a5,0(s2)
  16:src/Scheduler.cpp ****     }
  88              		.loc 1 16 43
  89 008c 23B40700 		sd	zero,8(a5)
  16:src/Scheduler.cpp ****     }
  90              		.loc 1 16 26
  91 0090 23B00700 		sd	zero,0(a5)
  18:src/Scheduler.cpp **** }
  92              		.loc 1 18 5 is_stmt 1
  93              		.loc 1 19 1 is_stmt 0
  94 0094 17050000 		ld	a0,.LANCHOR0
  94      03350500 
  95 009c 83308101 		ld	ra,24(sp)
  96              		.cfi_restore 1
  97 00a0 03340101 		ld	s0,16(sp)
  98              		.cfi_restore 8
  99              		.cfi_def_cfa 2, 32
 100 00a4 83348100 		ld	s1,8(sp)
 101              		.cfi_restore 9
 102 00a8 03390100 		ld	s2,0(sp)
 103              		.cfi_restore 18
 104 00ac 13010102 		addi	sp,sp,32
 105              		.cfi_def_cfa_offset 0
 106 00b0 67800000 		jr	ra
 107              		.cfi_endproc
 108              	.LFE20:
 110              		.align	2
 111              		.globl	_ZN9Scheduler5StaviEP3TCB
 113              	_ZN9Scheduler5StaviEP3TCB:
 114              	.LFB21:
  20:src/Scheduler.cpp **** 
  21:src/Scheduler.cpp **** void Scheduler::Stavi(TCB *tcb) {
 115              		.loc 1 21 33 is_stmt 1
 116              		.cfi_startproc
 117              	.LVL3:
 118 00b4 130101FE 		addi	sp,sp,-32
 119              		.cfi_def_cfa_offset 32
 120 00b8 233C1100 		sd	ra,24(sp)
 121 00bc 23388100 		sd	s0,16(sp)
 122 00c0 23349100 		sd	s1,8(sp)
 123 00c4 23302101 		sd	s2,0(sp)
 124              		.cfi_offset 1, -8
 125              		.cfi_offset 8, -16
 126              		.cfi_offset 9, -24
 127              		.cfi_offset 18, -32
 128 00c8 13040102 		addi	s0,sp,32
 129              		.cfi_def_cfa 8, 0
 130 00cc 93040500 		mv	s1,a0
 131 00d0 13890500 		mv	s2,a1
  22:src/Scheduler.cpp ****     Clan* nov = (Clan*)scheduler->memorija->mem_alloc(sizeof(Clan));
 132              		.loc 1 22 5
 133              		.loc 1 22 54 is_stmt 0
 134 00d4 93050001 		li	a1,16
GAS LISTING /tmp/cc1pf9sB.s 			page 4


 135              	.LVL4:
 136 00d8 97070000 		ld	a5,.LANCHOR0
 136      83B70700 
 137 00e0 03B50701 		ld	a0,16(a5)
 138              	.LVL5:
 139 00e4 97000000 		call	_ZN16AlokatorMemorije9mem_allocEm@plt
 139      E7800000 
 140              	.LVL6:
  23:src/Scheduler.cpp ****     nov->sl = nullptr;
 141              		.loc 1 23 5 is_stmt 1
 142              		.loc 1 23 13 is_stmt 0
 143 00ec 23300500 		sd	zero,0(a0)
  24:src/Scheduler.cpp ****     nov->tcb = tcb;
 144              		.loc 1 24 5 is_stmt 1
 145              		.loc 1 24 14 is_stmt 0
 146 00f0 23342501 		sd	s2,8(a0)
  25:src/Scheduler.cpp ****     if(rep == nullptr){
 147              		.loc 1 25 5 is_stmt 1
 148              		.loc 1 25 8 is_stmt 0
 149 00f4 83B78400 		ld	a5,8(s1)
 150              		.loc 1 25 5
 151 00f8 63860702 		beqz	a5,.L15
  26:src/Scheduler.cpp ****         rep = glava = nov;
  27:src/Scheduler.cpp ****         return;
  28:src/Scheduler.cpp ****     }
  29:src/Scheduler.cpp ****     rep->sl = nov;
 152              		.loc 1 29 5 is_stmt 1
 153              		.loc 1 29 13 is_stmt 0
 154 00fc 23B0A700 		sd	a0,0(a5)
  30:src/Scheduler.cpp ****     rep = rep->sl;
 155              		.loc 1 30 5 is_stmt 1
 156              		.loc 1 30 11 is_stmt 0
 157 0100 83B78400 		ld	a5,8(s1)
 158              		.loc 1 30 16
 159 0104 83B70700 		ld	a5,0(a5)
 160              		.loc 1 30 9
 161 0108 23B4F400 		sd	a5,8(s1)
 162              	.L11:
  31:src/Scheduler.cpp **** }
 163              		.loc 1 31 1
 164 010c 83308101 		ld	ra,24(sp)
 165              		.cfi_remember_state
 166              		.cfi_restore 1
 167 0110 03340101 		ld	s0,16(sp)
 168              		.cfi_restore 8
 169              		.cfi_def_cfa 2, 32
 170 0114 83348100 		ld	s1,8(sp)
 171              		.cfi_restore 9
 172              	.LVL7:
 173 0118 03390100 		ld	s2,0(sp)
 174              		.cfi_restore 18
 175              	.LVL8:
 176 011c 13010102 		addi	sp,sp,32
 177              		.cfi_def_cfa_offset 0
 178 0120 67800000 		jr	ra
 179              	.LVL9:
 180              	.L15:
GAS LISTING /tmp/cc1pf9sB.s 			page 5


 181              		.cfi_restore_state
  26:src/Scheduler.cpp ****         rep = glava = nov;
 182              		.loc 1 26 9 is_stmt 1
  26:src/Scheduler.cpp ****         rep = glava = nov;
 183              		.loc 1 26 21 is_stmt 0
 184 0124 23B0A400 		sd	a0,0(s1)
  26:src/Scheduler.cpp ****         rep = glava = nov;
 185              		.loc 1 26 13
 186 0128 23B4A400 		sd	a0,8(s1)
  27:src/Scheduler.cpp ****     }
 187              		.loc 1 27 9 is_stmt 1
 188 012c 6FF01FFE 		j	.L11
 189              		.cfi_endproc
 190              	.LFE21:
 192              		.align	2
 193              		.globl	_ZN9Scheduler4UzmiEv
 195              	_ZN9Scheduler4UzmiEv:
 196              	.LFB22:
  32:src/Scheduler.cpp **** 
  33:src/Scheduler.cpp **** TCB *Scheduler::Uzmi() {
 197              		.loc 1 33 24
 198              		.cfi_startproc
 199              		.cfi_personality 0x9b,DW.ref.__gxx_personality_v0
 200              		.cfi_lsda 0x1b,.LLSDA22
 201              	.LVL10:
 202 0130 130101FE 		addi	sp,sp,-32
 203              		.cfi_def_cfa_offset 32
 204 0134 233C1100 		sd	ra,24(sp)
 205 0138 23388100 		sd	s0,16(sp)
 206 013c 23349100 		sd	s1,8(sp)
 207              		.cfi_offset 1, -8
 208              		.cfi_offset 8, -16
 209              		.cfi_offset 9, -24
 210 0140 13040102 		addi	s0,sp,32
 211              		.cfi_def_cfa 8, 0
  34:src/Scheduler.cpp ****     if(glava == nullptr){
 212              		.loc 1 34 5
 213              		.loc 1 34 8 is_stmt 0
 214 0144 83350500 		ld	a1,0(a0)
 215              		.loc 1 34 5
 216 0148 63800504 		beqz	a1,.L22
  35:src/Scheduler.cpp ****         if(bezposlenaNit)delete bezposlenaNit;
  36:src/Scheduler.cpp ****         thread_create_cpp(&bezposlenaNit, besposlenaFunkcija, nullptr);
  37:src/Scheduler.cpp ****         return bezposlenaNit;
  38:src/Scheduler.cpp ****     }
  39:src/Scheduler.cpp ****     TCB* vrati = glava->tcb;
 217              		.loc 1 39 5 is_stmt 1
 218              		.loc 1 39 10 is_stmt 0
 219 014c 83B48500 		ld	s1,8(a1)
 220              	.LVL11:
  40:src/Scheduler.cpp ****     Clan* oslobodi = glava;
 221              		.loc 1 40 5 is_stmt 1
  41:src/Scheduler.cpp ****     glava = glava->sl;
 222              		.loc 1 41 5
 223              		.loc 1 41 20 is_stmt 0
 224 0150 83B70500 		ld	a5,0(a1)
 225              		.loc 1 41 11
GAS LISTING /tmp/cc1pf9sB.s 			page 6


 226 0154 2330F500 		sd	a5,0(a0)
  42:src/Scheduler.cpp ****     if(glava == nullptr)rep = glava;
 227              		.loc 1 42 5 is_stmt 1
 228 0158 63820708 		beqz	a5,.L23
 229              	.L20:
  43:src/Scheduler.cpp ****     scheduler->memorija->mem_free(oslobodi);
 230              		.loc 1 43 5
 231              		.loc 1 43 34 is_stmt 0
 232 015c 97070000 		ld	a5,.LANCHOR0
 232      83B70700 
 233 0164 03B50701 		ld	a0,16(a5)
 234              	.LVL12:
 235              	.LEHB0:
 236 0168 97000000 		call	_ZN16AlokatorMemorije8mem_freeEPv@plt
 236      E7800000 
 237              	.LVL13:
 238              	.LEHE0:
  44:src/Scheduler.cpp ****     return vrati;
 239              		.loc 1 44 5 is_stmt 1
 240              	.L16:
  45:src/Scheduler.cpp **** }
 241              		.loc 1 45 1 is_stmt 0
 242 0170 13850400 		mv	a0,s1
 243 0174 83308101 		ld	ra,24(sp)
 244              		.cfi_remember_state
 245              		.cfi_restore 1
 246 0178 03340101 		ld	s0,16(sp)
 247              		.cfi_restore 8
 248              		.cfi_def_cfa 2, 32
 249 017c 83348100 		ld	s1,8(sp)
 250              		.cfi_restore 9
 251 0180 13010102 		addi	sp,sp,32
 252              		.cfi_def_cfa_offset 0
 253 0184 67800000 		jr	ra
 254              	.LVL14:
 255              	.L22:
 256              		.cfi_restore_state
  35:src/Scheduler.cpp ****         thread_create_cpp(&bezposlenaNit, besposlenaFunkcija, nullptr);
 257              		.loc 1 35 9 is_stmt 1
  35:src/Scheduler.cpp ****         thread_create_cpp(&bezposlenaNit, besposlenaFunkcija, nullptr);
 258              		.loc 1 35 25 is_stmt 0
 259 0188 97040000 		ld	s1,.LANCHOR0+8
 259      83B40400 
  35:src/Scheduler.cpp ****         thread_create_cpp(&bezposlenaNit, besposlenaFunkcija, nullptr);
 260              		.loc 1 35 9
 261 0190 63820402 		beqz	s1,.L18
  35:src/Scheduler.cpp ****         thread_create_cpp(&bezposlenaNit, besposlenaFunkcija, nullptr);
 262              		.loc 1 35 26 is_stmt 1
 263              	.LVL15:
 264              	.LBB5:
 265              	.LBB6:
 266              		.file 2 "src/../h/TCB.hpp"
   1:src/../h/TCB.hpp **** #ifndef Tcb_hpp
   2:src/../h/TCB.hpp **** #define Tcb_hpp
   3:src/../h/TCB.hpp **** 
   4:src/../h/TCB.hpp **** #include "../lib/hw.h"
   5:src/../h/TCB.hpp **** #include "Scheduler.hpp"
GAS LISTING /tmp/cc1pf9sB.s 			page 7


   6:src/../h/TCB.hpp **** #include "syscall_cpp.hpp"
   7:src/../h/TCB.hpp **** #include "AlokatorMemorije.h"
   8:src/../h/TCB.hpp **** #include "syscall_c.h"
   9:src/../h/TCB.hpp **** 
  10:src/../h/TCB.hpp **** class TCB{
  11:src/../h/TCB.hpp **** public:
  12:src/../h/TCB.hpp ****     using Telo = void(*)(void*);
  13:src/../h/TCB.hpp **** 
  14:src/../h/TCB.hpp **** private:
  15:src/../h/TCB.hpp ****     struct Elem{
  16:src/../h/TCB.hpp ****         thread_t nit;
  17:src/../h/TCB.hpp ****         Elem* sl;
  18:src/../h/TCB.hpp ****     };
  19:src/../h/TCB.hpp ****     struct Kontekst{
  20:src/../h/TCB.hpp ****         uint64 ra;
  21:src/../h/TCB.hpp ****         uint64 sp;
  22:src/../h/TCB.hpp ****     };
  23:src/../h/TCB.hpp ****     Telo telo;
  24:src/../h/TCB.hpp ****     uint64* stek;
  25:src/../h/TCB.hpp ****     void* argument;
  26:src/../h/TCB.hpp ****     Kontekst kontekst;
  27:src/../h/TCB.hpp ****     uint64 dodeljenoVreme;
  28:src/../h/TCB.hpp ****     bool gotov;
  29:src/../h/TCB.hpp ****     bool blokiran;
  30:src/../h/TCB.hpp ****     bool uspavan;
  31:src/../h/TCB.hpp ****     Elem* glava, *rep;
  32:src/../h/TCB.hpp **** 
  33:src/../h/TCB.hpp ****     friend class RiscV;
  34:src/../h/TCB.hpp ****     friend class Semafor;
  35:src/../h/TCB.hpp ****     friend class STL;
  36:src/../h/TCB.hpp ****     friend class Scheduler;
  37:src/../h/TCB.hpp **** 
  38:src/../h/TCB.hpp ****     static void threadWrapper();
  39:src/../h/TCB.hpp **** 
  40:src/../h/TCB.hpp ****     static void dispatch();
  41:src/../h/TCB.hpp **** 
  42:src/../h/TCB.hpp ****     static void promenaKonteksta(Kontekst* stariKontekst, Kontekst* noviKontekst);
  43:src/../h/TCB.hpp **** 
  44:src/../h/TCB.hpp ****     static uint64 brojacDodeljivanja;
  45:src/../h/TCB.hpp **** 
  46:src/../h/TCB.hpp **** public:
  47:src/../h/TCB.hpp ****     bool isGotov() const {return gotov;};
  48:src/../h/TCB.hpp **** 
  49:src/../h/TCB.hpp ****     void setGotov(bool gotov) {this->gotov = gotov;};
  50:src/../h/TCB.hpp **** 
  51:src/../h/TCB.hpp ****     static TCB* NapraviInstancu(Telo telo, void* arg, uint64* stek);
  52:src/../h/TCB.hpp **** 
  53:src/../h/TCB.hpp ****     bool isBlokiran() const {return blokiran;};
  54:src/../h/TCB.hpp **** 
  55:src/../h/TCB.hpp ****     void setBlokiran(bool blokiran) {this->blokiran = blokiran;};
  56:src/../h/TCB.hpp **** 
  57:src/../h/TCB.hpp ****     bool isUspavan() const {return uspavan;};
  58:src/../h/TCB.hpp **** 
  59:src/../h/TCB.hpp ****     void setUspavan(bool uspavan) {this->uspavan = uspavan;};
  60:src/../h/TCB.hpp **** 
  61:src/../h/TCB.hpp ****     uint64 getDodeljenoVreme() const {return dodeljenoVreme;}
  62:src/../h/TCB.hpp **** 
GAS LISTING /tmp/cc1pf9sB.s 			page 8


  63:src/../h/TCB.hpp ****     static void join(thread_t handle);
  64:src/../h/TCB.hpp **** 
  65:src/../h/TCB.hpp ****     static TCB *running;
  66:src/../h/TCB.hpp **** 
  67:src/../h/TCB.hpp ****     ~TCB() { AlokatorMemorije::dohvatiInstancu()->mem_free(stek);}
 267              		.loc 2 67 14
 268              		.loc 2 67 59 is_stmt 0
 269 0194 97000000 		call	_ZN16AlokatorMemorije15dohvatiInstancuEv@plt
 269      E7800000 
 270              	.LVL16:
 271 019c 83B58400 		ld	a1,8(s1)
 272 01a0 97000000 		call	_ZN16AlokatorMemorije8mem_freeEPv@plt
 272      E7800000 
 273              	.LVL17:
 274              	.LBE6:
 275              	.LBE5:
  35:src/Scheduler.cpp ****         thread_create_cpp(&bezposlenaNit, besposlenaFunkcija, nullptr);
 276              		.loc 1 35 33
 277 01a8 13850400 		mv	a0,s1
 278 01ac 97000000 		call	_ZdlPv@plt
 278      E7800000 
 279              	.LVL18:
 280              	.L18:
  36:src/Scheduler.cpp ****         return bezposlenaNit;
 281              		.loc 1 36 9 is_stmt 1
  36:src/Scheduler.cpp ****         return bezposlenaNit;
 282              		.loc 1 36 26 is_stmt 0
 283 01b4 13060000 		li	a2,0
 284 01b8 97050000 		lla	a1,_ZN9Scheduler18besposlenaFunkcijaEPv
 284      93850500 
 285 01c0 17050000 		lla	a0,.LANCHOR0+8
 285      13050500 
 286              	.LEHB1:
 287 01c8 97000000 		call	_Z17thread_create_cppPP3TCBPFvPvES2_@plt
 287      E7800000 
 288              	.LVL19:
 289              	.LEHE1:
  37:src/Scheduler.cpp ****     }
 290              		.loc 1 37 9 is_stmt 1
  37:src/Scheduler.cpp ****     }
 291              		.loc 1 37 16 is_stmt 0
 292 01d0 97040000 		ld	s1,.LANCHOR0+8
 292      83B40400 
 293 01d8 6FF09FF9 		j	.L16
 294              	.LVL20:
 295              	.L23:
  42:src/Scheduler.cpp ****     scheduler->memorija->mem_free(oslobodi);
 296              		.loc 1 42 25 is_stmt 1 discriminator 1
  42:src/Scheduler.cpp ****     scheduler->memorija->mem_free(oslobodi);
 297              		.loc 1 42 29 is_stmt 0 discriminator 1
 298 01dc 2334F500 		sd	a5,8(a0)
 299 01e0 6FF0DFF7 		j	.L20
 300              		.cfi_endproc
 301              	.LFE22:
 302              		.globl	__gxx_personality_v0
 303              		.section	.gcc_except_table,"a",@progbits
 304              	.LLSDA22:
GAS LISTING /tmp/cc1pf9sB.s 			page 9


 305 0000 FF       		.byte	0xff
 306 0001 FF       		.byte	0xff
 307 0002 03       		.byte	0x3
 308 0003 1A       		.byte	0x1a
 309 0004 00000000 		.4byte	.LEHB0-.LFB22
 310 0008 00000000 		.4byte	.LEHE0-.LEHB0
 311 000c 00000000 		.4byte	0
 312 0010 00       		.byte	0
 313 0011 00000000 		.4byte	.LEHB1-.LFB22
 314 0015 00000000 		.4byte	.LEHE1-.LEHB1
 315 0019 00000000 		.4byte	0
 316 001d 00       		.byte	0
 317              		.text
 319              		.globl	_ZN9Scheduler13bezposlenaNitE
 320              		.globl	_ZN9Scheduler9schedulerE
 321              		.bss
 322              		.align	3
 323              		.set	.LANCHOR0,. + 0
 326              	_ZN9Scheduler9schedulerE:
 327 0000 00000000 		.zero	8
 327      00000000 
 330              	_ZN9Scheduler13bezposlenaNitE:
 331 0008 00000000 		.zero	8
 331      00000000 
 332              		.text
 333              	.Letext0:
 334              		.file 3 "src/../h/../lib/hw.h"
 335              		.file 4 "src/../h/syscall_c.h"
 336              		.file 5 "src/../h/AlokatorMemorije.h"
 337              		.file 6 "src/../h/Scheduler.hpp"
 338              		.file 7 "src/../h/syscall_cpp.hpp"
 2522              		.align	3
 2525              	DW.ref.__gxx_personality_v0:
 2526 0000 00000000 		.dword	__gxx_personality_v0
 2526      00000000 
 2527              		.ident	"GCC: (Ubuntu 9.4.0-1ubuntu1~20.04) 9.4.0"
 2528              		.section	.note.GNU-stack,"",@progbits
GAS LISTING /tmp/cc1pf9sB.s 			page 10

