GAS LISTING /tmp/ccgQRFYB.s 			page 1


   1              		.file	"Semafor.cpp"
   2              		.option pic
   3              		.option norelax
   4              		.text
   5              	.Ltext0:
   6              		.align	2
   7              		.globl	_ZN7Semafor13OtvoriSemaforEj
   9              	_ZN7Semafor13OtvoriSemaforEj:
  10              	.LFB19:
  11              		.file 1 "src/Semafor.cpp"
   1:src/Semafor.cpp **** #include "../h/Semafor.hpp"
   2:src/Semafor.cpp **** 
   3:src/Semafor.cpp **** Semafor *Semafor::OtvoriSemafor(unsigned int init) {
  12              		.loc 1 3 52
  13              		.cfi_startproc
  14              	.LVL0:
  15 0000 130101FE 		addi	sp,sp,-32
  16              		.cfi_def_cfa_offset 32
  17 0004 233C1100 		sd	ra,24(sp)
  18 0008 23388100 		sd	s0,16(sp)
  19 000c 23349100 		sd	s1,8(sp)
  20              		.cfi_offset 1, -8
  21              		.cfi_offset 8, -16
  22              		.cfi_offset 9, -24
  23 0010 13040102 		addi	s0,sp,32
  24              		.cfi_def_cfa 8, 0
  25 0014 93040500 		mv	s1,a0
   4:src/Semafor.cpp ****     Semafor* vrati = (Semafor*)AlokatorMemorije::dohvatiInstancu()->mem_alloc(sizeof(Semafor));
  26              		.loc 1 4 5
  27              		.loc 1 4 78 is_stmt 0
  28 0018 97000000 		call	_ZN16AlokatorMemorije15dohvatiInstancuEv@plt
  28      E7800000 
  29              	.LVL1:
  30 0020 93058001 		li	a1,24
  31 0024 97000000 		call	_ZN16AlokatorMemorije9mem_allocEm@plt
  31      E7800000 
  32              	.LVL2:
   5:src/Semafor.cpp ****     vrati->vrednost = init;
  33              		.loc 1 5 5 is_stmt 1
  34              		.loc 1 5 21 is_stmt 0
  35 002c 23209500 		sw	s1,0(a0)
   6:src/Semafor.cpp ****     vrati->glava = vrati->rep = nullptr;
  36              		.loc 1 6 5 is_stmt 1
  37              		.loc 1 6 31 is_stmt 0
  38 0030 23380500 		sd	zero,16(a0)
  39              		.loc 1 6 18
  40 0034 23340500 		sd	zero,8(a0)
   7:src/Semafor.cpp ****     return vrati;
  41              		.loc 1 7 5 is_stmt 1
   8:src/Semafor.cpp **** }
  42              		.loc 1 8 1 is_stmt 0
  43 0038 83308101 		ld	ra,24(sp)
  44              		.cfi_restore 1
  45 003c 03340101 		ld	s0,16(sp)
  46              		.cfi_restore 8
  47              		.cfi_def_cfa 2, 32
  48 0040 83348100 		ld	s1,8(sp)
GAS LISTING /tmp/ccgQRFYB.s 			page 2


  49              		.cfi_restore 9
  50 0044 13010102 		addi	sp,sp,32
  51              		.cfi_def_cfa_offset 0
  52 0048 67800000 		jr	ra
  53              		.cfi_endproc
  54              	.LFE19:
  56              		.align	2
  57              		.globl	_ZN7Semafor4WaitEv
  59              	_ZN7Semafor4WaitEv:
  60              	.LFB20:
   9:src/Semafor.cpp **** 
  10:src/Semafor.cpp **** int Semafor::Wait() {
  61              		.loc 1 10 21 is_stmt 1
  62              		.cfi_startproc
  63              	.LVL3:
  11:src/Semafor.cpp ****     vrednost--;
  64              		.loc 1 11 5
  65 004c 83270500 		lw	a5,0(a0)
  66              		.loc 1 11 13 is_stmt 0
  67 0050 9B87F7FF 		addiw	a5,a5,-1
  68 0054 2320F500 		sw	a5,0(a0)
  12:src/Semafor.cpp ****     if(vrednost < 0){
  69              		.loc 1 12 5 is_stmt 1
  70              	.LBB12:
  71 0058 13970702 		slli	a4,a5,32
  72 005c 63460700 		bltz	a4,.L13
  73              	.LBE12:
  13:src/Semafor.cpp ****         if(TCB::running->isGotov())return -1;
  14:src/Semafor.cpp ****         Blokiran* nov = (Blokiran*)AlokatorMemorije::dohvatiInstancu()->mem_alloc(sizeof(Blokiran))
  15:src/Semafor.cpp ****         nov->sl = nullptr;
  16:src/Semafor.cpp ****         nov->nit = TCB::running;
  17:src/Semafor.cpp ****         if(rep == nullptr)rep = glava = nov;
  18:src/Semafor.cpp ****         else {
  19:src/Semafor.cpp ****             rep->sl = nov;
  20:src/Semafor.cpp ****             rep = rep->sl;
  21:src/Semafor.cpp ****         }
  22:src/Semafor.cpp ****         TCB::running->setBlokiran(true);
  23:src/Semafor.cpp ****         TCB::dispatch();
  24:src/Semafor.cpp ****     }
  25:src/Semafor.cpp ****     return 0;
  74              		.loc 1 25 12 is_stmt 0
  75 0060 13050000 		li	a0,0
  76              	.LVL4:
  26:src/Semafor.cpp **** }
  77              		.loc 1 26 1
  78 0064 67800000 		ret
  79              	.LVL5:
  80              	.L13:
  10:src/Semafor.cpp ****     vrednost--;
  81              		.loc 1 10 21
  82 0068 130101FE 		addi	sp,sp,-32
  83              		.cfi_def_cfa_offset 32
  84 006c 233C1100 		sd	ra,24(sp)
  85 0070 23388100 		sd	s0,16(sp)
  86 0074 23349100 		sd	s1,8(sp)
  87              		.cfi_offset 1, -8
  88              		.cfi_offset 8, -16
GAS LISTING /tmp/ccgQRFYB.s 			page 3


  89              		.cfi_offset 9, -24
  90 0078 13040102 		addi	s0,sp,32
  91              		.cfi_def_cfa 8, 0
  92 007c 93040500 		mv	s1,a0
  93              	.LBB19:
  94              	.LBB13:
  13:src/Semafor.cpp ****         if(TCB::running->isGotov())return -1;
  95              		.loc 1 13 9 is_stmt 1
  13:src/Semafor.cpp ****         if(TCB::running->isGotov())return -1;
  96              		.loc 1 13 33 is_stmt 0
  97 0080 97070000 		la	a5,_ZN3TCB7runningE
  97      83B70700 
  98 0088 83B70700 		ld	a5,0(a5)
  99              	.LVL6:
 100              	.LBB14:
 101              	.LBB15:
 102              		.file 2 "src/../h/TCB.hpp"
   1:src/../h/TCB.hpp **** #ifndef Tcb_hpp
   2:src/../h/TCB.hpp **** #define Tcb_hpp
   3:src/../h/TCB.hpp **** 
   4:src/../h/TCB.hpp **** #include "../lib/hw.h"
   5:src/../h/TCB.hpp **** #include "Scheduler.hpp"
   6:src/../h/TCB.hpp **** #include "syscall_cpp.hpp"
   7:src/../h/TCB.hpp **** #include "AlokatorMemorije.h"
   8:src/../h/TCB.hpp **** #include "syscall_c.h"
   9:src/../h/TCB.hpp **** 
  10:src/../h/TCB.hpp **** class TCB{
  11:src/../h/TCB.hpp **** public:
  12:src/../h/TCB.hpp ****     using Telo = void(*)(void*);
  13:src/../h/TCB.hpp **** 
  14:src/../h/TCB.hpp **** private:
  15:src/../h/TCB.hpp ****     struct Elem{
  16:src/../h/TCB.hpp ****         thread_t nit;
  17:src/../h/TCB.hpp ****         Elem* sl;
  18:src/../h/TCB.hpp ****     };
  19:src/../h/TCB.hpp ****     struct Kontekst{
  20:src/../h/TCB.hpp ****         uint64 ra;
  21:src/../h/TCB.hpp ****         uint64 sp;
  22:src/../h/TCB.hpp ****     };
  23:src/../h/TCB.hpp ****     Telo telo;
  24:src/../h/TCB.hpp ****     uint64* stek;
  25:src/../h/TCB.hpp ****     void* argument;
  26:src/../h/TCB.hpp ****     Kontekst kontekst;
  27:src/../h/TCB.hpp ****     uint64 dodeljenoVreme;
  28:src/../h/TCB.hpp ****     bool gotov;
  29:src/../h/TCB.hpp ****     bool blokiran;
  30:src/../h/TCB.hpp ****     bool uspavan;
  31:src/../h/TCB.hpp ****     Elem* glava, *rep;
  32:src/../h/TCB.hpp **** 
  33:src/../h/TCB.hpp ****     friend class RiscV;
  34:src/../h/TCB.hpp ****     friend class Semafor;
  35:src/../h/TCB.hpp ****     friend class STL;
  36:src/../h/TCB.hpp ****     friend class Scheduler;
  37:src/../h/TCB.hpp **** 
  38:src/../h/TCB.hpp ****     static void threadWrapper();
  39:src/../h/TCB.hpp **** 
  40:src/../h/TCB.hpp ****     static void dispatch();
GAS LISTING /tmp/ccgQRFYB.s 			page 4


  41:src/../h/TCB.hpp **** 
  42:src/../h/TCB.hpp ****     static void promenaKonteksta(Kontekst* stariKontekst, Kontekst* noviKontekst);
  43:src/../h/TCB.hpp **** 
  44:src/../h/TCB.hpp ****     static uint64 brojacDodeljivanja;
  45:src/../h/TCB.hpp **** 
  46:src/../h/TCB.hpp **** public:
  47:src/../h/TCB.hpp ****     bool isGotov() const {return gotov;};
 103              		.loc 2 47 27 is_stmt 1
 104              		.loc 2 47 34 is_stmt 0
 105 008c 83C70703 		lbu	a5,48(a5)
 106              	.LVL7:
 107              	.LBE15:
 108              	.LBE14:
  13:src/Semafor.cpp ****         Blokiran* nov = (Blokiran*)AlokatorMemorije::dohvatiInstancu()->mem_alloc(sizeof(Blokiran))
 109              		.loc 1 13 9
 110 0090 63920708 		bnez	a5,.L8
 111              	.LVL8:
  14:src/Semafor.cpp ****         nov->sl = nullptr;
 112              		.loc 1 14 9 is_stmt 1
  14:src/Semafor.cpp ****         nov->sl = nullptr;
 113              		.loc 1 14 82 is_stmt 0
 114 0094 97000000 		call	_ZN16AlokatorMemorije15dohvatiInstancuEv@plt
 114      E7800000 
 115              	.LVL9:
 116 009c 93050001 		li	a1,16
 117 00a0 97000000 		call	_ZN16AlokatorMemorije9mem_allocEm@plt
 117      E7800000 
 118              	.LVL10:
  15:src/Semafor.cpp ****         nov->nit = TCB::running;
 119              		.loc 1 15 9 is_stmt 1
  15:src/Semafor.cpp ****         nov->nit = TCB::running;
 120              		.loc 1 15 17 is_stmt 0
 121 00a8 23300500 		sd	zero,0(a0)
  16:src/Semafor.cpp ****         if(rep == nullptr)rep = glava = nov;
 122              		.loc 1 16 9 is_stmt 1
  16:src/Semafor.cpp ****         if(rep == nullptr)rep = glava = nov;
 123              		.loc 1 16 18 is_stmt 0
 124 00ac 97070000 		la	a5,_ZN3TCB7runningE
 124      83B70700 
 125 00b4 83B70700 		ld	a5,0(a5)
 126 00b8 2334F500 		sd	a5,8(a0)
  17:src/Semafor.cpp ****         else {
 127              		.loc 1 17 9 is_stmt 1
  17:src/Semafor.cpp ****         else {
 128              		.loc 1 17 12 is_stmt 0
 129 00bc 83B70401 		ld	a5,16(s1)
  17:src/Semafor.cpp ****         else {
 130              		.loc 1 17 9
 131 00c0 63840704 		beqz	a5,.L14
  19:src/Semafor.cpp ****             rep = rep->sl;
 132              		.loc 1 19 13 is_stmt 1
  19:src/Semafor.cpp ****             rep = rep->sl;
 133              		.loc 1 19 21 is_stmt 0
 134 00c4 23B0A700 		sd	a0,0(a5)
  20:src/Semafor.cpp ****         }
 135              		.loc 1 20 13 is_stmt 1
  20:src/Semafor.cpp ****         }
GAS LISTING /tmp/ccgQRFYB.s 			page 5


 136              		.loc 1 20 19 is_stmt 0
 137 00c8 83B70401 		ld	a5,16(s1)
  20:src/Semafor.cpp ****         }
 138              		.loc 1 20 24
 139 00cc 83B70700 		ld	a5,0(a5)
  20:src/Semafor.cpp ****         }
 140              		.loc 1 20 17
 141 00d0 23B8F400 		sd	a5,16(s1)
 142              	.L6:
  22:src/Semafor.cpp ****         TCB::dispatch();
 143              		.loc 1 22 9 is_stmt 1
  22:src/Semafor.cpp ****         TCB::dispatch();
 144              		.loc 1 22 34 is_stmt 0
 145 00d4 97070000 		la	a5,_ZN3TCB7runningE
 145      83B70700 
 146 00dc 83B70700 		ld	a5,0(a5)
 147              	.LVL11:
 148              	.LBB16:
 149              	.LBB17:
  48:src/../h/TCB.hpp **** 
  49:src/../h/TCB.hpp ****     void setGotov(bool gotov) {this->gotov = gotov;};
  50:src/../h/TCB.hpp **** 
  51:src/../h/TCB.hpp ****     static TCB* NapraviInstancu(Telo telo, void* arg, uint64* stek);
  52:src/../h/TCB.hpp **** 
  53:src/../h/TCB.hpp ****     bool isBlokiran() const {return blokiran;};
  54:src/../h/TCB.hpp **** 
  55:src/../h/TCB.hpp ****     void setBlokiran(bool blokiran) {this->blokiran = blokiran;};
 150              		.loc 2 55 38 is_stmt 1
 151              		.loc 2 55 53 is_stmt 0
 152 00e0 13071000 		li	a4,1
 153 00e4 A388E702 		sb	a4,49(a5)
 154              	.LVL12:
 155              	.LBE17:
 156              	.LBE16:
  23:src/Semafor.cpp ****     }
 157              		.loc 1 23 9 is_stmt 1
  23:src/Semafor.cpp ****     }
 158              		.loc 1 23 22 is_stmt 0
 159 00e8 97000000 		call	_ZN3TCB8dispatchEv@plt
 159      E7800000 
 160              	.LVL13:
 161              	.LBE13:
 162              	.LBE19:
  25:src/Semafor.cpp **** }
 163              		.loc 1 25 12
 164 00f0 13050000 		li	a0,0
 165              	.L4:
 166              		.loc 1 26 1
 167 00f4 83308101 		ld	ra,24(sp)
 168              		.cfi_remember_state
 169              		.cfi_restore 1
 170 00f8 03340101 		ld	s0,16(sp)
 171              		.cfi_restore 8
 172              		.cfi_def_cfa 2, 32
 173 00fc 83348100 		ld	s1,8(sp)
 174              		.cfi_restore 9
 175              	.LVL14:
GAS LISTING /tmp/ccgQRFYB.s 			page 6


 176 0100 13010102 		addi	sp,sp,32
 177              		.cfi_def_cfa_offset 0
 178 0104 67800000 		jr	ra
 179              	.LVL15:
 180              	.L14:
 181              		.cfi_restore_state
 182              	.LBB20:
 183              	.LBB18:
  17:src/Semafor.cpp ****         else {
 184              		.loc 1 17 27 is_stmt 1 discriminator 1
  17:src/Semafor.cpp ****         else {
 185              		.loc 1 17 39 is_stmt 0 discriminator 1
 186 0108 23B4A400 		sd	a0,8(s1)
  17:src/Semafor.cpp ****         else {
 187              		.loc 1 17 31 discriminator 1
 188 010c 23B8A400 		sd	a0,16(s1)
 189 0110 6FF05FFC 		j	.L6
 190              	.LVL16:
 191              	.L8:
  13:src/Semafor.cpp ****         Blokiran* nov = (Blokiran*)AlokatorMemorije::dohvatiInstancu()->mem_alloc(sizeof(Blokiran))
 192              		.loc 1 13 44
 193 0114 1305F0FF 		li	a0,-1
 194 0118 6FF0DFFD 		j	.L4
 195              	.LBE18:
 196              	.LBE20:
 197              		.cfi_endproc
 198              	.LFE20:
 200              		.align	2
 201              		.globl	_ZN7Semafor6SignalEv
 203              	_ZN7Semafor6SignalEv:
 204              	.LFB21:
  27:src/Semafor.cpp **** 
  28:src/Semafor.cpp **** void Semafor::Signal() {
 205              		.loc 1 28 24 is_stmt 1
 206              		.cfi_startproc
 207              	.LVL17:
  29:src/Semafor.cpp ****     vrednost++;
 208              		.loc 1 29 5
 209 011c 83270500 		lw	a5,0(a0)
 210              		.loc 1 29 13 is_stmt 0
 211 0120 9B871700 		addiw	a5,a5,1
 212 0124 1B870700 		sext.w	a4,a5
 213 0128 2320F500 		sw	a5,0(a0)
  30:src/Semafor.cpp ****     if(vrednost < 1){
 214              		.loc 1 30 5 is_stmt 1
 215              	.LBB21:
 216 012c 6354E000 		blez	a4,.L22
 217 0130 67800000 		ret
 218              	.L22:
 219              	.LBE21:
  28:src/Semafor.cpp ****     vrednost++;
 220              		.loc 1 28 24 is_stmt 0
 221 0134 130101FE 		addi	sp,sp,-32
 222              		.cfi_def_cfa_offset 32
 223 0138 233C1100 		sd	ra,24(sp)
 224 013c 23388100 		sd	s0,16(sp)
 225 0140 23349100 		sd	s1,8(sp)
GAS LISTING /tmp/ccgQRFYB.s 			page 7


 226 0144 23302101 		sd	s2,0(sp)
 227              		.cfi_offset 1, -8
 228              		.cfi_offset 8, -16
 229              		.cfi_offset 9, -24
 230              		.cfi_offset 18, -32
 231 0148 13040102 		addi	s0,sp,32
 232              		.cfi_def_cfa 8, 0
 233              	.LBB26:
 234              	.LBB22:
  31:src/Semafor.cpp ****         Blokiran* uzet = glava;
 235              		.loc 1 31 9 is_stmt 1
 236              		.loc 1 31 19 is_stmt 0
 237 014c 83348500 		ld	s1,8(a0)
 238              	.LVL18:
  32:src/Semafor.cpp ****         TCB* nit = uzet->nit;
 239              		.loc 1 32 9 is_stmt 1
 240              		.loc 1 32 14 is_stmt 0
 241 0150 03B98400 		ld	s2,8(s1)
 242              	.LVL19:
  33:src/Semafor.cpp ****         if(rep == glava)rep = nullptr;
 243              		.loc 1 33 9 is_stmt 1
 244              		.loc 1 33 12 is_stmt 0
 245 0154 83370501 		ld	a5,16(a0)
 246              		.loc 1 33 9
 247 0158 63889704 		beq	a5,s1,.L23
 248              	.L17:
  34:src/Semafor.cpp ****         glava = glava->sl;
 249              		.loc 1 34 9 is_stmt 1
 250              		.loc 1 34 24 is_stmt 0
 251 015c 83B70400 		ld	a5,0(s1)
 252              		.loc 1 34 15
 253 0160 2334F500 		sd	a5,8(a0)
  35:src/Semafor.cpp ****         nit->setBlokiran(false);
 254              		.loc 1 35 9 is_stmt 1
 255              	.LVL20:
 256              	.LBB23:
 257              	.LBB24:
 258              		.loc 2 55 38
 259              		.loc 2 55 53 is_stmt 0
 260 0164 A3080902 		sb	zero,49(s2)
 261              	.LVL21:
 262              	.LBE24:
 263              	.LBE23:
  36:src/Semafor.cpp ****         AlokatorMemorije::dohvatiInstancu()->mem_free(uzet);
 264              		.loc 1 36 9 is_stmt 1
 265              		.loc 1 36 54 is_stmt 0
 266 0168 97000000 		call	_ZN16AlokatorMemorije15dohvatiInstancuEv@plt
 266      E7800000 
 267              	.LVL22:
 268 0170 93850400 		mv	a1,s1
 269 0174 97000000 		call	_ZN16AlokatorMemorije8mem_freeEPv@plt
 269      E7800000 
 270              	.LVL23:
  37:src/Semafor.cpp ****         Scheduler::dohvatiInstancu()->Stavi(nit);
 271              		.loc 1 37 9 is_stmt 1
 272              		.loc 1 37 44 is_stmt 0
 273 017c 97000000 		call	_ZN9Scheduler15dohvatiInstancuEv@plt
GAS LISTING /tmp/ccgQRFYB.s 			page 8


 273      E7800000 
 274              	.LVL24:
 275 0184 93050900 		mv	a1,s2
 276 0188 97000000 		call	_ZN9Scheduler5StaviEP3TCB@plt
 276      E7800000 
 277              	.LVL25:
 278              	.LBE22:
 279              	.LBE26:
  38:src/Semafor.cpp ****     }
  39:src/Semafor.cpp **** }
 280              		.loc 1 39 1
 281 0190 83308101 		ld	ra,24(sp)
 282              		.cfi_remember_state
 283              		.cfi_restore 1
 284 0194 03340101 		ld	s0,16(sp)
 285              		.cfi_restore 8
 286              		.cfi_def_cfa 2, 32
 287 0198 83348100 		ld	s1,8(sp)
 288              		.cfi_restore 9
 289              	.LVL26:
 290 019c 03390100 		ld	s2,0(sp)
 291              		.cfi_restore 18
 292              	.LVL27:
 293 01a0 13010102 		addi	sp,sp,32
 294              		.cfi_def_cfa_offset 0
 295 01a4 67800000 		jr	ra
 296              	.LVL28:
 297              	.L23:
 298              		.cfi_restore_state
 299              	.LBB27:
 300              	.LBB25:
  33:src/Semafor.cpp ****         glava = glava->sl;
 301              		.loc 1 33 25 is_stmt 1 discriminator 1
  33:src/Semafor.cpp ****         glava = glava->sl;
 302              		.loc 1 33 29 is_stmt 0 discriminator 1
 303 01a8 23380500 		sd	zero,16(a0)
 304 01ac 6FF01FFB 		j	.L17
 305              	.LBE25:
 306              	.LBE27:
 307              		.cfi_endproc
 308              	.LFE21:
 310              		.align	2
 311              		.globl	_ZN7Semafor14ZatvoriSemaforEPS_
 313              	_ZN7Semafor14ZatvoriSemaforEPS_:
 314              	.LFB22:
  40:src/Semafor.cpp **** 
  41:src/Semafor.cpp **** void Semafor::ZatvoriSemafor(Semafor* semafor) {
 315              		.loc 1 41 48 is_stmt 1
 316              		.cfi_startproc
 317              	.LVL29:
 318 01b0 130101FE 		addi	sp,sp,-32
 319              		.cfi_def_cfa_offset 32
 320 01b4 233C1100 		sd	ra,24(sp)
 321 01b8 23388100 		sd	s0,16(sp)
 322 01bc 23349100 		sd	s1,8(sp)
 323              		.cfi_offset 1, -8
 324              		.cfi_offset 8, -16
GAS LISTING /tmp/ccgQRFYB.s 			page 9


 325              		.cfi_offset 9, -24
 326 01c0 13040102 		addi	s0,sp,32
 327              		.cfi_def_cfa 8, 0
 328 01c4 93040500 		mv	s1,a0
 329              	.LVL30:
 330              	.L26:
  42:src/Semafor.cpp ****     while(semafor->glava != nullptr)semafor->Signal();
 331              		.loc 1 42 5 discriminator 2
 332              		.loc 1 42 26 discriminator 2
 333              		.loc 1 42 20 is_stmt 0 discriminator 2
 334 01c8 83B78400 		ld	a5,8(s1)
 335              		.loc 1 42 26 discriminator 2
 336 01cc 638A0700 		beqz	a5,.L25
 337              		.loc 1 42 37 is_stmt 1 discriminator 1
 338              		.loc 1 42 52 is_stmt 0 discriminator 1
 339 01d0 13850400 		mv	a0,s1
 340 01d4 97000000 		call	_ZN7Semafor6SignalEv
 340      E7800000 
 341              	.LVL31:
 342              		.loc 1 42 5 discriminator 1
 343 01dc 6FF0DFFE 		j	.L26
 344              	.L25:
  43:src/Semafor.cpp ****     AlokatorMemorije::dohvatiInstancu()->mem_free(semafor);
 345              		.loc 1 43 5 is_stmt 1
 346              		.loc 1 43 50 is_stmt 0
 347 01e0 97000000 		call	_ZN16AlokatorMemorije15dohvatiInstancuEv@plt
 347      E7800000 
 348              	.LVL32:
 349 01e8 93850400 		mv	a1,s1
 350 01ec 97000000 		call	_ZN16AlokatorMemorije8mem_freeEPv@plt
 350      E7800000 
 351              	.LVL33:
  44:src/Semafor.cpp **** }
 352              		.loc 1 44 1
 353 01f4 83308101 		ld	ra,24(sp)
 354              		.cfi_restore 1
 355 01f8 03340101 		ld	s0,16(sp)
 356              		.cfi_restore 8
 357              		.cfi_def_cfa 2, 32
 358 01fc 83348100 		ld	s1,8(sp)
 359              		.cfi_restore 9
 360              	.LVL34:
 361 0200 13010102 		addi	sp,sp,32
 362              		.cfi_def_cfa_offset 0
 363 0204 67800000 		jr	ra
 364              		.cfi_endproc
 365              	.LFE22:
 367              	.Letext0:
 368              		.file 3 "src/../h/../lib/hw.h"
 369              		.file 4 "src/../h/AlokatorMemorije.h"
 370              		.file 5 "src/../h/Scheduler.hpp"
 371              		.file 6 "src/../h/syscall_c.h"
 372              		.file 7 "src/../h/Semafor.hpp"
GAS LISTING /tmp/ccgQRFYB.s 			page 10


DEFINED SYMBOLS
                            *ABS*:0000000000000000 Semafor.cpp
     /tmp/ccgQRFYB.s:9      .text:0000000000000000 _ZN7Semafor13OtvoriSemaforEj
     /tmp/ccgQRFYB.s:13     .text:0000000000000000 .L0 
     /tmp/ccgQRFYB.s:15     .text:0000000000000000 .L0 
     /tmp/ccgQRFYB.s:16     .text:0000000000000004 .L0 
     /tmp/ccgQRFYB.s:20     .text:0000000000000010 .L0 
     /tmp/ccgQRFYB.s:21     .text:0000000000000010 .L0 
     /tmp/ccgQRFYB.s:22     .text:0000000000000010 .L0 
     /tmp/ccgQRFYB.s:24     .text:0000000000000014 .L0 
     /tmp/ccgQRFYB.s:27     .text:0000000000000018 .L0 
     /tmp/ccgQRFYB.s:28     .text:0000000000000018 .L0 
     /tmp/ccgQRFYB.s:34     .text:000000000000002c .L0 
     /tmp/ccgQRFYB.s:35     .text:000000000000002c .L0 
     /tmp/ccgQRFYB.s:37     .text:0000000000000030 .L0 
     /tmp/ccgQRFYB.s:38     .text:0000000000000030 .L0 
     /tmp/ccgQRFYB.s:40     .text:0000000000000034 .L0 
     /tmp/ccgQRFYB.s:42     .text:0000000000000038 .L0 
     /tmp/ccgQRFYB.s:43     .text:0000000000000038 .L0 
     /tmp/ccgQRFYB.s:44     .text:000000000000003c .L0 
     /tmp/ccgQRFYB.s:46     .text:0000000000000040 .L0 
     /tmp/ccgQRFYB.s:47     .text:0000000000000040 .L0 
     /tmp/ccgQRFYB.s:49     .text:0000000000000044 .L0 
     /tmp/ccgQRFYB.s:51     .text:0000000000000048 .L0 
     /tmp/ccgQRFYB.s:53     .text:000000000000004c .L0 
     /tmp/ccgQRFYB.s:59     .text:000000000000004c _ZN7Semafor4WaitEv
     /tmp/ccgQRFYB.s:62     .text:000000000000004c .L0 
     /tmp/ccgQRFYB.s:64     .text:000000000000004c .L0 
     /tmp/ccgQRFYB.s:65     .text:000000000000004c .L0 
     /tmp/ccgQRFYB.s:67     .text:0000000000000050 .L0 
     /tmp/ccgQRFYB.s:71     .text:0000000000000058 .L0 
     /tmp/ccgQRFYB.s:75     .text:0000000000000060 .L0 
     /tmp/ccgQRFYB.s:78     .text:0000000000000064 .L0 
     /tmp/ccgQRFYB.s:82     .text:0000000000000068 .L0 
     /tmp/ccgQRFYB.s:83     .text:000000000000006c .L0 
     /tmp/ccgQRFYB.s:87     .text:0000000000000078 .L0 
     /tmp/ccgQRFYB.s:88     .text:0000000000000078 .L0 
     /tmp/ccgQRFYB.s:89     .text:0000000000000078 .L0 
     /tmp/ccgQRFYB.s:91     .text:000000000000007c .L0 
     /tmp/ccgQRFYB.s:96     .text:0000000000000080 .L0 
     /tmp/ccgQRFYB.s:97     .text:0000000000000080 .L0 
     /tmp/ccgQRFYB.s:104    .text:000000000000008c .L0 
     /tmp/ccgQRFYB.s:105    .text:000000000000008c .L0 
     /tmp/ccgQRFYB.s:110    .text:0000000000000090 .L0 
     /tmp/ccgQRFYB.s:113    .text:0000000000000094 .L0 
     /tmp/ccgQRFYB.s:114    .text:0000000000000094 .L0 
     /tmp/ccgQRFYB.s:120    .text:00000000000000a8 .L0 
     /tmp/ccgQRFYB.s:121    .text:00000000000000a8 .L0 
     /tmp/ccgQRFYB.s:123    .text:00000000000000ac .L0 
     /tmp/ccgQRFYB.s:124    .text:00000000000000ac .L0 
     /tmp/ccgQRFYB.s:128    .text:00000000000000bc .L0 
     /tmp/ccgQRFYB.s:129    .text:00000000000000bc .L0 
     /tmp/ccgQRFYB.s:131    .text:00000000000000c0 .L0 
     /tmp/ccgQRFYB.s:133    .text:00000000000000c4 .L0 
     /tmp/ccgQRFYB.s:134    .text:00000000000000c4 .L0 
     /tmp/ccgQRFYB.s:136    .text:00000000000000c8 .L0 
     /tmp/ccgQRFYB.s:137    .text:00000000000000c8 .L0 
GAS LISTING /tmp/ccgQRFYB.s 			page 11


     /tmp/ccgQRFYB.s:139    .text:00000000000000cc .L0 
     /tmp/ccgQRFYB.s:141    .text:00000000000000d0 .L0 
     /tmp/ccgQRFYB.s:144    .text:00000000000000d4 .L0 
     /tmp/ccgQRFYB.s:145    .text:00000000000000d4 .L0 
     /tmp/ccgQRFYB.s:151    .text:00000000000000e0 .L0 
     /tmp/ccgQRFYB.s:152    .text:00000000000000e0 .L0 
     /tmp/ccgQRFYB.s:158    .text:00000000000000e8 .L0 
     /tmp/ccgQRFYB.s:159    .text:00000000000000e8 .L0 
     /tmp/ccgQRFYB.s:164    .text:00000000000000f0 .L0 
     /tmp/ccgQRFYB.s:167    .text:00000000000000f4 .L0 
     /tmp/ccgQRFYB.s:168    .text:00000000000000f8 .L0 
     /tmp/ccgQRFYB.s:169    .text:00000000000000f8 .L0 
     /tmp/ccgQRFYB.s:171    .text:00000000000000fc .L0 
     /tmp/ccgQRFYB.s:172    .text:00000000000000fc .L0 
     /tmp/ccgQRFYB.s:174    .text:0000000000000100 .L0 
     /tmp/ccgQRFYB.s:177    .text:0000000000000104 .L0 
     /tmp/ccgQRFYB.s:181    .text:0000000000000108 .L0 
     /tmp/ccgQRFYB.s:185    .text:0000000000000108 .L0 
     /tmp/ccgQRFYB.s:186    .text:0000000000000108 .L0 
     /tmp/ccgQRFYB.s:188    .text:000000000000010c .L0 
     /tmp/ccgQRFYB.s:193    .text:0000000000000114 .L0 
     /tmp/ccgQRFYB.s:197    .text:000000000000011c .L0 
     /tmp/ccgQRFYB.s:203    .text:000000000000011c _ZN7Semafor6SignalEv
     /tmp/ccgQRFYB.s:206    .text:000000000000011c .L0 
     /tmp/ccgQRFYB.s:208    .text:000000000000011c .L0 
     /tmp/ccgQRFYB.s:209    .text:000000000000011c .L0 
     /tmp/ccgQRFYB.s:211    .text:0000000000000120 .L0 
     /tmp/ccgQRFYB.s:216    .text:000000000000012c .L0 
     /tmp/ccgQRFYB.s:221    .text:0000000000000134 .L0 
     /tmp/ccgQRFYB.s:222    .text:0000000000000138 .L0 
     /tmp/ccgQRFYB.s:227    .text:0000000000000148 .L0 
     /tmp/ccgQRFYB.s:228    .text:0000000000000148 .L0 
     /tmp/ccgQRFYB.s:229    .text:0000000000000148 .L0 
     /tmp/ccgQRFYB.s:230    .text:0000000000000148 .L0 
     /tmp/ccgQRFYB.s:232    .text:000000000000014c .L0 
     /tmp/ccgQRFYB.s:236    .text:000000000000014c .L0 
     /tmp/ccgQRFYB.s:237    .text:000000000000014c .L0 
     /tmp/ccgQRFYB.s:240    .text:0000000000000150 .L0 
     /tmp/ccgQRFYB.s:241    .text:0000000000000150 .L0 
     /tmp/ccgQRFYB.s:244    .text:0000000000000154 .L0 
     /tmp/ccgQRFYB.s:245    .text:0000000000000154 .L0 
     /tmp/ccgQRFYB.s:247    .text:0000000000000158 .L0 
     /tmp/ccgQRFYB.s:250    .text:000000000000015c .L0 
     /tmp/ccgQRFYB.s:251    .text:000000000000015c .L0 
     /tmp/ccgQRFYB.s:253    .text:0000000000000160 .L0 
     /tmp/ccgQRFYB.s:258    .text:0000000000000164 .L0 
     /tmp/ccgQRFYB.s:259    .text:0000000000000164 .L0 
     /tmp/ccgQRFYB.s:260    .text:0000000000000164 .L0 
     /tmp/ccgQRFYB.s:265    .text:0000000000000168 .L0 
     /tmp/ccgQRFYB.s:266    .text:0000000000000168 .L0 
     /tmp/ccgQRFYB.s:272    .text:000000000000017c .L0 
     /tmp/ccgQRFYB.s:273    .text:000000000000017c .L0 
     /tmp/ccgQRFYB.s:281    .text:0000000000000190 .L0 
     /tmp/ccgQRFYB.s:282    .text:0000000000000194 .L0 
     /tmp/ccgQRFYB.s:283    .text:0000000000000194 .L0 
     /tmp/ccgQRFYB.s:285    .text:0000000000000198 .L0 
     /tmp/ccgQRFYB.s:286    .text:0000000000000198 .L0 
GAS LISTING /tmp/ccgQRFYB.s 			page 12


     /tmp/ccgQRFYB.s:288    .text:000000000000019c .L0 
     /tmp/ccgQRFYB.s:291    .text:00000000000001a0 .L0 
     /tmp/ccgQRFYB.s:294    .text:00000000000001a4 .L0 
     /tmp/ccgQRFYB.s:298    .text:00000000000001a8 .L0 
     /tmp/ccgQRFYB.s:302    .text:00000000000001a8 .L0 
     /tmp/ccgQRFYB.s:303    .text:00000000000001a8 .L0 
     /tmp/ccgQRFYB.s:307    .text:00000000000001b0 .L0 
     /tmp/ccgQRFYB.s:313    .text:00000000000001b0 _ZN7Semafor14ZatvoriSemaforEPS_
     /tmp/ccgQRFYB.s:316    .text:00000000000001b0 .L0 
     /tmp/ccgQRFYB.s:318    .text:00000000000001b0 .L0 
     /tmp/ccgQRFYB.s:319    .text:00000000000001b4 .L0 
     /tmp/ccgQRFYB.s:323    .text:00000000000001c0 .L0 
     /tmp/ccgQRFYB.s:324    .text:00000000000001c0 .L0 
     /tmp/ccgQRFYB.s:325    .text:00000000000001c0 .L0 
     /tmp/ccgQRFYB.s:327    .text:00000000000001c4 .L0 
     /tmp/ccgQRFYB.s:332    .text:00000000000001c8 .L0 
     /tmp/ccgQRFYB.s:333    .text:00000000000001c8 .L0 
     /tmp/ccgQRFYB.s:334    .text:00000000000001c8 .L0 
     /tmp/ccgQRFYB.s:336    .text:00000000000001cc .L0 
     /tmp/ccgQRFYB.s:338    .text:00000000000001d0 .L0 
     /tmp/ccgQRFYB.s:339    .text:00000000000001d0 .L0 
     /tmp/ccgQRFYB.s:343    .text:00000000000001dc .L0 
     /tmp/ccgQRFYB.s:346    .text:00000000000001e0 .L0 
     /tmp/ccgQRFYB.s:347    .text:00000000000001e0 .L0 
     /tmp/ccgQRFYB.s:353    .text:00000000000001f4 .L0 
     /tmp/ccgQRFYB.s:354    .text:00000000000001f8 .L0 
     /tmp/ccgQRFYB.s:356    .text:00000000000001fc .L0 
     /tmp/ccgQRFYB.s:357    .text:00000000000001fc .L0 
     /tmp/ccgQRFYB.s:359    .text:0000000000000200 .L0 
     /tmp/ccgQRFYB.s:362    .text:0000000000000204 .L0 
     /tmp/ccgQRFYB.s:364    .text:0000000000000208 .L0 
     /tmp/ccgQRFYB.s:373    .text:0000000000000208 .L0 
     /tmp/ccgQRFYB.s:97     .text:0000000000000080 .L0 
     /tmp/ccgQRFYB.s:124    .text:00000000000000ac .L0 
     /tmp/ccgQRFYB.s:145    .text:00000000000000d4 .L0 
     /tmp/ccgQRFYB.s:80     .text:0000000000000068 .L13
     /tmp/ccgQRFYB.s:191    .text:0000000000000114 .L8
     /tmp/ccgQRFYB.s:180    .text:0000000000000108 .L14
     /tmp/ccgQRFYB.s:142    .text:00000000000000d4 .L6
     /tmp/ccgQRFYB.s:165    .text:00000000000000f4 .L4
     /tmp/ccgQRFYB.s:218    .text:0000000000000134 .L22
     /tmp/ccgQRFYB.s:297    .text:00000000000001a8 .L23
     /tmp/ccgQRFYB.s:248    .text:000000000000015c .L17
     /tmp/ccgQRFYB.s:344    .text:00000000000001e0 .L25
     /tmp/ccgQRFYB.s:330    .text:00000000000001c8 .L26
     /tmp/ccgQRFYB.s:1517   .debug_abbrev:0000000000000000 .Ldebug_abbrev0
     /tmp/ccgQRFYB.s:2719   .debug_str:00000000000005c9 .LASF104
     /tmp/ccgQRFYB.s:2697   .debug_str:0000000000000516 .LASF105
     /tmp/ccgQRFYB.s:2557   .debug_str:00000000000000ca .LASF106
     /tmp/ccgQRFYB.s:5      .text:0000000000000000 .Ltext0
     /tmp/ccgQRFYB.s:367    .text:0000000000000208 .Letext0
     /tmp/ccgQRFYB.s:2525   .debug_line:0000000000000000 .Ldebug_line0
     /tmp/ccgQRFYB.s:2653   .debug_str:00000000000003ca .LASF0
     /tmp/ccgQRFYB.s:2673   .debug_str:0000000000000491 .LASF1
     /tmp/ccgQRFYB.s:2641   .debug_str:0000000000000356 .LASF2
     /tmp/ccgQRFYB.s:2615   .debug_str:0000000000000282 .LASF4
     /tmp/ccgQRFYB.s:2703   .debug_str:0000000000000551 .LASF3
GAS LISTING /tmp/ccgQRFYB.s 			page 13


     /tmp/ccgQRFYB.s:2555   .debug_str:00000000000000c3 .LASF5
     /tmp/ccgQRFYB.s:2675   .debug_str:00000000000004a4 .LASF6
     /tmp/ccgQRFYB.s:2651   .debug_str:00000000000003b7 .LASF7
     /tmp/ccgQRFYB.s:2731   .debug_str:00000000000006dd .LASF8
     /tmp/ccgQRFYB.s:2601   .debug_str:0000000000000226 .LASF9
     /tmp/ccgQRFYB.s:2689   .debug_str:00000000000004ed .LASF10
     /tmp/ccgQRFYB.s:2721   .debug_str:000000000000068d .LASF11
     /tmp/ccgQRFYB.s:2629   .debug_str:0000000000000301 .LASF12
     /tmp/ccgQRFYB.s:2535   .debug_str:0000000000000056 .LASF13
     /tmp/ccgQRFYB.s:2565   .debug_str:000000000000010f .LASF14
     /tmp/ccgQRFYB.s:2699   .debug_str:0000000000000526 .LASF15
     /tmp/ccgQRFYB.s:2575   .debug_str:0000000000000158 .LASF16
     /tmp/ccgQRFYB.s:2573   .debug_str:0000000000000147 .LASF19
     /tmp/ccgQRFYB.s:2737   .debug_str:000000000000070f .LASF27
     /tmp/ccgQRFYB.s:2739   .debug_str:0000000000000720 .LASF17
     /tmp/ccgQRFYB.s:2715   .debug_str:00000000000005a9 .LASF18
     /tmp/ccgQRFYB.s:2571   .debug_str:000000000000013e .LASF29
     /tmp/ccgQRFYB.s:2543   .debug_str:000000000000008a .LASF38
     /tmp/ccgQRFYB.s:2627   .debug_str:00000000000002cd .LASF40
     /tmp/ccgQRFYB.s:2617   .debug_str:0000000000000289 .LASF20
     /tmp/ccgQRFYB.s:2733   .debug_str:00000000000006ed .LASF21
     /tmp/ccgQRFYB.s:2645   .debug_str:000000000000037b .LASF22
     /tmp/ccgQRFYB.s:2659   .debug_str:00000000000003e9 .LASF23
     /tmp/ccgQRFYB.s:2723   .debug_str:000000000000069c .LASF35
     /tmp/ccgQRFYB.s:2669   .debug_str:0000000000000462 .LASF36
     /tmp/ccgQRFYB.s:2705   .debug_str:0000000000000563 .LASF24
     /tmp/ccgQRFYB.s:2667   .debug_str:0000000000000440 .LASF25
     /tmp/ccgQRFYB.s:2691   .debug_str:00000000000004fc .LASF42
     /tmp/ccgQRFYB.s:2665   .debug_str:000000000000041e .LASF44
     /tmp/ccgQRFYB.s:2687   .debug_str:00000000000004e3 .LASF26
     /tmp/ccgQRFYB.s:2729   .debug_str:00000000000006d8 .LASF28
     /tmp/ccgQRFYB.s:2713   .debug_str:000000000000059f .LASF30
     /tmp/ccgQRFYB.s:2539   .debug_str:000000000000006e .LASF31
     /tmp/ccgQRFYB.s:2637   .debug_str:000000000000033f .LASF32
     /tmp/ccgQRFYB.s:2595   .debug_str:00000000000001f3 .LASF33
     /tmp/ccgQRFYB.s:2631   .debug_str:0000000000000311 .LASF34
     /tmp/ccgQRFYB.s:2647   .debug_str:0000000000000385 .LASF37
     /tmp/ccgQRFYB.s:2611   .debug_str:0000000000000267 .LASF39
     /tmp/ccgQRFYB.s:2711   .debug_str:000000000000057a .LASF41
     /tmp/ccgQRFYB.s:2735   .debug_str:0000000000000709 .LASF43
     /tmp/ccgQRFYB.s:2717   .debug_str:00000000000005af .LASF45
     /tmp/ccgQRFYB.s:2563   .debug_str:000000000000010a .LASF46
     /tmp/ccgQRFYB.s:2633   .debug_str:0000000000000325 .LASF47
     /tmp/ccgQRFYB.s:2635   .debug_str:000000000000033a .LASF48
     /tmp/ccgQRFYB.s:2683   .debug_str:00000000000004d5 .LASF49
     /tmp/ccgQRFYB.s:2533   .debug_str:0000000000000051 .LASF107
     /tmp/ccgQRFYB.s:2707   .debug_str:000000000000056d .LASF50
     /tmp/ccgQRFYB.s:2743   .debug_str:0000000000000751 .LASF51
     /tmp/ccgQRFYB.s:2663   .debug_str:0000000000000415 .LASF52
     /tmp/ccgQRFYB.s:2655   .debug_str:00000000000003d7 .LASF53
     /tmp/ccgQRFYB.s:2559   .debug_str:00000000000000ea .LASF54
     /tmp/ccgQRFYB.s:2671   .debug_str:000000000000048b .LASF55
     /tmp/ccgQRFYB.s:2549   .debug_str:000000000000009e .LASF56
     /tmp/ccgQRFYB.s:2709   .debug_str:0000000000000572 .LASF57
     /tmp/ccgQRFYB.s:2619   .debug_str:00000000000002a3 .LASF58
     /tmp/ccgQRFYB.s:2607   .debug_str:0000000000000249 .LASF60
     /tmp/ccgQRFYB.s:2657   .debug_str:00000000000003e0 .LASF59
GAS LISTING /tmp/ccgQRFYB.s 			page 14


     /tmp/ccgQRFYB.s:2593   .debug_str:00000000000001e0 .LASF61
     /tmp/ccgQRFYB.s:2561   .debug_str:00000000000000f9 .LASF108
     /tmp/ccgQRFYB.s:2741   .debug_str:0000000000000725 .LASF109
     /tmp/ccgQRFYB.s:2529   .debug_str:000000000000001e .LASF62
     /tmp/ccgQRFYB.s:2537   .debug_str:0000000000000066 .LASF63
     /tmp/ccgQRFYB.s:2747   .debug_str:0000000000000765 .LASF64
     /tmp/ccgQRFYB.s:2597   .debug_str:0000000000000207 .LASF65
     /tmp/ccgQRFYB.s:2551   .debug_str:00000000000000a7 .LASF66
     /tmp/ccgQRFYB.s:2661   .debug_str:0000000000000405 .LASF67
     /tmp/ccgQRFYB.s:2725   .debug_str:00000000000006ac .LASF68
     /tmp/ccgQRFYB.s:2625   .debug_str:00000000000002c2 .LASF69
     /tmp/ccgQRFYB.s:2643   .debug_str:0000000000000364 .LASF70
     /tmp/ccgQRFYB.s:2567   .debug_str:000000000000011b .LASF71
     /tmp/ccgQRFYB.s:2569   .debug_str:0000000000000127 .LASF72
     /tmp/ccgQRFYB.s:2603   .debug_str:0000000000000234 .LASF73
     /tmp/ccgQRFYB.s:2701   .debug_str:000000000000053c .LASF74
     /tmp/ccgQRFYB.s:2605   .debug_str:000000000000023e .LASF75
     /tmp/ccgQRFYB.s:2599   .debug_str:0000000000000210 .LASF76
     /tmp/ccgQRFYB.s:2579   .debug_str:0000000000000181 .LASF77
     /tmp/ccgQRFYB.s:2527   .debug_str:0000000000000000 .LASF78
     /tmp/ccgQRFYB.s:2585   .debug_str:00000000000001b9 .LASF79
     /tmp/ccgQRFYB.s:2649   .debug_str:00000000000003a6 .LASF80
     /tmp/ccgQRFYB.s:2591   .debug_str:00000000000001d8 .LASF110
     /tmp/ccgQRFYB.s:2589   .debug_str:00000000000001d3 .LASF81
     /tmp/ccgQRFYB.s:2695   .debug_str:000000000000050a .LASF82
     /tmp/ccgQRFYB.s:2583   .debug_str:00000000000001b0 .LASF83
     /tmp/ccgQRFYB.s:2679   .debug_str:00000000000004bd .LASF84
     /tmp/ccgQRFYB.s:2621   .debug_str:00000000000002b1 .LASF85
     /tmp/ccgQRFYB.s:2613   .debug_str:000000000000027a .LASF86
     /tmp/ccgQRFYB.s:2547   .debug_str:0000000000000095 .LASF87
     /tmp/ccgQRFYB.s:2553   .debug_str:00000000000000ba .LASF88
     /tmp/ccgQRFYB.s:2541   .debug_str:000000000000007c .LASF89
     /tmp/ccgQRFYB.s:2581   .debug_str:0000000000000193 .LASF90
     /tmp/ccgQRFYB.s:2745   .debug_str:0000000000000756 .LASF91
     /tmp/ccgQRFYB.s:2531   .debug_str:0000000000000031 .LASF92
     /tmp/ccgQRFYB.s:2727   .debug_str:00000000000006d1 .LASF93
     /tmp/ccgQRFYB.s:2587   .debug_str:00000000000001be .LASF94
     /tmp/ccgQRFYB.s:2639   .debug_str:0000000000000351 .LASF95
     /tmp/ccgQRFYB.s:2577   .debug_str:000000000000016e .LASF96
     /tmp/ccgQRFYB.s:2609   .debug_str:0000000000000262 .LASF97
     /tmp/ccgQRFYB.s:2545   .debug_str:0000000000000090 .LASF98
     /tmp/ccgQRFYB.s:314    .text:00000000000001b0 .LFB22
     /tmp/ccgQRFYB.s:365    .text:0000000000000208 .LFE22
     /tmp/ccgQRFYB.s:2623   .debug_str:00000000000002ba .LASF101
     /tmp/ccgQRFYB.s:2345   .debug_loc:0000000000000000 .LLST11
     /tmp/ccgQRFYB.s:341    .text:00000000000001dc .LVL31
     /tmp/ccgQRFYB.s:348    .text:00000000000001e8 .LVL32
     /tmp/ccgQRFYB.s:351    .text:00000000000001f4 .LVL33
     /tmp/ccgQRFYB.s:204    .text:000000000000011c .LFB21
     /tmp/ccgQRFYB.s:308    .text:00000000000001b0 .LFE21
     /tmp/ccgQRFYB.s:2693   .debug_str:0000000000000505 .LASF100
     /tmp/ccgQRFYB.s:2363   .debug_loc:000000000000004c .LLST6
     /tmp/ccgQRFYB.s:2511   .debug_ranges:0000000000000000 .Ldebug_ranges0
     /tmp/ccgQRFYB.s:2685   .debug_str:00000000000004de .LASF99
     /tmp/ccgQRFYB.s:2381   .debug_loc:0000000000000098 .LLST7
     /tmp/ccgQRFYB.s:2392   .debug_loc:00000000000000ce .LLST8
     /tmp/ccgQRFYB.s:256    .text:0000000000000164 .LBB23
GAS LISTING /tmp/ccgQRFYB.s 			page 15


     /tmp/ccgQRFYB.s:263    .text:0000000000000168 .LBE23
     /tmp/ccgQRFYB.s:2403   .debug_loc:0000000000000104 .LLST9
     /tmp/ccgQRFYB.s:2411   .debug_loc:0000000000000128 .LLST10
     /tmp/ccgQRFYB.s:267    .text:0000000000000170 .LVL22
     /tmp/ccgQRFYB.s:270    .text:000000000000017c .LVL23
     /tmp/ccgQRFYB.s:274    .text:0000000000000184 .LVL24
     /tmp/ccgQRFYB.s:277    .text:0000000000000190 .LVL25
     /tmp/ccgQRFYB.s:60     .text:000000000000004c .LFB20
     /tmp/ccgQRFYB.s:198    .text:000000000000011c .LFE20
     /tmp/ccgQRFYB.s:2418   .debug_loc:000000000000014b .LLST1
     /tmp/ccgQRFYB.s:2451   .debug_loc:00000000000001d3 .LLST2
     /tmp/ccgQRFYB.s:100    .text:000000000000008c .LBB14
     /tmp/ccgQRFYB.s:108    .text:0000000000000090 .LBE14
     /tmp/ccgQRFYB.s:2462   .debug_loc:0000000000000209 .LLST3
     /tmp/ccgQRFYB.s:148    .text:00000000000000e0 .LBB16
     /tmp/ccgQRFYB.s:156    .text:00000000000000e8 .LBE16
     /tmp/ccgQRFYB.s:2469   .debug_loc:000000000000022c .LLST4
     /tmp/ccgQRFYB.s:2477   .debug_loc:0000000000000250 .LLST5
     /tmp/ccgQRFYB.s:115    .text:000000000000009c .LVL9
     /tmp/ccgQRFYB.s:118    .text:00000000000000a8 .LVL10
     /tmp/ccgQRFYB.s:160    .text:00000000000000f0 .LVL13
     /tmp/ccgQRFYB.s:10     .text:0000000000000000 .LFB19
     /tmp/ccgQRFYB.s:54     .text:000000000000004c .LFE19
     /tmp/ccgQRFYB.s:2681   .debug_str:00000000000004d0 .LASF102
     /tmp/ccgQRFYB.s:2484   .debug_loc:0000000000000273 .LLST0
     /tmp/ccgQRFYB.s:2677   .debug_str:00000000000004b7 .LASF103
     /tmp/ccgQRFYB.s:29     .text:0000000000000020 .LVL1
     /tmp/ccgQRFYB.s:32     .text:000000000000002c .LVL2
     /tmp/ccgQRFYB.s:317    .text:00000000000001b0 .LVL29
     /tmp/ccgQRFYB.s:329    .text:00000000000001c8 .LVL30
     /tmp/ccgQRFYB.s:360    .text:0000000000000200 .LVL34
     /tmp/ccgQRFYB.s:207    .text:000000000000011c .LVL17
     /tmp/ccgQRFYB.s:296    .text:00000000000001a8 .LVL28
     /tmp/ccgQRFYB.s:238    .text:0000000000000150 .LVL18
     /tmp/ccgQRFYB.s:289    .text:000000000000019c .LVL26
     /tmp/ccgQRFYB.s:242    .text:0000000000000154 .LVL19
     /tmp/ccgQRFYB.s:292    .text:00000000000001a0 .LVL27
     /tmp/ccgQRFYB.s:255    .text:0000000000000164 .LVL20
     /tmp/ccgQRFYB.s:261    .text:0000000000000168 .LVL21
     /tmp/ccgQRFYB.s:63     .text:000000000000004c .LVL3
     /tmp/ccgQRFYB.s:76     .text:0000000000000064 .LVL4
     /tmp/ccgQRFYB.s:79     .text:0000000000000068 .LVL5
     /tmp/ccgQRFYB.s:111    .text:0000000000000094 .LVL8
     /tmp/ccgQRFYB.s:175    .text:0000000000000100 .LVL14
     /tmp/ccgQRFYB.s:179    .text:0000000000000108 .LVL15
     /tmp/ccgQRFYB.s:190    .text:0000000000000114 .LVL16
     /tmp/ccgQRFYB.s:99     .text:000000000000008c .LVL6
     /tmp/ccgQRFYB.s:106    .text:0000000000000090 .LVL7
     /tmp/ccgQRFYB.s:147    .text:00000000000000e0 .LVL11
     /tmp/ccgQRFYB.s:154    .text:00000000000000e8 .LVL12
     /tmp/ccgQRFYB.s:14     .text:0000000000000000 .LVL0
     /tmp/ccgQRFYB.s:374    .debug_info:0000000000000000 .Ldebug_info0
     /tmp/ccgQRFYB.s:94     .text:0000000000000080 .LBB13
     /tmp/ccgQRFYB.s:161    .text:00000000000000f0 .LBE13
     /tmp/ccgQRFYB.s:183    .text:0000000000000108 .LBB18
     /tmp/ccgQRFYB.s:195    .text:000000000000011c .LBE18
     /tmp/ccgQRFYB.s:234    .text:000000000000014c .LBB22
GAS LISTING /tmp/ccgQRFYB.s 			page 16


     /tmp/ccgQRFYB.s:278    .text:0000000000000190 .LBE22
     /tmp/ccgQRFYB.s:300    .text:00000000000001a8 .LBB25
     /tmp/ccgQRFYB.s:305    .text:00000000000001b0 .LBE25

UNDEFINED SYMBOLS
_ZN16AlokatorMemorije15dohvatiInstancuEv
_ZN16AlokatorMemorije9mem_allocEm
_ZN3TCB7runningE
_ZN3TCB8dispatchEv
_ZN16AlokatorMemorije8mem_freeEPv
_ZN9Scheduler15dohvatiInstancuEv
_ZN9Scheduler5StaviEP3TCB
