GAS LISTING /tmp/cc1Nns2m.s 			page 1


   1              		.file	"STL.cpp"
   2              		.option pic
   3              		.option norelax
   4              		.text
   5              	.Ltext0:
   6              		.align	2
   7              		.globl	_ZN3STL15DohvatiInstancuEv
   9              	_ZN3STL15DohvatiInstancuEv:
  10              	.LFB19:
  11              		.file 1 "src/STL.cpp"
   1:src/STL.cpp   **** #include "../h/STL.hpp"
   2:src/STL.cpp   **** 
   3:src/STL.cpp   **** STL* STL::stl = nullptr;
   4:src/STL.cpp   **** 
   5:src/STL.cpp   **** STL *STL::DohvatiInstancu() {
  12              		.loc 1 5 29
  13              		.cfi_startproc
   6:src/STL.cpp   ****     if(stl == nullptr){
  14              		.loc 1 6 5
  15              		.loc 1 6 12 is_stmt 0
  16 0000 97070000 		ld	a5,.LANCHOR0
  16      83B70700 
  17              		.loc 1 6 5
  18 0008 63880700 		beqz	a5,.L7
   7:src/STL.cpp   ****         stl = (STL*) AlokatorMemorije::dohvatiInstancu()->mem_alloc(sizeof(STL));
   8:src/STL.cpp   ****         stl->glava = nullptr;
   9:src/STL.cpp   ****     }
  10:src/STL.cpp   ****     return stl;
  19              		.loc 1 10 5 is_stmt 1
  11:src/STL.cpp   **** }
  20              		.loc 1 11 1 is_stmt 0
  21 000c 17050000 		ld	a0,.LANCHOR0
  21      03350500 
  22 0014 67800000 		ret
  23              	.L7:
   5:src/STL.cpp   ****     if(stl == nullptr){
  24              		.loc 1 5 29
  25 0018 130101FF 		addi	sp,sp,-16
  26              		.cfi_def_cfa_offset 16
  27 001c 23341100 		sd	ra,8(sp)
  28 0020 23308100 		sd	s0,0(sp)
  29              		.cfi_offset 1, -8
  30              		.cfi_offset 8, -16
  31 0024 13040101 		addi	s0,sp,16
  32              		.cfi_def_cfa 8, 0
   7:src/STL.cpp   ****         stl = (STL*) AlokatorMemorije::dohvatiInstancu()->mem_alloc(sizeof(STL));
  33              		.loc 1 7 9 is_stmt 1
   7:src/STL.cpp   ****         stl = (STL*) AlokatorMemorije::dohvatiInstancu()->mem_alloc(sizeof(STL));
  34              		.loc 1 7 68 is_stmt 0
  35 0028 97000000 		call	_ZN16AlokatorMemorije15dohvatiInstancuEv@plt
  35      E7800000 
  36              	.LVL0:
  37 0030 93058000 		li	a1,8
  38 0034 97000000 		call	_ZN16AlokatorMemorije9mem_allocEm@plt
  38      E7800000 
  39              	.LVL1:
   7:src/STL.cpp   ****         stl = (STL*) AlokatorMemorije::dohvatiInstancu()->mem_alloc(sizeof(STL));
GAS LISTING /tmp/cc1Nns2m.s 			page 2


  40              		.loc 1 7 13
  41 003c 97070000 		sd	a0,.LANCHOR0,a5
  41      23B0A700 
   8:src/STL.cpp   ****     }
  42              		.loc 1 8 9 is_stmt 1
   8:src/STL.cpp   ****     }
  43              		.loc 1 8 20 is_stmt 0
  44 0044 23300500 		sd	zero,0(a0)
  10:src/STL.cpp   **** }
  45              		.loc 1 10 5 is_stmt 1
  46              		.loc 1 11 1 is_stmt 0
  47 0048 17050000 		ld	a0,.LANCHOR0
  47      03350500 
  48 0050 83308100 		ld	ra,8(sp)
  49              		.cfi_restore 1
  50 0054 03340100 		ld	s0,0(sp)
  51              		.cfi_restore 8
  52              		.cfi_def_cfa 2, 16
  53 0058 13010101 		addi	sp,sp,16
  54              		.cfi_def_cfa_offset 0
  55 005c 67800000 		jr	ra
  56              		.cfi_endproc
  57              	.LFE19:
  59              		.align	2
  60              		.globl	_ZN3STL5StaviEm
  62              	_ZN3STL5StaviEm:
  63              	.LFB20:
  12:src/STL.cpp   **** 
  13:src/STL.cpp   **** void STL::Stavi(time_t vreme) {
  64              		.loc 1 13 31 is_stmt 1
  65              		.cfi_startproc
  66              	.LVL2:
  67 0060 130101FE 		addi	sp,sp,-32
  68              		.cfi_def_cfa_offset 32
  69 0064 233C1100 		sd	ra,24(sp)
  70 0068 23388100 		sd	s0,16(sp)
  71 006c 23349100 		sd	s1,8(sp)
  72 0070 23302101 		sd	s2,0(sp)
  73              		.cfi_offset 1, -8
  74              		.cfi_offset 8, -16
  75              		.cfi_offset 9, -24
  76              		.cfi_offset 18, -32
  77 0074 13040102 		addi	s0,sp,32
  78              		.cfi_def_cfa 8, 0
  79 0078 93040500 		mv	s1,a0
  80 007c 13890500 		mv	s2,a1
  14:src/STL.cpp   ****     Elem* cur, *last;
  81              		.loc 1 14 5
  15:src/STL.cpp   ****     Elem* nov = (Elem*)AlokatorMemorije::dohvatiInstancu()->mem_alloc(sizeof(Elem));
  82              		.loc 1 15 5
  83              		.loc 1 15 70 is_stmt 0
  84 0080 97000000 		call	_ZN16AlokatorMemorije15dohvatiInstancuEv@plt
  84      E7800000 
  85              	.LVL3:
  86 0088 93058001 		li	a1,24
  87 008c 97000000 		call	_ZN16AlokatorMemorije9mem_allocEm@plt
  87      E7800000 
GAS LISTING /tmp/cc1Nns2m.s 			page 3


  88              	.LVL4:
  16:src/STL.cpp   ****     nov->nit = TCB::running;
  89              		.loc 1 16 5 is_stmt 1
  90              		.loc 1 16 14 is_stmt 0
  91 0094 97070000 		la	a5,_ZN3TCB7runningE
  91      83B70700 
  92 009c 83B70700 		ld	a5,0(a5)
  93 00a0 2330F500 		sd	a5,0(a0)
  17:src/STL.cpp   ****     nov->vreme = vreme;
  94              		.loc 1 17 5 is_stmt 1
  95              		.loc 1 17 16 is_stmt 0
  96 00a4 23382501 		sd	s2,16(a0)
  18:src/STL.cpp   ****     nov->sl = nullptr;
  97              		.loc 1 18 5 is_stmt 1
  98              		.loc 1 18 13 is_stmt 0
  99 00a8 23340500 		sd	zero,8(a0)
  19:src/STL.cpp   ****     for(cur = glava, last = nullptr;cur != nullptr;last = cur,cur = cur->sl){
 100              		.loc 1 19 5 is_stmt 1
 101              		.loc 1 19 13 is_stmt 0
 102 00ac 83B70400 		ld	a5,0(s1)
 103              	.LVL5:
 104              		.loc 1 19 27
 105 00b0 13060000 		li	a2,0
 106              	.LVL6:
 107              	.L13:
 108              		.loc 1 19 41 is_stmt 1 discriminator 1
 109 00b4 63800704 		beqz	a5,.L9
  20:src/STL.cpp   ****         if(cur->vreme >= nov->vreme){
 110              		.loc 1 20 9
 111              		.loc 1 20 17 is_stmt 0
 112 00b8 83B60701 		ld	a3,16(a5)
 113              		.loc 1 20 31
 114 00bc 03370501 		ld	a4,16(a0)
 115              		.loc 1 20 9
 116 00c0 63FCE600 		bgeu	a3,a4,.L17
  21:src/STL.cpp   ****             if(last == nullptr)glava = nov;
  22:src/STL.cpp   ****             else last->sl = nov;
  23:src/STL.cpp   ****             nov->sl = cur;
  24:src/STL.cpp   ****             cur->vreme -= nov->vreme;
  25:src/STL.cpp   ****             break;
  26:src/STL.cpp   ****         }
  27:src/STL.cpp   ****         else nov->vreme -= cur->vreme;
 117              		.loc 1 27 14 is_stmt 1 discriminator 2
 118              		.loc 1 27 25 is_stmt 0 discriminator 2
 119 00c4 3307D740 		sub	a4,a4,a3
 120 00c8 2338E500 		sd	a4,16(a0)
  19:src/STL.cpp   ****         if(cur->vreme >= nov->vreme){
 121              		.loc 1 19 5 is_stmt 1 discriminator 2
 122              	.LVL7:
  19:src/STL.cpp   ****         if(cur->vreme >= nov->vreme){
 123              		.loc 1 19 57 is_stmt 0 discriminator 2
 124 00cc 13860700 		mv	a2,a5
  19:src/STL.cpp   ****         if(cur->vreme >= nov->vreme){
 125              		.loc 1 19 67 discriminator 2
 126 00d0 83B78700 		ld	a5,8(a5)
 127              	.LVL8:
  19:src/STL.cpp   ****         if(cur->vreme >= nov->vreme){
GAS LISTING /tmp/cc1Nns2m.s 			page 4


 128              		.loc 1 19 5 discriminator 2
 129 00d4 6FF01FFE 		j	.L13
 130              	.L17:
  21:src/STL.cpp   ****             if(last == nullptr)glava = nov;
 131              		.loc 1 21 13 is_stmt 1
 132 00d8 63000604 		beqz	a2,.L18
  22:src/STL.cpp   ****             nov->sl = cur;
 133              		.loc 1 22 18
  22:src/STL.cpp   ****             nov->sl = cur;
 134              		.loc 1 22 27 is_stmt 0
 135 00dc 2334A600 		sd	a0,8(a2)
 136              	.L12:
  23:src/STL.cpp   ****             cur->vreme -= nov->vreme;
 137              		.loc 1 23 13 is_stmt 1
  23:src/STL.cpp   ****             cur->vreme -= nov->vreme;
 138              		.loc 1 23 21 is_stmt 0
 139 00e0 2334F500 		sd	a5,8(a0)
  24:src/STL.cpp   ****             break;
 140              		.loc 1 24 13 is_stmt 1
  24:src/STL.cpp   ****             break;
 141              		.loc 1 24 32 is_stmt 0
 142 00e4 83360501 		ld	a3,16(a0)
  24:src/STL.cpp   ****             break;
 143              		.loc 1 24 24
 144 00e8 03B70701 		ld	a4,16(a5)
 145 00ec 3307D740 		sub	a4,a4,a3
 146 00f0 23B8E700 		sd	a4,16(a5)
  25:src/STL.cpp   ****         }
 147              		.loc 1 25 13 is_stmt 1
 148              	.L9:
  28:src/STL.cpp   ****     }
  29:src/STL.cpp   ****     if(glava == nullptr)glava = nov;
 149              		.loc 1 29 5
 150              		.loc 1 29 8 is_stmt 0
 151 00f4 03B70400 		ld	a4,0(s1)
 152              		.loc 1 29 5
 153 00f8 63040702 		beqz	a4,.L19
  30:src/STL.cpp   ****     else if(cur == nullptr)last->sl = nov;
 154              		.loc 1 30 10 is_stmt 1
 155 00fc 63860702 		beqz	a5,.L20
 156              	.L8:
  31:src/STL.cpp   **** }
 157              		.loc 1 31 1 is_stmt 0
 158 0100 83308101 		ld	ra,24(sp)
 159              		.cfi_remember_state
 160              		.cfi_restore 1
 161 0104 03340101 		ld	s0,16(sp)
 162              		.cfi_restore 8
 163              		.cfi_def_cfa 2, 32
 164 0108 83348100 		ld	s1,8(sp)
 165              		.cfi_restore 9
 166              	.LVL9:
 167 010c 03390100 		ld	s2,0(sp)
 168              		.cfi_restore 18
 169              	.LVL10:
 170 0110 13010102 		addi	sp,sp,32
 171              		.cfi_def_cfa_offset 0
GAS LISTING /tmp/cc1Nns2m.s 			page 5


 172 0114 67800000 		jr	ra
 173              	.LVL11:
 174              	.L18:
 175              		.cfi_restore_state
  21:src/STL.cpp   ****             else last->sl = nov;
 176              		.loc 1 21 32 is_stmt 1 discriminator 1
  21:src/STL.cpp   ****             else last->sl = nov;
 177              		.loc 1 21 38 is_stmt 0 discriminator 1
 178 0118 23B0A400 		sd	a0,0(s1)
 179 011c 6FF05FFC 		j	.L12
 180              	.L19:
  29:src/STL.cpp   ****     else if(cur == nullptr)last->sl = nov;
 181              		.loc 1 29 25 is_stmt 1 discriminator 1
  29:src/STL.cpp   ****     else if(cur == nullptr)last->sl = nov;
 182              		.loc 1 29 31 is_stmt 0 discriminator 1
 183 0120 23B0A400 		sd	a0,0(s1)
 184 0124 6FF0DFFD 		j	.L8
 185              	.L20:
  30:src/STL.cpp   **** }
 186              		.loc 1 30 28 is_stmt 1 discriminator 1
  30:src/STL.cpp   **** }
 187              		.loc 1 30 37 is_stmt 0 discriminator 1
 188 0128 2334A600 		sd	a0,8(a2)
 189              		.loc 1 31 1 discriminator 1
 190 012c 6FF05FFD 		j	.L8
 191              		.cfi_endproc
 192              	.LFE20:
 194              		.align	2
 195              		.globl	_ZN3STL15SmanjiIOslobodiEv
 197              	_ZN3STL15SmanjiIOslobodiEv:
 198              	.LFB21:
  32:src/STL.cpp   **** 
  33:src/STL.cpp   **** void STL::SmanjiIOslobodi() {
 199              		.loc 1 33 29 is_stmt 1
 200              		.cfi_startproc
 201              	.LVL12:
  34:src/STL.cpp   ****     if(glava == nullptr)return;
 202              		.loc 1 34 5
 203              		.loc 1 34 8 is_stmt 0
 204 0130 83370500 		ld	a5,0(a0)
 205              		.loc 1 34 5
 206 0134 63880708 		beqz	a5,.L25
  33:src/STL.cpp   ****     if(glava == nullptr)return;
 207              		.loc 1 33 29
 208 0138 130101FE 		addi	sp,sp,-32
 209              		.cfi_def_cfa_offset 32
 210 013c 233C1100 		sd	ra,24(sp)
 211 0140 23388100 		sd	s0,16(sp)
 212 0144 23349100 		sd	s1,8(sp)
 213 0148 23302101 		sd	s2,0(sp)
 214              		.cfi_offset 1, -8
 215              		.cfi_offset 8, -16
 216              		.cfi_offset 9, -24
 217              		.cfi_offset 18, -32
 218 014c 13040102 		addi	s0,sp,32
 219              		.cfi_def_cfa 8, 0
 220 0150 13090500 		mv	s2,a0
GAS LISTING /tmp/cc1Nns2m.s 			page 6


  35:src/STL.cpp   ****     glava->vreme--;
 221              		.loc 1 35 5 is_stmt 1
 222              		.loc 1 35 12 is_stmt 0
 223 0154 03B70701 		ld	a4,16(a5)
 224              		.loc 1 35 17
 225 0158 1307F7FF 		addi	a4,a4,-1
 226 015c 23B8E700 		sd	a4,16(a5)
 227              	.LVL13:
 228              	.L23:
  36:src/STL.cpp   ****     while(glava != nullptr && glava->vreme == 0){
 229              		.loc 1 36 5 is_stmt 1
 230              		.loc 1 36 28
 231              		.loc 1 36 11 is_stmt 0
 232 0160 83340900 		ld	s1,0(s2)
 233              		.loc 1 36 28
 234 0164 63840404 		beqz	s1,.L21
 235              		.loc 1 36 38 discriminator 1
 236 0168 83B70401 		ld	a5,16(s1)
 237              		.loc 1 36 28 discriminator 1
 238 016c 63900704 		bnez	a5,.L21
 239              	.LBB5:
  37:src/STL.cpp   ****         Elem* izbaci = glava;
 240              		.loc 1 37 9 is_stmt 1
 241              	.LVL14:
  38:src/STL.cpp   ****         glava = glava->sl;
 242              		.loc 1 38 9
 243              		.loc 1 38 24 is_stmt 0
 244 0170 83B78400 		ld	a5,8(s1)
 245              		.loc 1 38 15
 246 0174 2330F900 		sd	a5,0(s2)
  39:src/STL.cpp   ****         izbaci->nit->setUspavan(false);
 247              		.loc 1 39 9 is_stmt 1
 248              		.loc 1 39 17 is_stmt 0
 249 0178 83B70400 		ld	a5,0(s1)
 250              	.LVL15:
 251              	.LBB6:
 252              	.LBB7:
 253              		.file 2 "src/../h/TCB.hpp"
   1:src/../h/TCB.hpp **** #ifndef Tcb_hpp
   2:src/../h/TCB.hpp **** #define Tcb_hpp
   3:src/../h/TCB.hpp **** 
   4:src/../h/TCB.hpp **** #include "../lib/hw.h"
   5:src/../h/TCB.hpp **** #include "Scheduler.hpp"
   6:src/../h/TCB.hpp **** #include "syscall_cpp.hpp"
   7:src/../h/TCB.hpp **** #include "AlokatorMemorije.h"
   8:src/../h/TCB.hpp **** #include "syscall_c.h"
   9:src/../h/TCB.hpp **** 
  10:src/../h/TCB.hpp **** class TCB{
  11:src/../h/TCB.hpp **** public:
  12:src/../h/TCB.hpp ****     using Telo = void(*)(void*);
  13:src/../h/TCB.hpp **** 
  14:src/../h/TCB.hpp **** private:
  15:src/../h/TCB.hpp ****     struct Elem{
  16:src/../h/TCB.hpp ****         thread_t nit;
  17:src/../h/TCB.hpp ****         Elem* sl;
  18:src/../h/TCB.hpp ****     };
  19:src/../h/TCB.hpp ****     struct Kontekst{
GAS LISTING /tmp/cc1Nns2m.s 			page 7


  20:src/../h/TCB.hpp ****         uint64 ra;
  21:src/../h/TCB.hpp ****         uint64 sp;
  22:src/../h/TCB.hpp ****     };
  23:src/../h/TCB.hpp ****     Telo telo;
  24:src/../h/TCB.hpp ****     uint64* stek;
  25:src/../h/TCB.hpp ****     void* argument;
  26:src/../h/TCB.hpp ****     Kontekst kontekst;
  27:src/../h/TCB.hpp ****     uint64 dodeljenoVreme;
  28:src/../h/TCB.hpp ****     bool gotov;
  29:src/../h/TCB.hpp ****     bool blokiran;
  30:src/../h/TCB.hpp ****     bool uspavan;
  31:src/../h/TCB.hpp ****     Elem* glava, *rep;
  32:src/../h/TCB.hpp **** 
  33:src/../h/TCB.hpp ****     friend class RiscV;
  34:src/../h/TCB.hpp ****     friend class Semafor;
  35:src/../h/TCB.hpp ****     friend class STL;
  36:src/../h/TCB.hpp ****     friend class Scheduler;
  37:src/../h/TCB.hpp **** 
  38:src/../h/TCB.hpp ****     static void threadWrapper();
  39:src/../h/TCB.hpp **** 
  40:src/../h/TCB.hpp ****     static void dispatch();
  41:src/../h/TCB.hpp **** 
  42:src/../h/TCB.hpp ****     static void promenaKonteksta(Kontekst* stariKontekst, Kontekst* noviKontekst);
  43:src/../h/TCB.hpp **** 
  44:src/../h/TCB.hpp ****     static uint64 brojacDodeljivanja;
  45:src/../h/TCB.hpp **** 
  46:src/../h/TCB.hpp **** public:
  47:src/../h/TCB.hpp ****     bool isGotov() const {return gotov;};
  48:src/../h/TCB.hpp **** 
  49:src/../h/TCB.hpp ****     void setGotov(bool gotov) {this->gotov = gotov;};
  50:src/../h/TCB.hpp **** 
  51:src/../h/TCB.hpp ****     static TCB* NapraviInstancu(Telo telo, void* arg, uint64* stek);
  52:src/../h/TCB.hpp **** 
  53:src/../h/TCB.hpp ****     bool isBlokiran() const {return blokiran;};
  54:src/../h/TCB.hpp **** 
  55:src/../h/TCB.hpp ****     void setBlokiran(bool blokiran) {this->blokiran = blokiran;};
  56:src/../h/TCB.hpp **** 
  57:src/../h/TCB.hpp ****     bool isUspavan() const {return uspavan;};
  58:src/../h/TCB.hpp **** 
  59:src/../h/TCB.hpp ****     void setUspavan(bool uspavan) {this->uspavan = uspavan;};
 254              		.loc 2 59 36 is_stmt 1
 255              		.loc 2 59 50 is_stmt 0
 256 017c 23890702 		sb	zero,50(a5)
 257              	.LVL16:
 258              	.LBE7:
 259              	.LBE6:
  40:src/STL.cpp   ****         Scheduler::dohvatiInstancu()->Stavi(izbaci->nit);
 260              		.loc 1 40 9 is_stmt 1
 261              		.loc 1 40 44 is_stmt 0
 262 0180 97000000 		call	_ZN9Scheduler15dohvatiInstancuEv@plt
 262      E7800000 
 263              	.LVL17:
 264 0188 83B50400 		ld	a1,0(s1)
 265 018c 97000000 		call	_ZN9Scheduler5StaviEP3TCB@plt
 265      E7800000 
 266              	.LVL18:
  41:src/STL.cpp   ****         AlokatorMemorije::dohvatiInstancu()->mem_free(izbaci);
GAS LISTING /tmp/cc1Nns2m.s 			page 8


 267              		.loc 1 41 9 is_stmt 1
 268              		.loc 1 41 54 is_stmt 0
 269 0194 97000000 		call	_ZN16AlokatorMemorije15dohvatiInstancuEv@plt
 269      E7800000 
 270              	.LVL19:
 271 019c 93850400 		mv	a1,s1
 272 01a0 97000000 		call	_ZN16AlokatorMemorije8mem_freeEPv@plt
 272      E7800000 
 273              	.LVL20:
 274              	.LBE5:
  36:src/STL.cpp   ****         Elem* izbaci = glava;
 275              		.loc 1 36 5
 276 01a8 6FF09FFB 		j	.L23
 277              	.LVL21:
 278              	.L21:
  42:src/STL.cpp   ****     }
  43:src/STL.cpp   **** }
 279              		.loc 1 43 1
 280 01ac 83308101 		ld	ra,24(sp)
 281              		.cfi_restore 1
 282 01b0 03340101 		ld	s0,16(sp)
 283              		.cfi_restore 8
 284              		.cfi_def_cfa 2, 32
 285 01b4 83348100 		ld	s1,8(sp)
 286              		.cfi_restore 9
 287 01b8 03390100 		ld	s2,0(sp)
 288              		.cfi_restore 18
 289              	.LVL22:
 290 01bc 13010102 		addi	sp,sp,32
 291              		.cfi_def_cfa_offset 0
 292 01c0 67800000 		jr	ra
 293              	.LVL23:
 294              	.L25:
 295 01c4 67800000 		ret
 296              		.cfi_endproc
 297              	.LFE21:
 299              		.globl	_ZN3STL3stlE
 300              		.bss
 301              		.align	3
 302              		.set	.LANCHOR0,. + 0
 305              	_ZN3STL3stlE:
 306 0000 00000000 		.zero	8
 306      00000000 
 307              		.text
 308              	.Letext0:
 309              		.file 3 "src/../h/../lib/hw.h"
 310              		.file 4 "src/../h/AlokatorMemorije.h"
 311              		.file 5 "src/../h/Scheduler.hpp"
 312              		.file 6 "src/../h/syscall_c.h"
 313              		.file 7 "src/../h/STL.hpp"
GAS LISTING /tmp/cc1Nns2m.s 			page 9


DEFINED SYMBOLS
                            *ABS*:0000000000000000 STL.cpp
     /tmp/cc1Nns2m.s:9      .text:0000000000000000 _ZN3STL15DohvatiInstancuEv
     /tmp/cc1Nns2m.s:13     .text:0000000000000000 .L0 
     /tmp/cc1Nns2m.s:14     .text:0000000000000000 .L0 
     /tmp/cc1Nns2m.s:15     .text:0000000000000000 .L0 
     /tmp/cc1Nns2m.s:16     .text:0000000000000000 .L0 
     /tmp/cc1Nns2m.s:18     .text:0000000000000008 .L0 
     /tmp/cc1Nns2m.s:20     .text:000000000000000c .L0 
     /tmp/cc1Nns2m.s:21     .text:000000000000000c .L0 
     /tmp/cc1Nns2m.s:25     .text:0000000000000018 .L0 
     /tmp/cc1Nns2m.s:26     .text:000000000000001c .L0 
     /tmp/cc1Nns2m.s:29     .text:0000000000000024 .L0 
     /tmp/cc1Nns2m.s:30     .text:0000000000000024 .L0 
     /tmp/cc1Nns2m.s:32     .text:0000000000000028 .L0 
     /tmp/cc1Nns2m.s:34     .text:0000000000000028 .L0 
     /tmp/cc1Nns2m.s:35     .text:0000000000000028 .L0 
     /tmp/cc1Nns2m.s:41     .text:000000000000003c .L0 
     /tmp/cc1Nns2m.s:43     .text:0000000000000044 .L0 
     /tmp/cc1Nns2m.s:44     .text:0000000000000044 .L0 
     /tmp/cc1Nns2m.s:46     .text:0000000000000048 .L0 
     /tmp/cc1Nns2m.s:47     .text:0000000000000048 .L0 
     /tmp/cc1Nns2m.s:49     .text:0000000000000054 .L0 
     /tmp/cc1Nns2m.s:51     .text:0000000000000058 .L0 
     /tmp/cc1Nns2m.s:52     .text:0000000000000058 .L0 
     /tmp/cc1Nns2m.s:54     .text:000000000000005c .L0 
     /tmp/cc1Nns2m.s:56     .text:0000000000000060 .L0 
     /tmp/cc1Nns2m.s:62     .text:0000000000000060 _ZN3STL5StaviEm
     /tmp/cc1Nns2m.s:65     .text:0000000000000060 .L0 
     /tmp/cc1Nns2m.s:67     .text:0000000000000060 .L0 
     /tmp/cc1Nns2m.s:68     .text:0000000000000064 .L0 
     /tmp/cc1Nns2m.s:73     .text:0000000000000074 .L0 
     /tmp/cc1Nns2m.s:74     .text:0000000000000074 .L0 
     /tmp/cc1Nns2m.s:75     .text:0000000000000074 .L0 
     /tmp/cc1Nns2m.s:76     .text:0000000000000074 .L0 
     /tmp/cc1Nns2m.s:78     .text:0000000000000078 .L0 
     /tmp/cc1Nns2m.s:82     .text:0000000000000080 .L0 
     /tmp/cc1Nns2m.s:83     .text:0000000000000080 .L0 
     /tmp/cc1Nns2m.s:84     .text:0000000000000080 .L0 
     /tmp/cc1Nns2m.s:90     .text:0000000000000094 .L0 
     /tmp/cc1Nns2m.s:91     .text:0000000000000094 .L0 
     /tmp/cc1Nns2m.s:95     .text:00000000000000a4 .L0 
     /tmp/cc1Nns2m.s:96     .text:00000000000000a4 .L0 
     /tmp/cc1Nns2m.s:98     .text:00000000000000a8 .L0 
     /tmp/cc1Nns2m.s:99     .text:00000000000000a8 .L0 
     /tmp/cc1Nns2m.s:101    .text:00000000000000ac .L0 
     /tmp/cc1Nns2m.s:102    .text:00000000000000ac .L0 
     /tmp/cc1Nns2m.s:105    .text:00000000000000b0 .L0 
     /tmp/cc1Nns2m.s:109    .text:00000000000000b4 .L0 
     /tmp/cc1Nns2m.s:111    .text:00000000000000b8 .L0 
     /tmp/cc1Nns2m.s:112    .text:00000000000000b8 .L0 
     /tmp/cc1Nns2m.s:114    .text:00000000000000bc .L0 
     /tmp/cc1Nns2m.s:116    .text:00000000000000c0 .L0 
     /tmp/cc1Nns2m.s:118    .text:00000000000000c4 .L0 
     /tmp/cc1Nns2m.s:119    .text:00000000000000c4 .L0 
     /tmp/cc1Nns2m.s:123    .text:00000000000000cc .L0 
     /tmp/cc1Nns2m.s:124    .text:00000000000000cc .L0 
GAS LISTING /tmp/cc1Nns2m.s 			page 10


     /tmp/cc1Nns2m.s:126    .text:00000000000000d0 .L0 
     /tmp/cc1Nns2m.s:129    .text:00000000000000d4 .L0 
     /tmp/cc1Nns2m.s:132    .text:00000000000000d8 .L0 
     /tmp/cc1Nns2m.s:134    .text:00000000000000dc .L0 
     /tmp/cc1Nns2m.s:135    .text:00000000000000dc .L0 
     /tmp/cc1Nns2m.s:138    .text:00000000000000e0 .L0 
     /tmp/cc1Nns2m.s:139    .text:00000000000000e0 .L0 
     /tmp/cc1Nns2m.s:141    .text:00000000000000e4 .L0 
     /tmp/cc1Nns2m.s:142    .text:00000000000000e4 .L0 
     /tmp/cc1Nns2m.s:144    .text:00000000000000e8 .L0 
     /tmp/cc1Nns2m.s:149    .text:00000000000000f4 .L0 
     /tmp/cc1Nns2m.s:150    .text:00000000000000f4 .L0 
     /tmp/cc1Nns2m.s:151    .text:00000000000000f4 .L0 
     /tmp/cc1Nns2m.s:153    .text:00000000000000f8 .L0 
     /tmp/cc1Nns2m.s:155    .text:00000000000000fc .L0 
     /tmp/cc1Nns2m.s:158    .text:0000000000000100 .L0 
     /tmp/cc1Nns2m.s:159    .text:0000000000000104 .L0 
     /tmp/cc1Nns2m.s:160    .text:0000000000000104 .L0 
     /tmp/cc1Nns2m.s:162    .text:0000000000000108 .L0 
     /tmp/cc1Nns2m.s:163    .text:0000000000000108 .L0 
     /tmp/cc1Nns2m.s:165    .text:000000000000010c .L0 
     /tmp/cc1Nns2m.s:168    .text:0000000000000110 .L0 
     /tmp/cc1Nns2m.s:171    .text:0000000000000114 .L0 
     /tmp/cc1Nns2m.s:175    .text:0000000000000118 .L0 
     /tmp/cc1Nns2m.s:177    .text:0000000000000118 .L0 
     /tmp/cc1Nns2m.s:178    .text:0000000000000118 .L0 
     /tmp/cc1Nns2m.s:182    .text:0000000000000120 .L0 
     /tmp/cc1Nns2m.s:183    .text:0000000000000120 .L0 
     /tmp/cc1Nns2m.s:187    .text:0000000000000128 .L0 
     /tmp/cc1Nns2m.s:188    .text:0000000000000128 .L0 
     /tmp/cc1Nns2m.s:190    .text:000000000000012c .L0 
     /tmp/cc1Nns2m.s:191    .text:0000000000000130 .L0 
     /tmp/cc1Nns2m.s:197    .text:0000000000000130 _ZN3STL15SmanjiIOslobodiEv
     /tmp/cc1Nns2m.s:200    .text:0000000000000130 .L0 
     /tmp/cc1Nns2m.s:202    .text:0000000000000130 .L0 
     /tmp/cc1Nns2m.s:203    .text:0000000000000130 .L0 
     /tmp/cc1Nns2m.s:204    .text:0000000000000130 .L0 
     /tmp/cc1Nns2m.s:206    .text:0000000000000134 .L0 
     /tmp/cc1Nns2m.s:208    .text:0000000000000138 .L0 
     /tmp/cc1Nns2m.s:209    .text:000000000000013c .L0 
     /tmp/cc1Nns2m.s:214    .text:000000000000014c .L0 
     /tmp/cc1Nns2m.s:215    .text:000000000000014c .L0 
     /tmp/cc1Nns2m.s:216    .text:000000000000014c .L0 
     /tmp/cc1Nns2m.s:217    .text:000000000000014c .L0 
     /tmp/cc1Nns2m.s:219    .text:0000000000000150 .L0 
     /tmp/cc1Nns2m.s:222    .text:0000000000000154 .L0 
     /tmp/cc1Nns2m.s:223    .text:0000000000000154 .L0 
     /tmp/cc1Nns2m.s:225    .text:0000000000000158 .L0 
     /tmp/cc1Nns2m.s:230    .text:0000000000000160 .L0 
     /tmp/cc1Nns2m.s:231    .text:0000000000000160 .L0 
     /tmp/cc1Nns2m.s:232    .text:0000000000000160 .L0 
     /tmp/cc1Nns2m.s:234    .text:0000000000000164 .L0 
     /tmp/cc1Nns2m.s:236    .text:0000000000000168 .L0 
     /tmp/cc1Nns2m.s:238    .text:000000000000016c .L0 
     /tmp/cc1Nns2m.s:242    .text:0000000000000170 .L0 
     /tmp/cc1Nns2m.s:243    .text:0000000000000170 .L0 
     /tmp/cc1Nns2m.s:244    .text:0000000000000170 .L0 
GAS LISTING /tmp/cc1Nns2m.s 			page 11


     /tmp/cc1Nns2m.s:246    .text:0000000000000174 .L0 
     /tmp/cc1Nns2m.s:248    .text:0000000000000178 .L0 
     /tmp/cc1Nns2m.s:249    .text:0000000000000178 .L0 
     /tmp/cc1Nns2m.s:255    .text:000000000000017c .L0 
     /tmp/cc1Nns2m.s:256    .text:000000000000017c .L0 
     /tmp/cc1Nns2m.s:261    .text:0000000000000180 .L0 
     /tmp/cc1Nns2m.s:262    .text:0000000000000180 .L0 
     /tmp/cc1Nns2m.s:268    .text:0000000000000194 .L0 
     /tmp/cc1Nns2m.s:269    .text:0000000000000194 .L0 
     /tmp/cc1Nns2m.s:276    .text:00000000000001a8 .L0 
     /tmp/cc1Nns2m.s:280    .text:00000000000001ac .L0 
     /tmp/cc1Nns2m.s:281    .text:00000000000001b0 .L0 
     /tmp/cc1Nns2m.s:283    .text:00000000000001b4 .L0 
     /tmp/cc1Nns2m.s:284    .text:00000000000001b4 .L0 
     /tmp/cc1Nns2m.s:286    .text:00000000000001b8 .L0 
     /tmp/cc1Nns2m.s:288    .text:00000000000001bc .L0 
     /tmp/cc1Nns2m.s:291    .text:00000000000001c0 .L0 
     /tmp/cc1Nns2m.s:296    .text:00000000000001c8 .L0 
     /tmp/cc1Nns2m.s:305    .bss:0000000000000000 _ZN3STL3stlE
     /tmp/cc1Nns2m.s:302    .bss:0000000000000000 .LANCHOR0
     /tmp/cc1Nns2m.s:314    .text:00000000000001c8 .L0 
     /tmp/cc1Nns2m.s:16     .text:0000000000000000 .L0 
     /tmp/cc1Nns2m.s:21     .text:000000000000000c .L0 
     /tmp/cc1Nns2m.s:41     .text:000000000000003c .L0 
     /tmp/cc1Nns2m.s:47     .text:0000000000000048 .L0 
     /tmp/cc1Nns2m.s:91     .text:0000000000000094 .L0 
     /tmp/cc1Nns2m.s:23     .text:0000000000000018 .L7
     /tmp/cc1Nns2m.s:148    .text:00000000000000f4 .L9
     /tmp/cc1Nns2m.s:130    .text:00000000000000d8 .L17
     /tmp/cc1Nns2m.s:107    .text:00000000000000b4 .L13
     /tmp/cc1Nns2m.s:174    .text:0000000000000118 .L18
     /tmp/cc1Nns2m.s:180    .text:0000000000000120 .L19
     /tmp/cc1Nns2m.s:185    .text:0000000000000128 .L20
     /tmp/cc1Nns2m.s:136    .text:00000000000000e0 .L12
     /tmp/cc1Nns2m.s:156    .text:0000000000000100 .L8
     /tmp/cc1Nns2m.s:294    .text:00000000000001c4 .L25
     /tmp/cc1Nns2m.s:278    .text:00000000000001ac .L21
     /tmp/cc1Nns2m.s:228    .text:0000000000000160 .L23
     /tmp/cc1Nns2m.s:1407   .debug_abbrev:0000000000000000 .Ldebug_abbrev0
     /tmp/cc1Nns2m.s:2601   .debug_str:00000000000005a8 .LASF101
     /tmp/cc1Nns2m.s:2625   .debug_str:000000000000072e .LASF102
     /tmp/cc1Nns2m.s:2437   .debug_str:000000000000008a .LASF103
     /tmp/cc1Nns2m.s:5      .text:0000000000000000 .Ltext0
     /tmp/cc1Nns2m.s:308    .text:00000000000001c8 .Letext0
     /tmp/cc1Nns2m.s:2413   .debug_line:0000000000000000 .Ldebug_line0
     /tmp/cc1Nns2m.s:2527   .debug_str:0000000000000355 .LASF0
     /tmp/cc1Nns2m.s:2551   .debug_str:000000000000043c .LASF1
     /tmp/cc1Nns2m.s:2515   .debug_str:00000000000002e1 .LASF2
     /tmp/cc1Nns2m.s:2491   .debug_str:000000000000020c .LASF4
     /tmp/cc1Nns2m.s:2585   .debug_str:0000000000000530 .LASF3
     /tmp/cc1Nns2m.s:2435   .debug_str:0000000000000083 .LASF5
     /tmp/cc1Nns2m.s:2461   .debug_str:0000000000000150 .LASF6
     /tmp/cc1Nns2m.s:2555   .debug_str:0000000000000456 .LASF7
     /tmp/cc1Nns2m.s:2525   .debug_str:0000000000000342 .LASF8
     /tmp/cc1Nns2m.s:2611   .debug_str:00000000000006b5 .LASF9
     /tmp/cc1Nns2m.s:2479   .debug_str:00000000000001b8 .LASF10
     /tmp/cc1Nns2m.s:2565   .debug_str:000000000000049f .LASF11
GAS LISTING /tmp/cc1Nns2m.s 			page 12


     /tmp/cc1Nns2m.s:2603   .debug_str:000000000000066c .LASF12
     /tmp/cc1Nns2m.s:2503   .debug_str:0000000000000283 .LASF13
     /tmp/cc1Nns2m.s:2421   .debug_str:0000000000000036 .LASF14
     /tmp/cc1Nns2m.s:2445   .debug_str:00000000000000cf .LASF15
     /tmp/cc1Nns2m.s:2577   .debug_str:00000000000004de .LASF16
     /tmp/cc1Nns2m.s:2457   .debug_str:0000000000000128 .LASF17
     /tmp/cc1Nns2m.s:2455   .debug_str:0000000000000117 .LASF20
     /tmp/cc1Nns2m.s:2617   .debug_str:00000000000006e7 .LASF28
     /tmp/cc1Nns2m.s:2619   .debug_str:00000000000006f8 .LASF18
     /tmp/cc1Nns2m.s:2597   .debug_str:0000000000000588 .LASF19
     /tmp/cc1Nns2m.s:2453   .debug_str:000000000000010e .LASF30
     /tmp/cc1Nns2m.s:2427   .debug_str:000000000000005c .LASF39
     /tmp/cc1Nns2m.s:2501   .debug_str:000000000000024f .LASF41
     /tmp/cc1Nns2m.s:2493   .debug_str:0000000000000213 .LASF21
     /tmp/cc1Nns2m.s:2613   .debug_str:00000000000006c5 .LASF22
     /tmp/cc1Nns2m.s:2519   .debug_str:0000000000000306 .LASF23
     /tmp/cc1Nns2m.s:2533   .debug_str:0000000000000374 .LASF24
     /tmp/cc1Nns2m.s:2605   .debug_str:000000000000067b .LASF36
     /tmp/cc1Nns2m.s:2547   .debug_str:000000000000040d .LASF37
     /tmp/cc1Nns2m.s:2587   .debug_str:0000000000000542 .LASF25
     /tmp/cc1Nns2m.s:2543   .debug_str:00000000000003e6 .LASF26
     /tmp/cc1Nns2m.s:2569   .debug_str:00000000000004be .LASF43
     /tmp/cc1Nns2m.s:2541   .debug_str:00000000000003c4 .LASF45
     /tmp/cc1Nns2m.s:2561   .debug_str:0000000000000485 .LASF27
     /tmp/cc1Nns2m.s:2609   .debug_str:00000000000006b0 .LASF29
     /tmp/cc1Nns2m.s:2595   .debug_str:000000000000057e .LASF31
     /tmp/cc1Nns2m.s:2425   .debug_str:000000000000004e .LASF32
     /tmp/cc1Nns2m.s:2511   .debug_str:00000000000002c1 .LASF33
     /tmp/cc1Nns2m.s:2473   .debug_str:0000000000000185 .LASF34
     /tmp/cc1Nns2m.s:2505   .debug_str:0000000000000293 .LASF35
     /tmp/cc1Nns2m.s:2521   .debug_str:0000000000000310 .LASF38
     /tmp/cc1Nns2m.s:2489   .debug_str:00000000000001f9 .LASF40
     /tmp/cc1Nns2m.s:2593   .debug_str:0000000000000559 .LASF42
     /tmp/cc1Nns2m.s:2615   .debug_str:00000000000006e1 .LASF44
     /tmp/cc1Nns2m.s:2599   .debug_str:000000000000058e .LASF46
     /tmp/cc1Nns2m.s:2443   .debug_str:00000000000000ca .LASF47
     /tmp/cc1Nns2m.s:2507   .debug_str:00000000000002a7 .LASF48
     /tmp/cc1Nns2m.s:2509   .debug_str:00000000000002bc .LASF49
     /tmp/cc1Nns2m.s:2559   .debug_str:000000000000047c .LASF50
     /tmp/cc1Nns2m.s:2419   .debug_str:0000000000000031 .LASF104
     /tmp/cc1Nns2m.s:2589   .debug_str:000000000000054c .LASF51
     /tmp/cc1Nns2m.s:2623   .debug_str:0000000000000729 .LASF52
     /tmp/cc1Nns2m.s:2539   .debug_str:00000000000003bb .LASF53
     /tmp/cc1Nns2m.s:2529   .debug_str:0000000000000362 .LASF54
     /tmp/cc1Nns2m.s:2439   .debug_str:00000000000000aa .LASF55
     /tmp/cc1Nns2m.s:2549   .debug_str:0000000000000436 .LASF56
     /tmp/cc1Nns2m.s:2431   .debug_str:0000000000000067 .LASF57
     /tmp/cc1Nns2m.s:2591   .debug_str:0000000000000551 .LASF58
     /tmp/cc1Nns2m.s:2495   .debug_str:000000000000022d .LASF59
     /tmp/cc1Nns2m.s:2485   .debug_str:00000000000001db .LASF61
     /tmp/cc1Nns2m.s:2531   .debug_str:000000000000036b .LASF60
     /tmp/cc1Nns2m.s:2471   .debug_str:0000000000000172 .LASF62
     /tmp/cc1Nns2m.s:2441   .debug_str:00000000000000b9 .LASF105
     /tmp/cc1Nns2m.s:2621   .debug_str:00000000000006fd .LASF106
     /tmp/cc1Nns2m.s:2417   .debug_str:000000000000001e .LASF63
     /tmp/cc1Nns2m.s:2423   .debug_str:0000000000000046 .LASF64
     /tmp/cc1Nns2m.s:2629   .debug_str:0000000000000747 .LASF65
GAS LISTING /tmp/cc1Nns2m.s 			page 13


     /tmp/cc1Nns2m.s:2475   .debug_str:0000000000000199 .LASF66
     /tmp/cc1Nns2m.s:2433   .debug_str:0000000000000070 .LASF67
     /tmp/cc1Nns2m.s:2535   .debug_str:0000000000000390 .LASF68
     /tmp/cc1Nns2m.s:2607   .debug_str:000000000000068b .LASF69
     /tmp/cc1Nns2m.s:2499   .debug_str:0000000000000244 .LASF70
     /tmp/cc1Nns2m.s:2517   .debug_str:00000000000002ef .LASF71
     /tmp/cc1Nns2m.s:2447   .debug_str:00000000000000db .LASF72
     /tmp/cc1Nns2m.s:2449   .debug_str:00000000000000e7 .LASF73
     /tmp/cc1Nns2m.s:2481   .debug_str:00000000000001c6 .LASF74
     /tmp/cc1Nns2m.s:2579   .debug_str:00000000000004f4 .LASF75
     /tmp/cc1Nns2m.s:2483   .debug_str:00000000000001d0 .LASF76
     /tmp/cc1Nns2m.s:2477   .debug_str:00000000000001a2 .LASF77
     /tmp/cc1Nns2m.s:2459   .debug_str:000000000000013e .LASF78
     /tmp/cc1Nns2m.s:2415   .debug_str:0000000000000000 .LASF79
     /tmp/cc1Nns2m.s:2465   .debug_str:0000000000000160 .LASF80
     /tmp/cc1Nns2m.s:2523   .debug_str:0000000000000331 .LASF81
     /tmp/cc1Nns2m.s:2469   .debug_str:000000000000016a .LASF107
     /tmp/cc1Nns2m.s:2467   .debug_str:0000000000000165 .LASF82
     /tmp/cc1Nns2m.s:2573   .debug_str:00000000000004cd .LASF83
     /tmp/cc1Nns2m.s:2463   .debug_str:0000000000000157 .LASF84
     /tmp/cc1Nns2m.s:2557   .debug_str:0000000000000469 .LASF85
     /tmp/cc1Nns2m.s:2497   .debug_str:000000000000023b .LASF86
     /tmp/cc1Nns2m.s:2487   .debug_str:00000000000001f4 .LASF87
     /tmp/cc1Nns2m.s:2429   .debug_str:0000000000000062 .LASF88
     /tmp/cc1Nns2m.s:2571   .debug_str:00000000000004c7 .LASF89
     /tmp/cc1Nns2m.s:2583   .debug_str:0000000000000524 .LASF90
     /tmp/cc1Nns2m.s:2513   .debug_str:00000000000002d3 .LASF91
     /tmp/cc1Nns2m.s:2631   .debug_str:000000000000075a .LASF92
     /tmp/cc1Nns2m.s:2451   .debug_str:00000000000000fe .LASF93
     /tmp/cc1Nns2m.s:2537   .debug_str:00000000000003a0 .LASF94
     /tmp/cc1Nns2m.s:2567   .debug_str:00000000000004ae .LASF95
     /tmp/cc1Nns2m.s:2563   .debug_str:000000000000048f .LASF96
     /tmp/cc1Nns2m.s:2581   .debug_str:0000000000000509 .LASF97
     /tmp/cc1Nns2m.s:2627   .debug_str:000000000000073a .LASF108
     /tmp/cc1Nns2m.s:198    .text:0000000000000130 .LFB21
     /tmp/cc1Nns2m.s:297    .text:00000000000001c8 .LFE21
     /tmp/cc1Nns2m.s:2575   .debug_str:00000000000004d9 .LASF99
     /tmp/cc1Nns2m.s:2276   .debug_loc:0000000000000000 .LLST4
     /tmp/cc1Nns2m.s:239    .text:0000000000000170 .LBB5
     /tmp/cc1Nns2m.s:274    .text:00000000000001a8 .LBE5
     /tmp/cc1Nns2m.s:2553   .debug_str:000000000000044f .LASF98
     /tmp/cc1Nns2m.s:2298   .debug_loc:000000000000005f .LLST5
     /tmp/cc1Nns2m.s:251    .text:000000000000017c .LBB6
     /tmp/cc1Nns2m.s:259    .text:0000000000000180 .LBE6
     /tmp/cc1Nns2m.s:2305   .debug_loc:0000000000000082 .LLST6
     /tmp/cc1Nns2m.s:2313   .debug_loc:00000000000000a6 .LLST7
     /tmp/cc1Nns2m.s:263    .text:0000000000000188 .LVL17
     /tmp/cc1Nns2m.s:266    .text:0000000000000194 .LVL18
     /tmp/cc1Nns2m.s:270    .text:000000000000019c .LVL19
     /tmp/cc1Nns2m.s:273    .text:00000000000001a8 .LVL20
     /tmp/cc1Nns2m.s:63     .text:0000000000000060 .LFB20
     /tmp/cc1Nns2m.s:192    .text:0000000000000130 .LFE20
     /tmp/cc1Nns2m.s:2320   .debug_loc:00000000000000c9 .LLST0
     /tmp/cc1Nns2m.s:2342   .debug_loc:0000000000000128 .LLST1
     /tmp/cc1Nns2m.s:2364   .debug_loc:0000000000000187 .LLST2
     /tmp/cc1Nns2m.s:2545   .debug_str:0000000000000408 .LASF100
     /tmp/cc1Nns2m.s:2380   .debug_loc:00000000000001d1 .LLST3
GAS LISTING /tmp/cc1Nns2m.s 			page 14


     /tmp/cc1Nns2m.s:85     .text:0000000000000088 .LVL3
     /tmp/cc1Nns2m.s:88     .text:0000000000000094 .LVL4
     /tmp/cc1Nns2m.s:10     .text:0000000000000000 .LFB19
     /tmp/cc1Nns2m.s:57     .text:0000000000000060 .LFE19
     /tmp/cc1Nns2m.s:36     .text:0000000000000030 .LVL0
     /tmp/cc1Nns2m.s:39     .text:000000000000003c .LVL1
     /tmp/cc1Nns2m.s:201    .text:0000000000000130 .LVL12
     /tmp/cc1Nns2m.s:227    .text:0000000000000160 .LVL13
     /tmp/cc1Nns2m.s:289    .text:00000000000001bc .LVL22
     /tmp/cc1Nns2m.s:293    .text:00000000000001c4 .LVL23
     /tmp/cc1Nns2m.s:241    .text:0000000000000170 .LVL14
     /tmp/cc1Nns2m.s:277    .text:00000000000001ac .LVL21
     /tmp/cc1Nns2m.s:250    .text:000000000000017c .LVL15
     /tmp/cc1Nns2m.s:257    .text:0000000000000180 .LVL16
     /tmp/cc1Nns2m.s:66     .text:0000000000000060 .LVL2
     /tmp/cc1Nns2m.s:166    .text:000000000000010c .LVL9
     /tmp/cc1Nns2m.s:173    .text:0000000000000118 .LVL11
     /tmp/cc1Nns2m.s:169    .text:0000000000000110 .LVL10
     /tmp/cc1Nns2m.s:103    .text:00000000000000b0 .LVL5
     /tmp/cc1Nns2m.s:122    .text:00000000000000cc .LVL7
     /tmp/cc1Nns2m.s:127    .text:00000000000000d4 .LVL8
     /tmp/cc1Nns2m.s:106    .text:00000000000000b4 .LVL6
     /tmp/cc1Nns2m.s:315    .debug_info:0000000000000000 .Ldebug_info0

UNDEFINED SYMBOLS
_ZN16AlokatorMemorije15dohvatiInstancuEv
_ZN16AlokatorMemorije9mem_allocEm
_ZN3TCB7runningE
_ZN9Scheduler15dohvatiInstancuEv
_ZN9Scheduler5StaviEP3TCB
_ZN16AlokatorMemorije8mem_freeEPv
