GAS LISTING /tmp/ccDAqeUt.s 			page 1


   1              		.file	"syscall_c.cpp"
   2              		.option pic
   3              		.option norelax
   4              		.text
   5              	.Ltext0:
   6              		.align	2
   7              		.globl	_Z9mem_allocm
   9              	_Z9mem_allocm:
  10              	.LFB0:
  11              		.file 1 "src/syscall_c.cpp"
   1:src/syscall_c.cpp **** #include "../lib/hw.h"
   2:src/syscall_c.cpp **** #include "../h/syscall_c.h"
   3:src/syscall_c.cpp **** 
   4:src/syscall_c.cpp **** void* mem_alloc(size_t size){
  12              		.loc 1 4 29
  13              		.cfi_startproc
  14              	.LVL0:
  15 0000 130101FF 		addi	sp,sp,-16
  16              		.cfi_def_cfa_offset 16
  17 0004 23348100 		sd	s0,8(sp)
  18              		.cfi_offset 8, -8
  19 0008 13040101 		addi	s0,sp,16
  20              		.cfi_def_cfa 8, 0
   5:src/syscall_c.cpp ****     size_t sz = size;
  21              		.loc 1 5 5
  22              	.LVL1:
   6:src/syscall_c.cpp ****     __asm__ volatile ("mv a1, %[vel]" : : [vel]"r" (sz));
  23              		.loc 1 6 5
  24              		.loc 1 6 57 is_stmt 0
  25              	#APP
  26              	# 6 "src/syscall_c.cpp" 1
   7              	    __asm__ volatile ("li a0, 0x01");
  27              		mv a1, a0
  28              	# 0 "" 2
  29              		.loc 1 7 5 is_stmt 1
  30              		.loc 1 7 37 is_stmt 0
  31              	# 7 "src/syscall_c.cpp" 1
   8              	    __asm__ volatile ("ecall");
  32              		li a0, 0x01
  33              	# 0 "" 2
  34              		.loc 1 8 5 is_stmt 1
  35              		.loc 1 8 31 is_stmt 0
  36              	# 8 "src/syscall_c.cpp" 1
   9              	    uint64 x;
  37              		ecall
  38              	# 0 "" 2
  39              		.loc 1 9 5 is_stmt 1
  10:src/syscall_c.cpp ****     __asm__ volatile ("mv %[povratna], a0" : [povratna]"=r" (x));
  40              		.loc 1 10 5
  41              		.loc 1 10 65 is_stmt 0
  42              	# 10 "src/syscall_c.cpp" 1
  11              	    return (void*)x;
  43              		mv a0, a0
  44              	# 0 "" 2
  45              	.LVL2:
  46              		.loc 1 11 5 is_stmt 1
  12:src/syscall_c.cpp **** }
GAS LISTING /tmp/ccDAqeUt.s 			page 2


  47              		.loc 1 12 1 is_stmt 0
  48              	#NO_APP
  49 001c 03348100 		ld	s0,8(sp)
  50              		.cfi_restore 8
  51              		.cfi_def_cfa 2, 16
  52 0020 13010101 		addi	sp,sp,16
  53              		.cfi_def_cfa_offset 0
  54 0024 67800000 		jr	ra
  55              		.cfi_endproc
  56              	.LFE0:
  58              		.align	2
  59              		.globl	_Z8mem_freePv
  61              	_Z8mem_freePv:
  62              	.LFB1:
  13:src/syscall_c.cpp **** 
  14:src/syscall_c.cpp **** int mem_free (void* pocAdr){
  63              		.loc 1 14 28 is_stmt 1
  64              		.cfi_startproc
  65              	.LVL3:
  66 0028 130101FF 		addi	sp,sp,-16
  67              		.cfi_def_cfa_offset 16
  68 002c 23348100 		sd	s0,8(sp)
  69              		.cfi_offset 8, -8
  70 0030 13040101 		addi	s0,sp,16
  71              		.cfi_def_cfa 8, 0
  15:src/syscall_c.cpp ****     void* adresa = pocAdr;
  72              		.loc 1 15 5
  73              	.LVL4:
  16:src/syscall_c.cpp ****     __asm__ volatile ("mv a1, %[adr]" : : [adr]"r" (adresa));
  74              		.loc 1 16 5
  75              		.loc 1 16 61 is_stmt 0
  76              	#APP
  77              	# 16 "src/syscall_c.cpp" 1
  17              	    __asm__ volatile ("li a0, 0x02");
  78              		mv a1, a0
  79              	# 0 "" 2
  80              		.loc 1 17 5 is_stmt 1
  81              		.loc 1 17 37 is_stmt 0
  82              	# 17 "src/syscall_c.cpp" 1
  18              	    __asm__ volatile ("ecall");
  83              		li a0, 0x02
  84              	# 0 "" 2
  85              		.loc 1 18 5 is_stmt 1
  86              		.loc 1 18 31 is_stmt 0
  87              	# 18 "src/syscall_c.cpp" 1
  19              	    int ret;
  88              		ecall
  89              	# 0 "" 2
  90              		.loc 1 19 5 is_stmt 1
  20:src/syscall_c.cpp ****     __asm__ volatile ("mv %[povratna], a0" : [povratna]"=r" (ret));
  91              		.loc 1 20 5
  92              		.loc 1 20 67 is_stmt 0
  93              	# 20 "src/syscall_c.cpp" 1
  21              	    return ret;
  94              		mv a0, a0
  95              	# 0 "" 2
  96              	.LVL5:
GAS LISTING /tmp/ccDAqeUt.s 			page 3


  97              		.loc 1 21 5 is_stmt 1
  22:src/syscall_c.cpp **** }
  98              		.loc 1 22 1 is_stmt 0
  99              	#NO_APP
 100 0044 1B050500 		sext.w	a0,a0
 101 0048 03348100 		ld	s0,8(sp)
 102              		.cfi_restore 8
 103              		.cfi_def_cfa 2, 16
 104 004c 13010101 		addi	sp,sp,16
 105              		.cfi_def_cfa_offset 0
 106 0050 67800000 		jr	ra
 107              		.cfi_endproc
 108              	.LFE1:
 110              		.align	2
 111              		.globl	_Z13thread_createPP3TCBPFvPvES2_
 113              	_Z13thread_createPP3TCBPFvPvES2_:
 114              	.LFB2:
  23:src/syscall_c.cpp **** 
  24:src/syscall_c.cpp **** int thread_create(thread_t* handle, void(*start_routine)(void*), void* arg){
 115              		.loc 1 24 76 is_stmt 1
 116              		.cfi_startproc
 117              	.LVL6:
 118 0054 130101FD 		addi	sp,sp,-48
 119              		.cfi_def_cfa_offset 48
 120 0058 23341102 		sd	ra,40(sp)
 121 005c 23308102 		sd	s0,32(sp)
 122 0060 233C9100 		sd	s1,24(sp)
 123 0064 23382101 		sd	s2,16(sp)
 124 0068 23343101 		sd	s3,8(sp)
 125              		.cfi_offset 1, -8
 126              		.cfi_offset 8, -16
 127              		.cfi_offset 9, -24
 128              		.cfi_offset 18, -32
 129              		.cfi_offset 19, -40
 130 006c 13040103 		addi	s0,sp,48
 131              		.cfi_def_cfa 8, 0
 132 0070 13090500 		mv	s2,a0
 133 0074 93840500 		mv	s1,a1
 134 0078 93090600 		mv	s3,a2
  25:src/syscall_c.cpp ****     thread_t* rucka = handle;
 135              		.loc 1 25 5
 136              	.LVL7:
  26:src/syscall_c.cpp ****     void(*poc_rut)(void*) = start_routine;
 137              		.loc 1 26 5
  27:src/syscall_c.cpp ****     void* argument = arg;
 138              		.loc 1 27 5
  28:src/syscall_c.cpp ****     void* stek;
 139              		.loc 1 28 5
  29:src/syscall_c.cpp ****     if(start_routine != nullptr){
 140              		.loc 1 29 5
 141 007c 63860504 		beqz	a1,.L7
  30:src/syscall_c.cpp ****         stek = (uint64*)mem_alloc(DEFAULT_STACK_SIZE * sizeof(uint64));
 142              		.loc 1 30 9
 143              		.loc 1 30 34 is_stmt 0
 144 0080 37850000 		li	a0,32768
 145              	.LVL8:
 146 0084 97000000 		call	_Z9mem_allocm
GAS LISTING /tmp/ccDAqeUt.s 			page 4


 146      E7800000 
 147              	.LVL9:
 148              	.L6:
  31:src/syscall_c.cpp ****     } else stek = nullptr;
  32:src/syscall_c.cpp ****     __asm__ volatile ("mv a4, %[stek]" : : [stek]"r" (stek));
 149              		.loc 1 32 5 is_stmt 1
 150              		.loc 1 32 61 is_stmt 0
 151              	#APP
 152              	# 32 "src/syscall_c.cpp" 1
  33              	    __asm__ volatile ("mv a3, %[arg]" : : [arg]"r" (argument));
 153              		mv a4, a0
 154              	# 0 "" 2
 155              		.loc 1 33 5 is_stmt 1
 156              		.loc 1 33 63 is_stmt 0
 157              	# 33 "src/syscall_c.cpp" 1
  34              	    __asm__ volatile ("mv a2, %[poc_rut]" : : [poc_rut]"r" (poc_rut));
 158              		mv a3, s3
 159              	# 0 "" 2
 160              		.loc 1 34 5 is_stmt 1
 161              		.loc 1 34 70 is_stmt 0
 162              	# 34 "src/syscall_c.cpp" 1
  35              	    __asm__ volatile ("mv a1, %[adr]" : : [adr]"r" (rucka));
 163              		mv a2, s1
 164              	# 0 "" 2
 165              		.loc 1 35 5 is_stmt 1
 166              		.loc 1 35 60 is_stmt 0
 167              	# 35 "src/syscall_c.cpp" 1
  36              	    __asm__ volatile ("li a0, 0x11");
 168              		mv a1, s2
 169              	# 0 "" 2
 170              		.loc 1 36 5 is_stmt 1
 171              		.loc 1 36 37 is_stmt 0
 172              	# 36 "src/syscall_c.cpp" 1
  37              	    __asm__ volatile ("ecall");
 173              		li a0, 0x11
 174              	# 0 "" 2
 175              		.loc 1 37 5 is_stmt 1
 176              		.loc 1 37 31 is_stmt 0
 177              	# 37 "src/syscall_c.cpp" 1
  38              	    int vrati;
 178              		ecall
 179              	# 0 "" 2
 180              		.loc 1 38 5 is_stmt 1
  39:src/syscall_c.cpp ****     __asm__ volatile ("mv %[povratna], a0" : [povratna]"=r" (vrati));
 181              		.loc 1 39 5
 182              		.loc 1 39 69 is_stmt 0
 183              	# 39 "src/syscall_c.cpp" 1
  40              	    return vrati;
 184              		mv a0, a0
 185              	# 0 "" 2
 186              	.LVL10:
 187              		.loc 1 40 5 is_stmt 1
  41:src/syscall_c.cpp **** }
 188              		.loc 1 41 1 is_stmt 0
 189              	#NO_APP
 190 00a8 1B050500 		sext.w	a0,a0
 191 00ac 83308102 		ld	ra,40(sp)
GAS LISTING /tmp/ccDAqeUt.s 			page 5


 192              		.cfi_remember_state
 193              		.cfi_restore 1
 194 00b0 03340102 		ld	s0,32(sp)
 195              		.cfi_restore 8
 196              		.cfi_def_cfa 2, 48
 197 00b4 83348101 		ld	s1,24(sp)
 198              		.cfi_restore 9
 199              	.LVL11:
 200 00b8 03390101 		ld	s2,16(sp)
 201              		.cfi_restore 18
 202              	.LVL12:
 203 00bc 83398100 		ld	s3,8(sp)
 204              		.cfi_restore 19
 205              	.LVL13:
 206 00c0 13010103 		addi	sp,sp,48
 207              		.cfi_def_cfa_offset 0
 208 00c4 67800000 		jr	ra
 209              	.LVL14:
 210              	.L7:
 211              		.cfi_restore_state
  31:src/syscall_c.cpp ****     } else stek = nullptr;
 212              		.loc 1 31 17
 213 00c8 13050000 		li	a0,0
 214              	.LVL15:
 215 00cc 6FF01FFC 		j	.L6
 216              		.cfi_endproc
 217              	.LFE2:
 219              		.align	2
 220              		.globl	_Z17thread_create_cppPP3TCBPFvPvES2_
 222              	_Z17thread_create_cppPP3TCBPFvPvES2_:
 223              	.LFB3:
  42:src/syscall_c.cpp **** 
  43:src/syscall_c.cpp **** int thread_create_cpp(thread_t* handle, void(*start_routine)(void*), void* arg){
 224              		.loc 1 43 80 is_stmt 1
 225              		.cfi_startproc
 226              	.LVL16:
 227 00d0 130101FD 		addi	sp,sp,-48
 228              		.cfi_def_cfa_offset 48
 229 00d4 23341102 		sd	ra,40(sp)
 230 00d8 23308102 		sd	s0,32(sp)
 231 00dc 233C9100 		sd	s1,24(sp)
 232 00e0 23382101 		sd	s2,16(sp)
 233 00e4 23343101 		sd	s3,8(sp)
 234              		.cfi_offset 1, -8
 235              		.cfi_offset 8, -16
 236              		.cfi_offset 9, -24
 237              		.cfi_offset 18, -32
 238              		.cfi_offset 19, -40
 239 00e8 13040103 		addi	s0,sp,48
 240              		.cfi_def_cfa 8, 0
 241 00ec 13090500 		mv	s2,a0
 242 00f0 93840500 		mv	s1,a1
 243 00f4 93090600 		mv	s3,a2
  44:src/syscall_c.cpp ****     thread_t* rucka = handle;
 244              		.loc 1 44 5
 245              	.LVL17:
  45:src/syscall_c.cpp ****     void(*poc_rut)(void*) = start_routine;
GAS LISTING /tmp/ccDAqeUt.s 			page 6


 246              		.loc 1 45 5
  46:src/syscall_c.cpp ****     void* argument = arg;
 247              		.loc 1 46 5
  47:src/syscall_c.cpp ****     void* stek;
 248              		.loc 1 47 5
  48:src/syscall_c.cpp ****     if(start_routine != nullptr){
 249              		.loc 1 48 5
 250 00f8 63860504 		beqz	a1,.L11
  49:src/syscall_c.cpp ****         stek = (uint64*)mem_alloc(DEFAULT_STACK_SIZE * sizeof(uint64));
 251              		.loc 1 49 9
 252              		.loc 1 49 34 is_stmt 0
 253 00fc 37850000 		li	a0,32768
 254              	.LVL18:
 255 0100 97000000 		call	_Z9mem_allocm
 255      E7800000 
 256              	.LVL19:
 257              	.L10:
  50:src/syscall_c.cpp ****     } else stek = nullptr;
  51:src/syscall_c.cpp ****     __asm__ volatile ("mv a4, %[stek]" : : [stek]"r" (stek));
 258              		.loc 1 51 5 is_stmt 1
 259              		.loc 1 51 61 is_stmt 0
 260              	#APP
 261              	# 51 "src/syscall_c.cpp" 1
  52              	    __asm__ volatile ("mv a3, %[arg]" : : [arg]"r" (argument));
 262              		mv a4, a0
 263              	# 0 "" 2
 264              		.loc 1 52 5 is_stmt 1
 265              		.loc 1 52 63 is_stmt 0
 266              	# 52 "src/syscall_c.cpp" 1
  53              	    __asm__ volatile ("mv a2, %[poc_rut]" : : [poc_rut]"r" (poc_rut));
 267              		mv a3, s3
 268              	# 0 "" 2
 269              		.loc 1 53 5 is_stmt 1
 270              		.loc 1 53 70 is_stmt 0
 271              	# 53 "src/syscall_c.cpp" 1
  54              	    __asm__ volatile ("mv a1, %[adr]" : : [adr]"r" (rucka));
 272              		mv a2, s1
 273              	# 0 "" 2
 274              		.loc 1 54 5 is_stmt 1
 275              		.loc 1 54 60 is_stmt 0
 276              	# 54 "src/syscall_c.cpp" 1
  55              	    __asm__ volatile ("li a0, 0x10");
 277              		mv a1, s2
 278              	# 0 "" 2
 279              		.loc 1 55 5 is_stmt 1
 280              		.loc 1 55 37 is_stmt 0
 281              	# 55 "src/syscall_c.cpp" 1
  56              	    __asm__ volatile ("ecall");
 282              		li a0, 0x10
 283              	# 0 "" 2
 284              		.loc 1 56 5 is_stmt 1
 285              		.loc 1 56 31 is_stmt 0
 286              	# 56 "src/syscall_c.cpp" 1
  57              	    int vrati;
 287              		ecall
 288              	# 0 "" 2
 289              		.loc 1 57 5 is_stmt 1
GAS LISTING /tmp/ccDAqeUt.s 			page 7


  58:src/syscall_c.cpp ****     __asm__ volatile ("mv %[povratna], a0" : [povratna]"=r" (vrati));
 290              		.loc 1 58 5
 291              		.loc 1 58 69 is_stmt 0
 292              	# 58 "src/syscall_c.cpp" 1
  59              	    return vrati;
 293              		mv a0, a0
 294              	# 0 "" 2
 295              	.LVL20:
 296              		.loc 1 59 5 is_stmt 1
  60:src/syscall_c.cpp **** }
 297              		.loc 1 60 1 is_stmt 0
 298              	#NO_APP
 299 0124 1B050500 		sext.w	a0,a0
 300 0128 83308102 		ld	ra,40(sp)
 301              		.cfi_remember_state
 302              		.cfi_restore 1
 303 012c 03340102 		ld	s0,32(sp)
 304              		.cfi_restore 8
 305              		.cfi_def_cfa 2, 48
 306 0130 83348101 		ld	s1,24(sp)
 307              		.cfi_restore 9
 308              	.LVL21:
 309 0134 03390101 		ld	s2,16(sp)
 310              		.cfi_restore 18
 311              	.LVL22:
 312 0138 83398100 		ld	s3,8(sp)
 313              		.cfi_restore 19
 314              	.LVL23:
 315 013c 13010103 		addi	sp,sp,48
 316              		.cfi_def_cfa_offset 0
 317 0140 67800000 		jr	ra
 318              	.LVL24:
 319              	.L11:
 320              		.cfi_restore_state
  50:src/syscall_c.cpp ****     } else stek = nullptr;
 321              		.loc 1 50 17
 322 0144 13050000 		li	a0,0
 323              	.LVL25:
 324 0148 6FF01FFC 		j	.L10
 325              		.cfi_endproc
 326              	.LFE3:
 328              		.align	2
 329              		.globl	_Z11thread_exitv
 331              	_Z11thread_exitv:
 332              	.LFB4:
  61:src/syscall_c.cpp **** 
  62:src/syscall_c.cpp **** int thread_exit(){
 333              		.loc 1 62 18 is_stmt 1
 334              		.cfi_startproc
 335 014c 130101FF 		addi	sp,sp,-16
 336              		.cfi_def_cfa_offset 16
 337 0150 23348100 		sd	s0,8(sp)
 338              		.cfi_offset 8, -8
 339 0154 13040101 		addi	s0,sp,16
 340              		.cfi_def_cfa 8, 0
  63:src/syscall_c.cpp ****     __asm__ volatile ("li a0, 0x12");
 341              		.loc 1 63 5
GAS LISTING /tmp/ccDAqeUt.s 			page 8


 342              		.loc 1 63 37 is_stmt 0
 343              	#APP
 344              	# 63 "src/syscall_c.cpp" 1
  64              	    __asm__ volatile ("ecall");
 345              		li a0, 0x12
 346              	# 0 "" 2
 347              		.loc 1 64 5 is_stmt 1
 348              		.loc 1 64 31 is_stmt 0
 349              	# 64 "src/syscall_c.cpp" 1
  65              	    int vrati;
 350              		ecall
 351              	# 0 "" 2
 352              		.loc 1 65 5 is_stmt 1
  66:src/syscall_c.cpp ****     __asm__ volatile ("mv %[povratna], a0" : [povratna]"=r" (vrati));
 353              		.loc 1 66 5
 354              		.loc 1 66 69 is_stmt 0
 355              	# 66 "src/syscall_c.cpp" 1
  67              	    return vrati;
 356              		mv a0, a0
 357              	# 0 "" 2
 358              	.LVL26:
 359              		.loc 1 67 5 is_stmt 1
  68:src/syscall_c.cpp **** }
 360              		.loc 1 68 1 is_stmt 0
 361              	#NO_APP
 362 0164 1B050500 		sext.w	a0,a0
 363 0168 03348100 		ld	s0,8(sp)
 364              		.cfi_restore 8
 365              		.cfi_def_cfa 2, 16
 366 016c 13010101 		addi	sp,sp,16
 367              		.cfi_def_cfa_offset 0
 368 0170 67800000 		jr	ra
 369              		.cfi_endproc
 370              	.LFE4:
 372              		.align	2
 373              		.globl	_Z15thread_dispatchv
 375              	_Z15thread_dispatchv:
 376              	.LFB5:
  69:src/syscall_c.cpp **** 
  70:src/syscall_c.cpp **** void thread_dispatch(){
 377              		.loc 1 70 23 is_stmt 1
 378              		.cfi_startproc
 379 0174 130101FF 		addi	sp,sp,-16
 380              		.cfi_def_cfa_offset 16
 381 0178 23348100 		sd	s0,8(sp)
 382              		.cfi_offset 8, -8
 383 017c 13040101 		addi	s0,sp,16
 384              		.cfi_def_cfa 8, 0
  71:src/syscall_c.cpp ****     __asm__ volatile ("li a0, 0x13");
 385              		.loc 1 71 5
 386              		.loc 1 71 37 is_stmt 0
 387              	#APP
 388              	# 71 "src/syscall_c.cpp" 1
  72              	    __asm__ volatile ("ecall");
 389              		li a0, 0x13
 390              	# 0 "" 2
 391              		.loc 1 72 5 is_stmt 1
GAS LISTING /tmp/ccDAqeUt.s 			page 9


 392              		.loc 1 72 31 is_stmt 0
 393              	# 72 "src/syscall_c.cpp" 1
  73              	}
 394              		ecall
 395              	# 0 "" 2
 396              		.loc 1 73 1
 397              	#NO_APP
 398 0188 03348100 		ld	s0,8(sp)
 399              		.cfi_restore 8
 400              		.cfi_def_cfa 2, 16
 401 018c 13010101 		addi	sp,sp,16
 402              		.cfi_def_cfa_offset 0
 403 0190 67800000 		jr	ra
 404              		.cfi_endproc
 405              	.LFE5:
 407              		.align	2
 408              		.globl	_Z11thread_joinP3TCB
 410              	_Z11thread_joinP3TCB:
 411              	.LFB6:
  74:src/syscall_c.cpp **** 
  75:src/syscall_c.cpp **** void thread_join(thread_t handle){
 412              		.loc 1 75 34 is_stmt 1
 413              		.cfi_startproc
 414              	.LVL27:
 415 0194 130101FF 		addi	sp,sp,-16
 416              		.cfi_def_cfa_offset 16
 417 0198 23348100 		sd	s0,8(sp)
 418              		.cfi_offset 8, -8
 419 019c 13040101 		addi	s0,sp,16
 420              		.cfi_def_cfa 8, 0
  76:src/syscall_c.cpp ****     thread_t rucka = handle;
 421              		.loc 1 76 5
 422              	.LVL28:
  77:src/syscall_c.cpp ****     __asm__ volatile ("mv a1, %[rucka]" : : [rucka]"r" (rucka));
 423              		.loc 1 77 5
 424              		.loc 1 77 64 is_stmt 0
 425              	#APP
 426              	# 77 "src/syscall_c.cpp" 1
  78              	    __asm__ volatile ("li a0, 0x14");
 427              		mv a1, a0
 428              	# 0 "" 2
 429              		.loc 1 78 5 is_stmt 1
 430              		.loc 1 78 37 is_stmt 0
 431              	# 78 "src/syscall_c.cpp" 1
  79              	    __asm__ volatile ("ecall");
 432              		li a0, 0x14
 433              	# 0 "" 2
 434              		.loc 1 79 5 is_stmt 1
 435              		.loc 1 79 31 is_stmt 0
 436              	# 79 "src/syscall_c.cpp" 1
  80              	}
 437              		ecall
 438              	# 0 "" 2
 439              		.loc 1 80 1
 440              	#NO_APP
 441 01ac 03348100 		ld	s0,8(sp)
 442              		.cfi_restore 8
GAS LISTING /tmp/ccDAqeUt.s 			page 10


 443              		.cfi_def_cfa 2, 16
 444 01b0 13010101 		addi	sp,sp,16
 445              		.cfi_def_cfa_offset 0
 446 01b4 67800000 		jr	ra
 447              		.cfi_endproc
 448              	.LFE6:
 450              		.align	2
 451              		.globl	_Z8sem_openPP7Semaforj
 453              	_Z8sem_openPP7Semaforj:
 454              	.LFB7:
  81:src/syscall_c.cpp **** 
  82:src/syscall_c.cpp **** int sem_open(sem_t* handle, unsigned init){
 455              		.loc 1 82 43 is_stmt 1
 456              		.cfi_startproc
 457              	.LVL29:
 458 01b8 130101FF 		addi	sp,sp,-16
 459              		.cfi_def_cfa_offset 16
 460 01bc 23348100 		sd	s0,8(sp)
 461              		.cfi_offset 8, -8
 462 01c0 13040101 		addi	s0,sp,16
 463              		.cfi_def_cfa 8, 0
  83:src/syscall_c.cpp ****     sem_t* rucka = handle;
 464              		.loc 1 83 5
 465              	.LVL30:
  84:src/syscall_c.cpp ****     unsigned vrednost = init;
 466              		.loc 1 84 5
  85:src/syscall_c.cpp ****     __asm__ volatile ("mv a2, %[vr]" : : [vr]"r" (vrednost));
 467              		.loc 1 85 5
 468              		.loc 1 85 61 is_stmt 0
 469              	#APP
 470              	# 85 "src/syscall_c.cpp" 1
  86              	    __asm__ volatile ("mv a1, %[adr]" : : [adr]"r" (rucka));
 471              		mv a2, a1
 472              	# 0 "" 2
 473              		.loc 1 86 5 is_stmt 1
 474              		.loc 1 86 60 is_stmt 0
 475              	# 86 "src/syscall_c.cpp" 1
  87              	    __asm__ volatile ("li a0, 0x21");
 476              		mv a1, a0
 477              	# 0 "" 2
 478              		.loc 1 87 5 is_stmt 1
 479              		.loc 1 87 37 is_stmt 0
 480              	# 87 "src/syscall_c.cpp" 1
  88              	    __asm__ volatile ("ecall");
 481              		li a0, 0x21
 482              	# 0 "" 2
 483              		.loc 1 88 5 is_stmt 1
 484              		.loc 1 88 31 is_stmt 0
 485              	# 88 "src/syscall_c.cpp" 1
  89              	    int vrati;
 486              		ecall
 487              	# 0 "" 2
 488              		.loc 1 89 5 is_stmt 1
  90:src/syscall_c.cpp ****     __asm__ volatile ("mv %[povratna], a0" : [povratna]"=r" (vrati));
 489              		.loc 1 90 5
 490              		.loc 1 90 69 is_stmt 0
 491              	# 90 "src/syscall_c.cpp" 1
GAS LISTING /tmp/ccDAqeUt.s 			page 11


  91              	    return vrati;
 492              		mv a0, a0
 493              	# 0 "" 2
 494              	.LVL31:
 495              		.loc 1 91 5 is_stmt 1
  92:src/syscall_c.cpp **** }
 496              		.loc 1 92 1 is_stmt 0
 497              	#NO_APP
 498 01d8 1B050500 		sext.w	a0,a0
 499 01dc 03348100 		ld	s0,8(sp)
 500              		.cfi_restore 8
 501              		.cfi_def_cfa 2, 16
 502 01e0 13010101 		addi	sp,sp,16
 503              		.cfi_def_cfa_offset 0
 504 01e4 67800000 		jr	ra
 505              		.cfi_endproc
 506              	.LFE7:
 508              		.align	2
 509              		.globl	_Z9sem_closeP7Semafor
 511              	_Z9sem_closeP7Semafor:
 512              	.LFB8:
  93:src/syscall_c.cpp **** 
  94:src/syscall_c.cpp **** int sem_close(sem_t handle){
 513              		.loc 1 94 28 is_stmt 1
 514              		.cfi_startproc
 515              	.LVL32:
 516 01e8 130101FF 		addi	sp,sp,-16
 517              		.cfi_def_cfa_offset 16
 518 01ec 23348100 		sd	s0,8(sp)
 519              		.cfi_offset 8, -8
 520 01f0 13040101 		addi	s0,sp,16
 521              		.cfi_def_cfa 8, 0
  95:src/syscall_c.cpp ****     sem_t rucka = handle;
 522              		.loc 1 95 5
 523              	.LVL33:
  96:src/syscall_c.cpp ****     __asm__ volatile ("mv a1, %[rucka]" : : [rucka]"r" (rucka));
 524              		.loc 1 96 5
 525              		.loc 1 96 64 is_stmt 0
 526              	#APP
 527              	# 96 "src/syscall_c.cpp" 1
  97              	    __asm__ volatile ("li a0, 0x22");
 528              		mv a1, a0
 529              	# 0 "" 2
 530              		.loc 1 97 5 is_stmt 1
 531              		.loc 1 97 37 is_stmt 0
 532              	# 97 "src/syscall_c.cpp" 1
  98              	    __asm__ volatile ("ecall");
 533              		li a0, 0x22
 534              	# 0 "" 2
 535              		.loc 1 98 5 is_stmt 1
 536              		.loc 1 98 31 is_stmt 0
 537              	# 98 "src/syscall_c.cpp" 1
  99              	    int vrati;
 538              		ecall
 539              	# 0 "" 2
 540              		.loc 1 99 5 is_stmt 1
 100:src/syscall_c.cpp ****     __asm__ volatile ("mv %[povratna], a0" : [povratna]"=r" (vrati));
GAS LISTING /tmp/ccDAqeUt.s 			page 12


 541              		.loc 1 100 5
 542              		.loc 1 100 69 is_stmt 0
 543              	# 100 "src/syscall_c.cpp" 1
 101              	    return vrati;
 544              		mv a0, a0
 545              	# 0 "" 2
 546              	.LVL34:
 547              		.loc 1 101 5 is_stmt 1
 102:src/syscall_c.cpp **** }
 548              		.loc 1 102 1 is_stmt 0
 549              	#NO_APP
 550 0204 1B050500 		sext.w	a0,a0
 551 0208 03348100 		ld	s0,8(sp)
 552              		.cfi_restore 8
 553              		.cfi_def_cfa 2, 16
 554 020c 13010101 		addi	sp,sp,16
 555              		.cfi_def_cfa_offset 0
 556 0210 67800000 		jr	ra
 557              		.cfi_endproc
 558              	.LFE8:
 560              		.align	2
 561              		.globl	_Z8sem_waitP7Semafor
 563              	_Z8sem_waitP7Semafor:
 564              	.LFB9:
 103:src/syscall_c.cpp **** 
 104:src/syscall_c.cpp **** int sem_wait(sem_t id){
 565              		.loc 1 104 23 is_stmt 1
 566              		.cfi_startproc
 567              	.LVL35:
 568 0214 130101FF 		addi	sp,sp,-16
 569              		.cfi_def_cfa_offset 16
 570 0218 23348100 		sd	s0,8(sp)
 571              		.cfi_offset 8, -8
 572 021c 13040101 		addi	s0,sp,16
 573              		.cfi_def_cfa 8, 0
 105:src/syscall_c.cpp ****     sem_t rucka = id;
 574              		.loc 1 105 5
 575              	.LVL36:
 106:src/syscall_c.cpp ****     __asm__ volatile ("mv a1, %[rucka]" : : [rucka]"r" (rucka));
 576              		.loc 1 106 5
 577              		.loc 1 106 64 is_stmt 0
 578              	#APP
 579              	# 106 "src/syscall_c.cpp" 1
 107              	    __asm__ volatile ("li a0, 0x23");
 580              		mv a1, a0
 581              	# 0 "" 2
 582              		.loc 1 107 5 is_stmt 1
 583              		.loc 1 107 37 is_stmt 0
 584              	# 107 "src/syscall_c.cpp" 1
 108              	    __asm__ volatile ("ecall");
 585              		li a0, 0x23
 586              	# 0 "" 2
 587              		.loc 1 108 5 is_stmt 1
 588              		.loc 1 108 31 is_stmt 0
 589              	# 108 "src/syscall_c.cpp" 1
 109              	    int vrati;
 590              		ecall
GAS LISTING /tmp/ccDAqeUt.s 			page 13


 591              	# 0 "" 2
 592              		.loc 1 109 5 is_stmt 1
 110:src/syscall_c.cpp ****     __asm__ volatile ("mv %[povratna], a0" : [povratna]"=r" (vrati));
 593              		.loc 1 110 5
 594              		.loc 1 110 69 is_stmt 0
 595              	# 110 "src/syscall_c.cpp" 1
 111              	    return vrati;
 596              		mv a0, a0
 597              	# 0 "" 2
 598              	.LVL37:
 599              		.loc 1 111 5 is_stmt 1
 112:src/syscall_c.cpp **** }
 600              		.loc 1 112 1 is_stmt 0
 601              	#NO_APP
 602 0230 1B050500 		sext.w	a0,a0
 603 0234 03348100 		ld	s0,8(sp)
 604              		.cfi_restore 8
 605              		.cfi_def_cfa 2, 16
 606 0238 13010101 		addi	sp,sp,16
 607              		.cfi_def_cfa_offset 0
 608 023c 67800000 		jr	ra
 609              		.cfi_endproc
 610              	.LFE9:
 612              		.align	2
 613              		.globl	_Z10sem_signalP7Semafor
 615              	_Z10sem_signalP7Semafor:
 616              	.LFB10:
 113:src/syscall_c.cpp **** 
 114:src/syscall_c.cpp **** int sem_signal(sem_t id){
 617              		.loc 1 114 25 is_stmt 1
 618              		.cfi_startproc
 619              	.LVL38:
 620 0240 130101FF 		addi	sp,sp,-16
 621              		.cfi_def_cfa_offset 16
 622 0244 23348100 		sd	s0,8(sp)
 623              		.cfi_offset 8, -8
 624 0248 13040101 		addi	s0,sp,16
 625              		.cfi_def_cfa 8, 0
 115:src/syscall_c.cpp ****     sem_t rucka = id;
 626              		.loc 1 115 5
 627              	.LVL39:
 116:src/syscall_c.cpp ****     __asm__ volatile ("mv a1, %[rucka]" : : [rucka]"r" (rucka));
 628              		.loc 1 116 5
 629              		.loc 1 116 64 is_stmt 0
 630              	#APP
 631              	# 116 "src/syscall_c.cpp" 1
 117              	    __asm__ volatile ("li a0, 0x24");
 632              		mv a1, a0
 633              	# 0 "" 2
 634              		.loc 1 117 5 is_stmt 1
 635              		.loc 1 117 37 is_stmt 0
 636              	# 117 "src/syscall_c.cpp" 1
 118              	    __asm__ volatile ("ecall");
 637              		li a0, 0x24
 638              	# 0 "" 2
 639              		.loc 1 118 5 is_stmt 1
 640              		.loc 1 118 31 is_stmt 0
GAS LISTING /tmp/ccDAqeUt.s 			page 14


 641              	# 118 "src/syscall_c.cpp" 1
 119              	    int vrati;
 642              		ecall
 643              	# 0 "" 2
 644              		.loc 1 119 5 is_stmt 1
 120:src/syscall_c.cpp ****     __asm__ volatile ("mv %[povratna], a0" : [povratna]"=r" (vrati));
 645              		.loc 1 120 5
 646              		.loc 1 120 69 is_stmt 0
 647              	# 120 "src/syscall_c.cpp" 1
 121              	    return vrati;
 648              		mv a0, a0
 649              	# 0 "" 2
 650              	.LVL40:
 651              		.loc 1 121 5 is_stmt 1
 122:src/syscall_c.cpp **** }
 652              		.loc 1 122 1 is_stmt 0
 653              	#NO_APP
 654 025c 1B050500 		sext.w	a0,a0
 655 0260 03348100 		ld	s0,8(sp)
 656              		.cfi_restore 8
 657              		.cfi_def_cfa 2, 16
 658 0264 13010101 		addi	sp,sp,16
 659              		.cfi_def_cfa_offset 0
 660 0268 67800000 		jr	ra
 661              		.cfi_endproc
 662              	.LFE10:
 664              		.align	2
 665              		.globl	_Z10time_sleepm
 667              	_Z10time_sleepm:
 668              	.LFB11:
 123:src/syscall_c.cpp **** 
 124:src/syscall_c.cpp **** int time_sleep(time_t slice){
 669              		.loc 1 124 29 is_stmt 1
 670              		.cfi_startproc
 671              	.LVL41:
 672 026c 130101FF 		addi	sp,sp,-16
 673              		.cfi_def_cfa_offset 16
 674 0270 23348100 		sd	s0,8(sp)
 675              		.cfi_offset 8, -8
 676 0274 13040101 		addi	s0,sp,16
 677              		.cfi_def_cfa 8, 0
 125:src/syscall_c.cpp ****     time_t vreme = slice;
 678              		.loc 1 125 5
 679              	.LVL42:
 126:src/syscall_c.cpp ****     __asm__ volatile ("mv a1, %[vreme]" : : [vreme]"r" (vreme));
 680              		.loc 1 126 5
 681              		.loc 1 126 64 is_stmt 0
 682              	#APP
 683              	# 126 "src/syscall_c.cpp" 1
 127              	    __asm__ volatile ("li a0, 0x31");
 684              		mv a1, a0
 685              	# 0 "" 2
 686              		.loc 1 127 5 is_stmt 1
 687              		.loc 1 127 37 is_stmt 0
 688              	# 127 "src/syscall_c.cpp" 1
 128              	    __asm__ volatile ("ecall");
 689              		li a0, 0x31
GAS LISTING /tmp/ccDAqeUt.s 			page 15


 690              	# 0 "" 2
 691              		.loc 1 128 5 is_stmt 1
 692              		.loc 1 128 31 is_stmt 0
 693              	# 128 "src/syscall_c.cpp" 1
 129              	    int vrati;
 694              		ecall
 695              	# 0 "" 2
 696              		.loc 1 129 5 is_stmt 1
 130:src/syscall_c.cpp ****     __asm__ volatile ("mv %[povratna], a0" : [povratna]"=r" (vrati));
 697              		.loc 1 130 5
 698              		.loc 1 130 69 is_stmt 0
 699              	# 130 "src/syscall_c.cpp" 1
 131              	    return vrati;
 700              		mv a0, a0
 701              	# 0 "" 2
 702              	.LVL43:
 703              		.loc 1 131 5 is_stmt 1
 132:src/syscall_c.cpp **** }
 704              		.loc 1 132 1 is_stmt 0
 705              	#NO_APP
 706 0288 1B050500 		sext.w	a0,a0
 707 028c 03348100 		ld	s0,8(sp)
 708              		.cfi_restore 8
 709              		.cfi_def_cfa 2, 16
 710 0290 13010101 		addi	sp,sp,16
 711              		.cfi_def_cfa_offset 0
 712 0294 67800000 		jr	ra
 713              		.cfi_endproc
 714              	.LFE11:
 716              		.align	2
 717              		.globl	_Z4getcv
 719              	_Z4getcv:
 720              	.LFB12:
 133:src/syscall_c.cpp **** 
 134:src/syscall_c.cpp **** char getc(){
 721              		.loc 1 134 12 is_stmt 1
 722              		.cfi_startproc
 723 0298 130101FF 		addi	sp,sp,-16
 724              		.cfi_def_cfa_offset 16
 725 029c 23348100 		sd	s0,8(sp)
 726              		.cfi_offset 8, -8
 727 02a0 13040101 		addi	s0,sp,16
 728              		.cfi_def_cfa 8, 0
 135:src/syscall_c.cpp ****     __asm__ volatile ("li a0, 0x41");
 729              		.loc 1 135 5
 730              		.loc 1 135 37 is_stmt 0
 731              	#APP
 732              	# 135 "src/syscall_c.cpp" 1
 136              	    __asm__ volatile ("ecall");
 733              		li a0, 0x41
 734              	# 0 "" 2
 735              		.loc 1 136 5 is_stmt 1
 736              		.loc 1 136 31 is_stmt 0
 737              	# 136 "src/syscall_c.cpp" 1
 137              	    char vrati;
 738              		ecall
 739              	# 0 "" 2
GAS LISTING /tmp/ccDAqeUt.s 			page 16


 740              		.loc 1 137 5 is_stmt 1
 138:src/syscall_c.cpp ****     __asm__ volatile ("mv %[povratna], a0" : [povratna]"=r" (vrati));
 741              		.loc 1 138 5
 742              		.loc 1 138 69 is_stmt 0
 743              	# 138 "src/syscall_c.cpp" 1
 139              	    return vrati;
 744              		mv a0, a0
 745              	# 0 "" 2
 746              	.LVL44:
 747              		.loc 1 139 5 is_stmt 1
 140:src/syscall_c.cpp **** }
 748              		.loc 1 140 1 is_stmt 0
 749              	#NO_APP
 750 02b0 1375F50F 		andi	a0,a0,0xff
 751 02b4 03348100 		ld	s0,8(sp)
 752              		.cfi_restore 8
 753              		.cfi_def_cfa 2, 16
 754 02b8 13010101 		addi	sp,sp,16
 755              		.cfi_def_cfa_offset 0
 756 02bc 67800000 		jr	ra
 757              		.cfi_endproc
 758              	.LFE12:
 760              		.align	2
 761              		.globl	_Z4putcc
 763              	_Z4putcc:
 764              	.LFB13:
 141:src/syscall_c.cpp **** 
 142:src/syscall_c.cpp **** void putc(char c){
 765              		.loc 1 142 18 is_stmt 1
 766              		.cfi_startproc
 767              	.LVL45:
 768 02c0 130101FF 		addi	sp,sp,-16
 769              		.cfi_def_cfa_offset 16
 770 02c4 23348100 		sd	s0,8(sp)
 771              		.cfi_offset 8, -8
 772 02c8 13040101 		addi	s0,sp,16
 773              		.cfi_def_cfa 8, 0
 143:src/syscall_c.cpp ****     char chr = c;
 774              		.loc 1 143 5
 775              	.LVL46:
 144:src/syscall_c.cpp ****     __asm__ volatile ("mv a1, %[chr]" : : [chr]"r" (chr));
 776              		.loc 1 144 5
 777              		.loc 1 144 58 is_stmt 0
 778              	#APP
 779              	# 144 "src/syscall_c.cpp" 1
 145              	    __asm__ volatile ("li a0, 0x42");
 780              		mv a1, a0
 781              	# 0 "" 2
 782              		.loc 1 145 5 is_stmt 1
 783              		.loc 1 145 37 is_stmt 0
 784              	# 145 "src/syscall_c.cpp" 1
 146              	    __asm__ volatile ("ecall");
 785              		li a0, 0x42
 786              	# 0 "" 2
 787              		.loc 1 146 5 is_stmt 1
 788              		.loc 1 146 31 is_stmt 0
 789              	# 146 "src/syscall_c.cpp" 1
GAS LISTING /tmp/ccDAqeUt.s 			page 17


 147              	}...
 790              		ecall
 791              	# 0 "" 2
 792              		.loc 1 147 1
 793              	#NO_APP
 794 02d8 03348100 		ld	s0,8(sp)
 795              		.cfi_restore 8
 796              		.cfi_def_cfa 2, 16
 797 02dc 13010101 		addi	sp,sp,16
 798              		.cfi_def_cfa_offset 0
 799 02e0 67800000 		jr	ra
 800              		.cfi_endproc
 801              	.LFE13:
 803              	.Letext0:
 804              		.file 2 "src/../lib/hw.h"
 805              		.file 3 "src/../h/syscall_c.h"
GAS LISTING /tmp/ccDAqeUt.s 			page 18


DEFINED SYMBOLS
                            *ABS*:0000000000000000 syscall_c.cpp
     /tmp/ccDAqeUt.s:9      .text:0000000000000000 _Z9mem_allocm
     /tmp/ccDAqeUt.s:13     .text:0000000000000000 .L0 
     /tmp/ccDAqeUt.s:15     .text:0000000000000000 .L0 
     /tmp/ccDAqeUt.s:16     .text:0000000000000004 .L0 
     /tmp/ccDAqeUt.s:18     .text:0000000000000008 .L0 
     /tmp/ccDAqeUt.s:20     .text:000000000000000c .L0 
     /tmp/ccDAqeUt.s:23     .text:000000000000000c .L0 
     /tmp/ccDAqeUt.s:24     .text:000000000000000c .L0 
   src/syscall_c.cpp:6      .text:000000000000000c .L0 
     /tmp/ccDAqeUt.s:30     .text:0000000000000010 .L0 
   src/syscall_c.cpp:7      .text:0000000000000010 .L0 
     /tmp/ccDAqeUt.s:35     .text:0000000000000014 .L0 
   src/syscall_c.cpp:8      .text:0000000000000014 .L0 
     /tmp/ccDAqeUt.s:40     .text:0000000000000018 .L0 
     /tmp/ccDAqeUt.s:41     .text:0000000000000018 .L0 
   src/syscall_c.cpp:10     .text:0000000000000018 .L0 
     /tmp/ccDAqeUt.s:47     .text:000000000000001c .L0 
     /tmp/ccDAqeUt.s:49     .text:000000000000001c .L0 
     /tmp/ccDAqeUt.s:50     .text:0000000000000020 .L0 
     /tmp/ccDAqeUt.s:51     .text:0000000000000020 .L0 
     /tmp/ccDAqeUt.s:53     .text:0000000000000024 .L0 
     /tmp/ccDAqeUt.s:55     .text:0000000000000028 .L0 
     /tmp/ccDAqeUt.s:61     .text:0000000000000028 _Z8mem_freePv
     /tmp/ccDAqeUt.s:64     .text:0000000000000028 .L0 
     /tmp/ccDAqeUt.s:66     .text:0000000000000028 .L0 
     /tmp/ccDAqeUt.s:67     .text:000000000000002c .L0 
     /tmp/ccDAqeUt.s:69     .text:0000000000000030 .L0 
     /tmp/ccDAqeUt.s:71     .text:0000000000000034 .L0 
     /tmp/ccDAqeUt.s:74     .text:0000000000000034 .L0 
     /tmp/ccDAqeUt.s:75     .text:0000000000000034 .L0 
   src/syscall_c.cpp:16     .text:0000000000000034 .L0 
     /tmp/ccDAqeUt.s:81     .text:0000000000000038 .L0 
   src/syscall_c.cpp:17     .text:0000000000000038 .L0 
     /tmp/ccDAqeUt.s:86     .text:000000000000003c .L0 
   src/syscall_c.cpp:18     .text:000000000000003c .L0 
     /tmp/ccDAqeUt.s:91     .text:0000000000000040 .L0 
     /tmp/ccDAqeUt.s:92     .text:0000000000000040 .L0 
   src/syscall_c.cpp:20     .text:0000000000000040 .L0 
     /tmp/ccDAqeUt.s:98     .text:0000000000000044 .L0 
     /tmp/ccDAqeUt.s:100    .text:0000000000000044 .L0 
     /tmp/ccDAqeUt.s:102    .text:000000000000004c .L0 
     /tmp/ccDAqeUt.s:103    .text:000000000000004c .L0 
     /tmp/ccDAqeUt.s:105    .text:0000000000000050 .L0 
     /tmp/ccDAqeUt.s:107    .text:0000000000000054 .L0 
     /tmp/ccDAqeUt.s:113    .text:0000000000000054 _Z13thread_createPP3TCBPFvPvES2_
     /tmp/ccDAqeUt.s:116    .text:0000000000000054 .L0 
     /tmp/ccDAqeUt.s:118    .text:0000000000000054 .L0 
     /tmp/ccDAqeUt.s:119    .text:0000000000000058 .L0 
     /tmp/ccDAqeUt.s:125    .text:000000000000006c .L0 
     /tmp/ccDAqeUt.s:126    .text:000000000000006c .L0 
     /tmp/ccDAqeUt.s:127    .text:000000000000006c .L0 
     /tmp/ccDAqeUt.s:128    .text:000000000000006c .L0 
     /tmp/ccDAqeUt.s:129    .text:000000000000006c .L0 
     /tmp/ccDAqeUt.s:131    .text:0000000000000070 .L0 
     /tmp/ccDAqeUt.s:137    .text:000000000000007c .L0 
GAS LISTING /tmp/ccDAqeUt.s 			page 19


     /tmp/ccDAqeUt.s:138    .text:000000000000007c .L0 
     /tmp/ccDAqeUt.s:139    .text:000000000000007c .L0 
     /tmp/ccDAqeUt.s:140    .text:000000000000007c .L0 
     /tmp/ccDAqeUt.s:141    .text:000000000000007c .L0 
     /tmp/ccDAqeUt.s:143    .text:0000000000000080 .L0 
     /tmp/ccDAqeUt.s:144    .text:0000000000000080 .L0 
     /tmp/ccDAqeUt.s:150    .text:000000000000008c .L0 
   src/syscall_c.cpp:32     .text:000000000000008c .L0 
     /tmp/ccDAqeUt.s:156    .text:0000000000000090 .L0 
   src/syscall_c.cpp:33     .text:0000000000000090 .L0 
     /tmp/ccDAqeUt.s:161    .text:0000000000000094 .L0 
   src/syscall_c.cpp:34     .text:0000000000000094 .L0 
     /tmp/ccDAqeUt.s:166    .text:0000000000000098 .L0 
   src/syscall_c.cpp:35     .text:0000000000000098 .L0 
     /tmp/ccDAqeUt.s:171    .text:000000000000009c .L0 
   src/syscall_c.cpp:36     .text:000000000000009c .L0 
     /tmp/ccDAqeUt.s:176    .text:00000000000000a0 .L0 
   src/syscall_c.cpp:37     .text:00000000000000a0 .L0 
     /tmp/ccDAqeUt.s:181    .text:00000000000000a4 .L0 
     /tmp/ccDAqeUt.s:182    .text:00000000000000a4 .L0 
   src/syscall_c.cpp:39     .text:00000000000000a4 .L0 
     /tmp/ccDAqeUt.s:188    .text:00000000000000a8 .L0 
     /tmp/ccDAqeUt.s:190    .text:00000000000000a8 .L0 
     /tmp/ccDAqeUt.s:192    .text:00000000000000b0 .L0 
     /tmp/ccDAqeUt.s:193    .text:00000000000000b0 .L0 
     /tmp/ccDAqeUt.s:195    .text:00000000000000b4 .L0 
     /tmp/ccDAqeUt.s:196    .text:00000000000000b4 .L0 
     /tmp/ccDAqeUt.s:198    .text:00000000000000b8 .L0 
     /tmp/ccDAqeUt.s:201    .text:00000000000000bc .L0 
     /tmp/ccDAqeUt.s:204    .text:00000000000000c0 .L0 
     /tmp/ccDAqeUt.s:207    .text:00000000000000c4 .L0 
     /tmp/ccDAqeUt.s:211    .text:00000000000000c8 .L0 
     /tmp/ccDAqeUt.s:213    .text:00000000000000c8 .L0 
     /tmp/ccDAqeUt.s:216    .text:00000000000000d0 .L0 
     /tmp/ccDAqeUt.s:222    .text:00000000000000d0 _Z17thread_create_cppPP3TCBPFvPvES2_
     /tmp/ccDAqeUt.s:225    .text:00000000000000d0 .L0 
     /tmp/ccDAqeUt.s:227    .text:00000000000000d0 .L0 
     /tmp/ccDAqeUt.s:228    .text:00000000000000d4 .L0 
     /tmp/ccDAqeUt.s:234    .text:00000000000000e8 .L0 
     /tmp/ccDAqeUt.s:235    .text:00000000000000e8 .L0 
     /tmp/ccDAqeUt.s:236    .text:00000000000000e8 .L0 
     /tmp/ccDAqeUt.s:237    .text:00000000000000e8 .L0 
     /tmp/ccDAqeUt.s:238    .text:00000000000000e8 .L0 
     /tmp/ccDAqeUt.s:240    .text:00000000000000ec .L0 
     /tmp/ccDAqeUt.s:246    .text:00000000000000f8 .L0 
     /tmp/ccDAqeUt.s:247    .text:00000000000000f8 .L0 
     /tmp/ccDAqeUt.s:248    .text:00000000000000f8 .L0 
     /tmp/ccDAqeUt.s:249    .text:00000000000000f8 .L0 
     /tmp/ccDAqeUt.s:250    .text:00000000000000f8 .L0 
     /tmp/ccDAqeUt.s:252    .text:00000000000000fc .L0 
     /tmp/ccDAqeUt.s:253    .text:00000000000000fc .L0 
     /tmp/ccDAqeUt.s:259    .text:0000000000000108 .L0 
   src/syscall_c.cpp:51     .text:0000000000000108 .L0 
     /tmp/ccDAqeUt.s:265    .text:000000000000010c .L0 
   src/syscall_c.cpp:52     .text:000000000000010c .L0 
     /tmp/ccDAqeUt.s:270    .text:0000000000000110 .L0 
   src/syscall_c.cpp:53     .text:0000000000000110 .L0 
GAS LISTING /tmp/ccDAqeUt.s 			page 20


     /tmp/ccDAqeUt.s:275    .text:0000000000000114 .L0 
   src/syscall_c.cpp:54     .text:0000000000000114 .L0 
     /tmp/ccDAqeUt.s:280    .text:0000000000000118 .L0 
   src/syscall_c.cpp:55     .text:0000000000000118 .L0 
     /tmp/ccDAqeUt.s:285    .text:000000000000011c .L0 
   src/syscall_c.cpp:56     .text:000000000000011c .L0 
     /tmp/ccDAqeUt.s:290    .text:0000000000000120 .L0 
     /tmp/ccDAqeUt.s:291    .text:0000000000000120 .L0 
   src/syscall_c.cpp:58     .text:0000000000000120 .L0 
     /tmp/ccDAqeUt.s:297    .text:0000000000000124 .L0 
     /tmp/ccDAqeUt.s:299    .text:0000000000000124 .L0 
     /tmp/ccDAqeUt.s:301    .text:000000000000012c .L0 
     /tmp/ccDAqeUt.s:302    .text:000000000000012c .L0 
     /tmp/ccDAqeUt.s:304    .text:0000000000000130 .L0 
     /tmp/ccDAqeUt.s:305    .text:0000000000000130 .L0 
     /tmp/ccDAqeUt.s:307    .text:0000000000000134 .L0 
     /tmp/ccDAqeUt.s:310    .text:0000000000000138 .L0 
     /tmp/ccDAqeUt.s:313    .text:000000000000013c .L0 
     /tmp/ccDAqeUt.s:316    .text:0000000000000140 .L0 
     /tmp/ccDAqeUt.s:320    .text:0000000000000144 .L0 
     /tmp/ccDAqeUt.s:322    .text:0000000000000144 .L0 
     /tmp/ccDAqeUt.s:325    .text:000000000000014c .L0 
     /tmp/ccDAqeUt.s:331    .text:000000000000014c _Z11thread_exitv
     /tmp/ccDAqeUt.s:334    .text:000000000000014c .L0 
     /tmp/ccDAqeUt.s:335    .text:000000000000014c .L0 
     /tmp/ccDAqeUt.s:336    .text:0000000000000150 .L0 
     /tmp/ccDAqeUt.s:338    .text:0000000000000154 .L0 
     /tmp/ccDAqeUt.s:340    .text:0000000000000158 .L0 
     /tmp/ccDAqeUt.s:342    .text:0000000000000158 .L0 
   src/syscall_c.cpp:63     .text:0000000000000158 .L0 
     /tmp/ccDAqeUt.s:348    .text:000000000000015c .L0 
   src/syscall_c.cpp:64     .text:000000000000015c .L0 
     /tmp/ccDAqeUt.s:353    .text:0000000000000160 .L0 
     /tmp/ccDAqeUt.s:354    .text:0000000000000160 .L0 
   src/syscall_c.cpp:66     .text:0000000000000160 .L0 
     /tmp/ccDAqeUt.s:360    .text:0000000000000164 .L0 
     /tmp/ccDAqeUt.s:362    .text:0000000000000164 .L0 
     /tmp/ccDAqeUt.s:364    .text:000000000000016c .L0 
     /tmp/ccDAqeUt.s:365    .text:000000000000016c .L0 
     /tmp/ccDAqeUt.s:367    .text:0000000000000170 .L0 
     /tmp/ccDAqeUt.s:369    .text:0000000000000174 .L0 
     /tmp/ccDAqeUt.s:375    .text:0000000000000174 _Z15thread_dispatchv
     /tmp/ccDAqeUt.s:378    .text:0000000000000174 .L0 
     /tmp/ccDAqeUt.s:379    .text:0000000000000174 .L0 
     /tmp/ccDAqeUt.s:380    .text:0000000000000178 .L0 
     /tmp/ccDAqeUt.s:382    .text:000000000000017c .L0 
     /tmp/ccDAqeUt.s:384    .text:0000000000000180 .L0 
     /tmp/ccDAqeUt.s:386    .text:0000000000000180 .L0 
   src/syscall_c.cpp:71     .text:0000000000000180 .L0 
     /tmp/ccDAqeUt.s:392    .text:0000000000000184 .L0 
   src/syscall_c.cpp:72     .text:0000000000000184 .L0 
     /tmp/ccDAqeUt.s:398    .text:0000000000000188 .L0 
     /tmp/ccDAqeUt.s:399    .text:000000000000018c .L0 
     /tmp/ccDAqeUt.s:400    .text:000000000000018c .L0 
     /tmp/ccDAqeUt.s:402    .text:0000000000000190 .L0 
     /tmp/ccDAqeUt.s:404    .text:0000000000000194 .L0 
     /tmp/ccDAqeUt.s:410    .text:0000000000000194 _Z11thread_joinP3TCB
GAS LISTING /tmp/ccDAqeUt.s 			page 21


     /tmp/ccDAqeUt.s:413    .text:0000000000000194 .L0 
     /tmp/ccDAqeUt.s:415    .text:0000000000000194 .L0 
     /tmp/ccDAqeUt.s:416    .text:0000000000000198 .L0 
     /tmp/ccDAqeUt.s:418    .text:000000000000019c .L0 
     /tmp/ccDAqeUt.s:420    .text:00000000000001a0 .L0 
     /tmp/ccDAqeUt.s:423    .text:00000000000001a0 .L0 
     /tmp/ccDAqeUt.s:424    .text:00000000000001a0 .L0 
   src/syscall_c.cpp:77     .text:00000000000001a0 .L0 
     /tmp/ccDAqeUt.s:430    .text:00000000000001a4 .L0 
   src/syscall_c.cpp:78     .text:00000000000001a4 .L0 
     /tmp/ccDAqeUt.s:435    .text:00000000000001a8 .L0 
   src/syscall_c.cpp:79     .text:00000000000001a8 .L0 
     /tmp/ccDAqeUt.s:441    .text:00000000000001ac .L0 
     /tmp/ccDAqeUt.s:442    .text:00000000000001b0 .L0 
     /tmp/ccDAqeUt.s:443    .text:00000000000001b0 .L0 
     /tmp/ccDAqeUt.s:445    .text:00000000000001b4 .L0 
     /tmp/ccDAqeUt.s:447    .text:00000000000001b8 .L0 
     /tmp/ccDAqeUt.s:453    .text:00000000000001b8 _Z8sem_openPP7Semaforj
     /tmp/ccDAqeUt.s:456    .text:00000000000001b8 .L0 
     /tmp/ccDAqeUt.s:458    .text:00000000000001b8 .L0 
     /tmp/ccDAqeUt.s:459    .text:00000000000001bc .L0 
     /tmp/ccDAqeUt.s:461    .text:00000000000001c0 .L0 
     /tmp/ccDAqeUt.s:463    .text:00000000000001c4 .L0 
     /tmp/ccDAqeUt.s:466    .text:00000000000001c4 .L0 
     /tmp/ccDAqeUt.s:467    .text:00000000000001c4 .L0 
     /tmp/ccDAqeUt.s:468    .text:00000000000001c4 .L0 
   src/syscall_c.cpp:85     .text:00000000000001c4 .L0 
     /tmp/ccDAqeUt.s:474    .text:00000000000001c8 .L0 
   src/syscall_c.cpp:86     .text:00000000000001c8 .L0 
     /tmp/ccDAqeUt.s:479    .text:00000000000001cc .L0 
   src/syscall_c.cpp:87     .text:00000000000001cc .L0 
     /tmp/ccDAqeUt.s:484    .text:00000000000001d0 .L0 
   src/syscall_c.cpp:88     .text:00000000000001d0 .L0 
     /tmp/ccDAqeUt.s:489    .text:00000000000001d4 .L0 
     /tmp/ccDAqeUt.s:490    .text:00000000000001d4 .L0 
   src/syscall_c.cpp:90     .text:00000000000001d4 .L0 
     /tmp/ccDAqeUt.s:496    .text:00000000000001d8 .L0 
     /tmp/ccDAqeUt.s:498    .text:00000000000001d8 .L0 
     /tmp/ccDAqeUt.s:500    .text:00000000000001e0 .L0 
     /tmp/ccDAqeUt.s:501    .text:00000000000001e0 .L0 
     /tmp/ccDAqeUt.s:503    .text:00000000000001e4 .L0 
     /tmp/ccDAqeUt.s:505    .text:00000000000001e8 .L0 
     /tmp/ccDAqeUt.s:511    .text:00000000000001e8 _Z9sem_closeP7Semafor
     /tmp/ccDAqeUt.s:514    .text:00000000000001e8 .L0 
     /tmp/ccDAqeUt.s:516    .text:00000000000001e8 .L0 
     /tmp/ccDAqeUt.s:517    .text:00000000000001ec .L0 
     /tmp/ccDAqeUt.s:519    .text:00000000000001f0 .L0 
     /tmp/ccDAqeUt.s:521    .text:00000000000001f4 .L0 
     /tmp/ccDAqeUt.s:524    .text:00000000000001f4 .L0 
     /tmp/ccDAqeUt.s:525    .text:00000000000001f4 .L0 
   src/syscall_c.cpp:96     .text:00000000000001f4 .L0 
     /tmp/ccDAqeUt.s:531    .text:00000000000001f8 .L0 
   src/syscall_c.cpp:97     .text:00000000000001f8 .L0 
     /tmp/ccDAqeUt.s:536    .text:00000000000001fc .L0 
   src/syscall_c.cpp:98     .text:00000000000001fc .L0 
     /tmp/ccDAqeUt.s:541    .text:0000000000000200 .L0 
     /tmp/ccDAqeUt.s:542    .text:0000000000000200 .L0 
GAS LISTING /tmp/ccDAqeUt.s 			page 22


   src/syscall_c.cpp:100    .text:0000000000000200 .L0 
     /tmp/ccDAqeUt.s:548    .text:0000000000000204 .L0 
     /tmp/ccDAqeUt.s:550    .text:0000000000000204 .L0 
     /tmp/ccDAqeUt.s:552    .text:000000000000020c .L0 
     /tmp/ccDAqeUt.s:553    .text:000000000000020c .L0 
     /tmp/ccDAqeUt.s:555    .text:0000000000000210 .L0 
     /tmp/ccDAqeUt.s:557    .text:0000000000000214 .L0 
     /tmp/ccDAqeUt.s:563    .text:0000000000000214 _Z8sem_waitP7Semafor
     /tmp/ccDAqeUt.s:566    .text:0000000000000214 .L0 
     /tmp/ccDAqeUt.s:568    .text:0000000000000214 .L0 
     /tmp/ccDAqeUt.s:569    .text:0000000000000218 .L0 
     /tmp/ccDAqeUt.s:571    .text:000000000000021c .L0 
     /tmp/ccDAqeUt.s:573    .text:0000000000000220 .L0 
     /tmp/ccDAqeUt.s:576    .text:0000000000000220 .L0 
     /tmp/ccDAqeUt.s:577    .text:0000000000000220 .L0 
   src/syscall_c.cpp:106    .text:0000000000000220 .L0 
     /tmp/ccDAqeUt.s:583    .text:0000000000000224 .L0 
   src/syscall_c.cpp:107    .text:0000000000000224 .L0 
     /tmp/ccDAqeUt.s:588    .text:0000000000000228 .L0 
   src/syscall_c.cpp:108    .text:0000000000000228 .L0 
     /tmp/ccDAqeUt.s:593    .text:000000000000022c .L0 
     /tmp/ccDAqeUt.s:594    .text:000000000000022c .L0 
   src/syscall_c.cpp:110    .text:000000000000022c .L0 
     /tmp/ccDAqeUt.s:600    .text:0000000000000230 .L0 
     /tmp/ccDAqeUt.s:602    .text:0000000000000230 .L0 
     /tmp/ccDAqeUt.s:604    .text:0000000000000238 .L0 
     /tmp/ccDAqeUt.s:605    .text:0000000000000238 .L0 
     /tmp/ccDAqeUt.s:607    .text:000000000000023c .L0 
     /tmp/ccDAqeUt.s:609    .text:0000000000000240 .L0 
     /tmp/ccDAqeUt.s:615    .text:0000000000000240 _Z10sem_signalP7Semafor
     /tmp/ccDAqeUt.s:618    .text:0000000000000240 .L0 
     /tmp/ccDAqeUt.s:620    .text:0000000000000240 .L0 
     /tmp/ccDAqeUt.s:621    .text:0000000000000244 .L0 
     /tmp/ccDAqeUt.s:623    .text:0000000000000248 .L0 
     /tmp/ccDAqeUt.s:625    .text:000000000000024c .L0 
     /tmp/ccDAqeUt.s:628    .text:000000000000024c .L0 
     /tmp/ccDAqeUt.s:629    .text:000000000000024c .L0 
   src/syscall_c.cpp:116    .text:000000000000024c .L0 
     /tmp/ccDAqeUt.s:635    .text:0000000000000250 .L0 
   src/syscall_c.cpp:117    .text:0000000000000250 .L0 
     /tmp/ccDAqeUt.s:640    .text:0000000000000254 .L0 
   src/syscall_c.cpp:118    .text:0000000000000254 .L0 
     /tmp/ccDAqeUt.s:645    .text:0000000000000258 .L0 
     /tmp/ccDAqeUt.s:646    .text:0000000000000258 .L0 
   src/syscall_c.cpp:120    .text:0000000000000258 .L0 
     /tmp/ccDAqeUt.s:652    .text:000000000000025c .L0 
     /tmp/ccDAqeUt.s:654    .text:000000000000025c .L0 
     /tmp/ccDAqeUt.s:656    .text:0000000000000264 .L0 
     /tmp/ccDAqeUt.s:657    .text:0000000000000264 .L0 
     /tmp/ccDAqeUt.s:659    .text:0000000000000268 .L0 
     /tmp/ccDAqeUt.s:661    .text:000000000000026c .L0 
     /tmp/ccDAqeUt.s:667    .text:000000000000026c _Z10time_sleepm
     /tmp/ccDAqeUt.s:670    .text:000000000000026c .L0 
     /tmp/ccDAqeUt.s:672    .text:000000000000026c .L0 
     /tmp/ccDAqeUt.s:673    .text:0000000000000270 .L0 
     /tmp/ccDAqeUt.s:675    .text:0000000000000274 .L0 
     /tmp/ccDAqeUt.s:677    .text:0000000000000278 .L0 
GAS LISTING /tmp/ccDAqeUt.s 			page 23


     /tmp/ccDAqeUt.s:680    .text:0000000000000278 .L0 
     /tmp/ccDAqeUt.s:681    .text:0000000000000278 .L0 
   src/syscall_c.cpp:126    .text:0000000000000278 .L0 
     /tmp/ccDAqeUt.s:687    .text:000000000000027c .L0 
   src/syscall_c.cpp:127    .text:000000000000027c .L0 
     /tmp/ccDAqeUt.s:692    .text:0000000000000280 .L0 
   src/syscall_c.cpp:128    .text:0000000000000280 .L0 
     /tmp/ccDAqeUt.s:697    .text:0000000000000284 .L0 
     /tmp/ccDAqeUt.s:698    .text:0000000000000284 .L0 
   src/syscall_c.cpp:130    .text:0000000000000284 .L0 
     /tmp/ccDAqeUt.s:704    .text:0000000000000288 .L0 
     /tmp/ccDAqeUt.s:706    .text:0000000000000288 .L0 
     /tmp/ccDAqeUt.s:708    .text:0000000000000290 .L0 
     /tmp/ccDAqeUt.s:709    .text:0000000000000290 .L0 
     /tmp/ccDAqeUt.s:711    .text:0000000000000294 .L0 
     /tmp/ccDAqeUt.s:713    .text:0000000000000298 .L0 
     /tmp/ccDAqeUt.s:719    .text:0000000000000298 _Z4getcv
     /tmp/ccDAqeUt.s:722    .text:0000000000000298 .L0 
     /tmp/ccDAqeUt.s:723    .text:0000000000000298 .L0 
     /tmp/ccDAqeUt.s:724    .text:000000000000029c .L0 
     /tmp/ccDAqeUt.s:726    .text:00000000000002a0 .L0 
     /tmp/ccDAqeUt.s:728    .text:00000000000002a4 .L0 
     /tmp/ccDAqeUt.s:730    .text:00000000000002a4 .L0 
   src/syscall_c.cpp:135    .text:00000000000002a4 .L0 
     /tmp/ccDAqeUt.s:736    .text:00000000000002a8 .L0 
   src/syscall_c.cpp:136    .text:00000000000002a8 .L0 
     /tmp/ccDAqeUt.s:741    .text:00000000000002ac .L0 
     /tmp/ccDAqeUt.s:742    .text:00000000000002ac .L0 
   src/syscall_c.cpp:138    .text:00000000000002ac .L0 
     /tmp/ccDAqeUt.s:748    .text:00000000000002b0 .L0 
     /tmp/ccDAqeUt.s:750    .text:00000000000002b0 .L0 
     /tmp/ccDAqeUt.s:752    .text:00000000000002b8 .L0 
     /tmp/ccDAqeUt.s:753    .text:00000000000002b8 .L0 
     /tmp/ccDAqeUt.s:755    .text:00000000000002bc .L0 
     /tmp/ccDAqeUt.s:757    .text:00000000000002c0 .L0 
     /tmp/ccDAqeUt.s:763    .text:00000000000002c0 _Z4putcc
     /tmp/ccDAqeUt.s:766    .text:00000000000002c0 .L0 
     /tmp/ccDAqeUt.s:768    .text:00000000000002c0 .L0 
     /tmp/ccDAqeUt.s:769    .text:00000000000002c4 .L0 
     /tmp/ccDAqeUt.s:771    .text:00000000000002c8 .L0 
     /tmp/ccDAqeUt.s:773    .text:00000000000002cc .L0 
     /tmp/ccDAqeUt.s:776    .text:00000000000002cc .L0 
     /tmp/ccDAqeUt.s:777    .text:00000000000002cc .L0 
   src/syscall_c.cpp:144    .text:00000000000002cc .L0 
     /tmp/ccDAqeUt.s:783    .text:00000000000002d0 .L0 
   src/syscall_c.cpp:145    .text:00000000000002d0 .L0 
     /tmp/ccDAqeUt.s:788    .text:00000000000002d4 .L0 
   src/syscall_c.cpp:146    .text:00000000000002d4 .L0 
     /tmp/ccDAqeUt.s:794    .text:00000000000002d8 .L0 
     /tmp/ccDAqeUt.s:795    .text:00000000000002dc .L0 
     /tmp/ccDAqeUt.s:796    .text:00000000000002dc .L0 
     /tmp/ccDAqeUt.s:798    .text:00000000000002e0 .L0 
     /tmp/ccDAqeUt.s:800    .text:00000000000002e4 .L0 
     /tmp/ccDAqeUt.s:806    .text:00000000000002e4 .L0 
     /tmp/ccDAqeUt.s:210    .text:00000000000000c8 .L7
     /tmp/ccDAqeUt.s:148    .text:000000000000008c .L6
     /tmp/ccDAqeUt.s:319    .text:0000000000000144 .L11
GAS LISTING /tmp/ccDAqeUt.s 			page 24


     /tmp/ccDAqeUt.s:257    .text:0000000000000108 .L10
     /tmp/ccDAqeUt.s:1508   .debug_abbrev:0000000000000000 .Ldebug_abbrev0
     /tmp/ccDAqeUt.s:2526   .debug_str:00000000000001af .LASF62
     /tmp/ccDAqeUt.s:2592   .debug_str:0000000000000414 .LASF63
     /tmp/ccDAqeUt.s:2528   .debug_str:0000000000000273 .LASF64
     /tmp/ccDAqeUt.s:5      .text:0000000000000000 .Ltext0
     /tmp/ccDAqeUt.s:803    .text:00000000000002e4 .Letext0
     /tmp/ccDAqeUt.s:2460   .debug_line:0000000000000000 .Ldebug_line0
     /tmp/ccDAqeUt.s:2538   .debug_str:00000000000002b7 .LASF0
     /tmp/ccDAqeUt.s:2510   .debug_str:000000000000014e .LASF1
     /tmp/ccDAqeUt.s:2498   .debug_str:000000000000010f .LASF2
     /tmp/ccDAqeUt.s:2480   .debug_str:0000000000000091 .LASF4
     /tmp/ccDAqeUt.s:2506   .debug_str:0000000000000133 .LASF3
     /tmp/ccDAqeUt.s:2466   .debug_str:0000000000000021 .LASF5
     /tmp/ccDAqeUt.s:2546   .debug_str:00000000000002e9 .LASF6
     /tmp/ccDAqeUt.s:2464   .debug_str:000000000000000e .LASF7
     /tmp/ccDAqeUt.s:2494   .debug_str:00000000000000ed .LASF8
     /tmp/ccDAqeUt.s:2548   .debug_str:00000000000002f0 .LASF9
     /tmp/ccDAqeUt.s:2478   .debug_str:0000000000000083 .LASF10
     /tmp/ccDAqeUt.s:2594   .debug_str:0000000000000426 .LASF11
     /tmp/ccDAqeUt.s:2496   .debug_str:0000000000000100 .LASF12
     /tmp/ccDAqeUt.s:2578   .debug_str:00000000000003d3 .LASF13
     /tmp/ccDAqeUt.s:2556   .debug_str:0000000000000336 .LASF14
     /tmp/ccDAqeUt.s:2514   .debug_str:000000000000016a .LASF15
     /tmp/ccDAqeUt.s:2488   .debug_str:00000000000000bb .LASF16
     /tmp/ccDAqeUt.s:2550   .debug_str:0000000000000300 .LASF17
     /tmp/ccDAqeUt.s:2552   .debug_str:0000000000000316 .LASF18
     /tmp/ccDAqeUt.s:2472   .debug_str:0000000000000037 .LASF19
     /tmp/ccDAqeUt.s:2522   .debug_str:0000000000000199 .LASF20
     /tmp/ccDAqeUt.s:2566   .debug_str:0000000000000380 .LASF41
     /tmp/ccDAqeUt.s:2512   .debug_str:0000000000000161 .LASF43
     /tmp/ccDAqeUt.s:764    .text:00000000000002c0 .LFB13
     /tmp/ccDAqeUt.s:801    .text:00000000000002e4 .LFE13
     /tmp/ccDAqeUt.s:2542   .debug_str:00000000000002cf .LASF21
     /tmp/ccDAqeUt.s:2500   .debug_str:000000000000011d .LASF23
     /tmp/ccDAqeUt.s:2584   .debug_str:00000000000003f9 .LASF25
     /tmp/ccDAqeUt.s:720    .text:0000000000000298 .LFB12
     /tmp/ccDAqeUt.s:758    .text:00000000000002c0 .LFE12
     /tmp/ccDAqeUt.s:2516   .debug_str:0000000000000176 .LASF22
     /tmp/ccDAqeUt.s:2540   .debug_str:00000000000002c4 .LASF24
     /tmp/ccDAqeUt.s:2572   .debug_str:00000000000003a4 .LASF26
     /tmp/ccDAqeUt.s:668    .text:000000000000026c .LFB11
     /tmp/ccDAqeUt.s:714    .text:0000000000000298 .LFE11
     /tmp/ccDAqeUt.s:2484   .debug_str:00000000000000b0 .LASF27
     /tmp/ccDAqeUt.s:1943   .debug_loc:0000000000000000 .LLST28
     /tmp/ccDAqeUt.s:2470   .debug_str:0000000000000031 .LASF28
     /tmp/ccDAqeUt.s:1957   .debug_loc:0000000000000039 .LLST29
     /tmp/ccDAqeUt.s:2520   .debug_str:000000000000018e .LASF29
     /tmp/ccDAqeUt.s:2482   .debug_str:0000000000000098 .LASF30
     /tmp/ccDAqeUt.s:616    .text:0000000000000240 .LFB10
     /tmp/ccDAqeUt.s:662    .text:000000000000026c .LFE10
     /tmp/ccDAqeUt.s:1971   .debug_loc:0000000000000072 .LLST26
     /tmp/ccDAqeUt.s:2590   .debug_str:000000000000040e .LASF31
     /tmp/ccDAqeUt.s:1985   .debug_loc:00000000000000ab .LLST27
     /tmp/ccDAqeUt.s:2530   .debug_str:0000000000000293 .LASF32
     /tmp/ccDAqeUt.s:2560   .debug_str:000000000000034f .LASF33
     /tmp/ccDAqeUt.s:564    .text:0000000000000214 .LFB9
GAS LISTING /tmp/ccDAqeUt.s 			page 25


     /tmp/ccDAqeUt.s:610    .text:0000000000000240 .LFE9
     /tmp/ccDAqeUt.s:1999   .debug_loc:00000000000000e4 .LLST24
     /tmp/ccDAqeUt.s:2013   .debug_loc:000000000000011d .LLST25
     /tmp/ccDAqeUt.s:2504   .debug_str:0000000000000129 .LASF34
     /tmp/ccDAqeUt.s:2568   .debug_str:0000000000000385 .LASF35
     /tmp/ccDAqeUt.s:512    .text:00000000000001e8 .LFB8
     /tmp/ccDAqeUt.s:558    .text:0000000000000214 .LFE8
     /tmp/ccDAqeUt.s:2502   .debug_str:0000000000000122 .LASF36
     /tmp/ccDAqeUt.s:2027   .debug_loc:0000000000000156 .LLST22
     /tmp/ccDAqeUt.s:2041   .debug_loc:000000000000018f .LLST23
     /tmp/ccDAqeUt.s:2570   .debug_str:000000000000039b .LASF37
     /tmp/ccDAqeUt.s:2554   .debug_str:000000000000031f .LASF38
     /tmp/ccDAqeUt.s:454    .text:00000000000001b8 .LFB7
     /tmp/ccDAqeUt.s:506    .text:00000000000001e8 .LFE7
     /tmp/ccDAqeUt.s:2055   .debug_loc:00000000000001c8 .LLST20
     /tmp/ccDAqeUt.s:2486   .debug_str:00000000000000b6 .LASF39
     /tmp/ccDAqeUt.s:2069   .debug_loc:0000000000000201 .LLST21
     /tmp/ccDAqeUt.s:2468   .debug_str:0000000000000028 .LASF40
     /tmp/ccDAqeUt.s:2564   .debug_str:0000000000000374 .LASF42
     /tmp/ccDAqeUt.s:2544   .debug_str:00000000000002d4 .LASF44
     /tmp/ccDAqeUt.s:411    .text:0000000000000194 .LFB6
     /tmp/ccDAqeUt.s:448    .text:00000000000001b8 .LFE6
     /tmp/ccDAqeUt.s:2562   .debug_str:0000000000000364 .LASF65
     /tmp/ccDAqeUt.s:2492   .debug_str:00000000000000d8 .LASF66
     /tmp/ccDAqeUt.s:376    .text:0000000000000174 .LFB5
     /tmp/ccDAqeUt.s:405    .text:0000000000000194 .LFE5
     /tmp/ccDAqeUt.s:2580   .debug_str:00000000000003e3 .LASF45
     /tmp/ccDAqeUt.s:2576   .debug_str:00000000000003c2 .LASF46
     /tmp/ccDAqeUt.s:332    .text:000000000000014c .LFB4
     /tmp/ccDAqeUt.s:370    .text:0000000000000174 .LFE4
     /tmp/ccDAqeUt.s:2518   .debug_str:000000000000017c .LASF47
     /tmp/ccDAqeUt.s:2474   .debug_str:000000000000003d .LASF48
     /tmp/ccDAqeUt.s:223    .text:00000000000000d0 .LFB3
     /tmp/ccDAqeUt.s:326    .text:000000000000014c .LFE3
     /tmp/ccDAqeUt.s:2083   .debug_loc:000000000000023a .LLST12
     /tmp/ccDAqeUt.s:2524   .debug_str:00000000000001a1 .LASF49
     /tmp/ccDAqeUt.s:2109   .debug_loc:00000000000002ac .LLST13
     /tmp/ccDAqeUt.s:2131   .debug_loc:000000000000030b .LLST14
     /tmp/ccDAqeUt.s:2153   .debug_loc:000000000000036a .LLST15
     /tmp/ccDAqeUt.s:2536   .debug_str:00000000000002af .LASF50
     /tmp/ccDAqeUt.s:2179   .debug_loc:00000000000003dc .LLST16
     /tmp/ccDAqeUt.s:2508   .debug_str:0000000000000145 .LASF51
     /tmp/ccDAqeUt.s:2201   .debug_loc:000000000000043b .LLST17
     /tmp/ccDAqeUt.s:2534   .debug_str:00000000000002aa .LASF52
     /tmp/ccDAqeUt.s:2223   .debug_loc:000000000000049a .LLST18
     /tmp/ccDAqeUt.s:2230   .debug_loc:00000000000004bd .LLST19
     /tmp/ccDAqeUt.s:256    .text:0000000000000108 .LVL19
     /tmp/ccDAqeUt.s:2574   .debug_str:00000000000003b4 .LASF53
     /tmp/ccDAqeUt.s:2476   .debug_str:0000000000000062 .LASF54
     /tmp/ccDAqeUt.s:114    .text:0000000000000054 .LFB2
     /tmp/ccDAqeUt.s:217    .text:00000000000000d0 .LFE2
     /tmp/ccDAqeUt.s:2237   .debug_loc:00000000000004e0 .LLST4
     /tmp/ccDAqeUt.s:2263   .debug_loc:0000000000000552 .LLST5
     /tmp/ccDAqeUt.s:2285   .debug_loc:00000000000005b1 .LLST6
     /tmp/ccDAqeUt.s:2307   .debug_loc:0000000000000610 .LLST7
     /tmp/ccDAqeUt.s:2333   .debug_loc:0000000000000682 .LLST8
     /tmp/ccDAqeUt.s:2355   .debug_loc:00000000000006e1 .LLST9
GAS LISTING /tmp/ccDAqeUt.s 			page 26


     /tmp/ccDAqeUt.s:2377   .debug_loc:0000000000000740 .LLST10
     /tmp/ccDAqeUt.s:2384   .debug_loc:0000000000000763 .LLST11
     /tmp/ccDAqeUt.s:147    .text:000000000000008c .LVL9
     /tmp/ccDAqeUt.s:2558   .debug_str:0000000000000346 .LASF55
     /tmp/ccDAqeUt.s:2462   .debug_str:0000000000000000 .LASF56
     /tmp/ccDAqeUt.s:62     .text:0000000000000028 .LFB1
     /tmp/ccDAqeUt.s:108    .text:0000000000000054 .LFE1
     /tmp/ccDAqeUt.s:2490   .debug_str:00000000000000d1 .LASF57
     /tmp/ccDAqeUt.s:2391   .debug_loc:0000000000000786 .LLST2
     /tmp/ccDAqeUt.s:2586   .debug_str:0000000000000402 .LASF58
     /tmp/ccDAqeUt.s:2405   .debug_loc:00000000000007bf .LLST3
     /tmp/ccDAqeUt.s:2582   .debug_str:00000000000003ef .LASF59
     /tmp/ccDAqeUt.s:2532   .debug_str:000000000000029c .LASF60
     /tmp/ccDAqeUt.s:10     .text:0000000000000000 .LFB0
     /tmp/ccDAqeUt.s:56     .text:0000000000000028 .LFE0
     /tmp/ccDAqeUt.s:2588   .debug_str:0000000000000409 .LASF61
     /tmp/ccDAqeUt.s:2419   .debug_loc:00000000000007f8 .LLST0
     /tmp/ccDAqeUt.s:2433   .debug_loc:0000000000000831 .LLST1
     /tmp/ccDAqeUt.s:671    .text:000000000000026c .LVL41
     /tmp/ccDAqeUt.s:702    .text:0000000000000288 .LVL43
     /tmp/ccDAqeUt.s:679    .text:0000000000000278 .LVL42
     /tmp/ccDAqeUt.s:619    .text:0000000000000240 .LVL38
     /tmp/ccDAqeUt.s:650    .text:000000000000025c .LVL40
     /tmp/ccDAqeUt.s:627    .text:000000000000024c .LVL39
     /tmp/ccDAqeUt.s:567    .text:0000000000000214 .LVL35
     /tmp/ccDAqeUt.s:598    .text:0000000000000230 .LVL37
     /tmp/ccDAqeUt.s:575    .text:0000000000000220 .LVL36
     /tmp/ccDAqeUt.s:515    .text:00000000000001e8 .LVL32
     /tmp/ccDAqeUt.s:546    .text:0000000000000204 .LVL34
     /tmp/ccDAqeUt.s:523    .text:00000000000001f4 .LVL33
     /tmp/ccDAqeUt.s:457    .text:00000000000001b8 .LVL29
     /tmp/ccDAqeUt.s:494    .text:00000000000001d8 .LVL31
     /tmp/ccDAqeUt.s:465    .text:00000000000001c4 .LVL30
     /tmp/ccDAqeUt.s:226    .text:00000000000000d0 .LVL16
     /tmp/ccDAqeUt.s:254    .text:0000000000000100 .LVL18
     /tmp/ccDAqeUt.s:311    .text:0000000000000138 .LVL22
     /tmp/ccDAqeUt.s:318    .text:0000000000000144 .LVL24
     /tmp/ccDAqeUt.s:323    .text:0000000000000148 .LVL25
     /tmp/ccDAqeUt.s:308    .text:0000000000000134 .LVL21
     /tmp/ccDAqeUt.s:314    .text:000000000000013c .LVL23
     /tmp/ccDAqeUt.s:245    .text:00000000000000f8 .LVL17
     /tmp/ccDAqeUt.s:295    .text:0000000000000124 .LVL20
     /tmp/ccDAqeUt.s:117    .text:0000000000000054 .LVL6
     /tmp/ccDAqeUt.s:145    .text:0000000000000084 .LVL8
     /tmp/ccDAqeUt.s:202    .text:00000000000000bc .LVL12
     /tmp/ccDAqeUt.s:209    .text:00000000000000c8 .LVL14
     /tmp/ccDAqeUt.s:214    .text:00000000000000cc .LVL15
     /tmp/ccDAqeUt.s:199    .text:00000000000000b8 .LVL11
     /tmp/ccDAqeUt.s:205    .text:00000000000000c0 .LVL13
     /tmp/ccDAqeUt.s:136    .text:000000000000007c .LVL7
     /tmp/ccDAqeUt.s:186    .text:00000000000000a8 .LVL10
     /tmp/ccDAqeUt.s:65     .text:0000000000000028 .LVL3
     /tmp/ccDAqeUt.s:96     .text:0000000000000044 .LVL5
     /tmp/ccDAqeUt.s:73     .text:0000000000000034 .LVL4
     /tmp/ccDAqeUt.s:14     .text:0000000000000000 .LVL0
     /tmp/ccDAqeUt.s:45     .text:000000000000001c .LVL2
     /tmp/ccDAqeUt.s:22     .text:000000000000000c .LVL1
GAS LISTING /tmp/ccDAqeUt.s 			page 27


     /tmp/ccDAqeUt.s:807    .debug_info:0000000000000000 .Ldebug_info0

NO UNDEFINED SYMBOLS
