GAS LISTING /tmp/ccS2ESdj.s 			page 1


   1              		.file	"syscall_cpp.cpp"
   2              		.option pic
   3              		.option norelax
   4              		.text
   5              	.Ltext0:
   6              		.section	.text._ZN6Thread3runEv,"axG",@progbits,_ZN6Thread3runEv,comdat
   7              		.align	2
   8              		.weak	_ZN6Thread3runEv
  10              	_ZN6Thread3runEv:
  11              	.LFB10:
  12              		.file 1 "src/../h/syscall_cpp.hpp"
   1:src/../h/syscall_cpp.hpp **** #ifndef syscall_cpp_hpp
   2:src/../h/syscall_cpp.hpp **** #define syscall_cpp_hpp
   3:src/../h/syscall_cpp.hpp **** #include "syscall_c.h"
   4:src/../h/syscall_cpp.hpp **** #include "../lib/hw.h"
   5:src/../h/syscall_cpp.hpp **** #include "AlokatorMemorije.h"
   6:src/../h/syscall_cpp.hpp **** #include "TCB.hpp"
   7:src/../h/syscall_cpp.hpp **** #include "Semafor.hpp"
   8:src/../h/syscall_cpp.hpp **** 
   9:src/../h/syscall_cpp.hpp **** void* operator new (size_t);
  10:src/../h/syscall_cpp.hpp **** void operator delete (void*) noexcept;
  11:src/../h/syscall_cpp.hpp **** 
  12:src/../h/syscall_cpp.hpp **** class Thread {
  13:src/../h/syscall_cpp.hpp **** public:
  14:src/../h/syscall_cpp.hpp ****     Thread (void (*body)(void*), void* arg);
  15:src/../h/syscall_cpp.hpp ****     virtual ~Thread ();
  16:src/../h/syscall_cpp.hpp ****     int start ();
  17:src/../h/syscall_cpp.hpp ****     void join();
  18:src/../h/syscall_cpp.hpp ****     static void dispatch ();
  19:src/../h/syscall_cpp.hpp ****     static int sleep (time_t);
  20:src/../h/syscall_cpp.hpp **** protected:
  21:src/../h/syscall_cpp.hpp ****     Thread ();
  22:src/../h/syscall_cpp.hpp ****     virtual void run () {}
  13              		.loc 1 22 18
  14              		.cfi_startproc
  15              	.LVL0:
  16 0000 130101FF 		addi	sp,sp,-16
  17              		.cfi_def_cfa_offset 16
  18 0004 23348100 		sd	s0,8(sp)
  19              		.cfi_offset 8, -8
  20 0008 13040101 		addi	s0,sp,16
  21              		.cfi_def_cfa 8, 0
  22              		.loc 1 22 26 is_stmt 0
  23 000c 03348100 		ld	s0,8(sp)
  24              		.cfi_restore 8
  25              		.cfi_def_cfa 2, 16
  26 0010 13010101 		addi	sp,sp,16
  27              		.cfi_def_cfa_offset 0
  28 0014 67800000 		jr	ra
  29              		.cfi_endproc
  30              	.LFE10:
  32              		.section	.text._ZN14PeriodicThread18periodicActivationEv,"axG",@progbits,_ZN14PeriodicThread18peri
  33              		.align	2
  34              		.weak	_ZN14PeriodicThread18periodicActivationEv
  36              	_ZN14PeriodicThread18periodicActivationEv:
  37              	.LFB18:
  23:src/../h/syscall_cpp.hpp **** private:
GAS LISTING /tmp/ccS2ESdj.s 			page 2


  24:src/../h/syscall_cpp.hpp ****     typedef TCB* thread_t;
  25:src/../h/syscall_cpp.hpp ****     static void threadWrapper(void*);
  26:src/../h/syscall_cpp.hpp ****     thread_t myHandle;
  27:src/../h/syscall_cpp.hpp ****     void (*body)(void*); void* arg;
  28:src/../h/syscall_cpp.hpp **** };
  29:src/../h/syscall_cpp.hpp **** class Semaphore {
  30:src/../h/syscall_cpp.hpp **** public:
  31:src/../h/syscall_cpp.hpp ****     explicit Semaphore (unsigned init = 1);
  32:src/../h/syscall_cpp.hpp ****     virtual ~Semaphore ();
  33:src/../h/syscall_cpp.hpp ****     int wait ();
  34:src/../h/syscall_cpp.hpp ****     int signal ();
  35:src/../h/syscall_cpp.hpp **** private:
  36:src/../h/syscall_cpp.hpp ****     typedef Semafor* sem_t;
  37:src/../h/syscall_cpp.hpp ****     sem_t myHandle;
  38:src/../h/syscall_cpp.hpp **** };
  39:src/../h/syscall_cpp.hpp **** class PeriodicThread : public Thread {
  40:src/../h/syscall_cpp.hpp **** public:
  41:src/../h/syscall_cpp.hpp ****     void terminate ();
  42:src/../h/syscall_cpp.hpp ****     virtual ~PeriodicThread(){period = 0;};
  43:src/../h/syscall_cpp.hpp **** protected:
  44:src/../h/syscall_cpp.hpp ****     PeriodicThread (time_t period): Thread(), period((period == 0)?1:period){}
  45:src/../h/syscall_cpp.hpp ****     virtual void periodicActivation () {}
  38              		.loc 1 45 18 is_stmt 1
  39              		.cfi_startproc
  40              	.LVL1:
  41 0000 130101FF 		addi	sp,sp,-16
  42              		.cfi_def_cfa_offset 16
  43 0004 23348100 		sd	s0,8(sp)
  44              		.cfi_offset 8, -8
  45 0008 13040101 		addi	s0,sp,16
  46              		.cfi_def_cfa 8, 0
  47              		.loc 1 45 41 is_stmt 0
  48 000c 03348100 		ld	s0,8(sp)
  49              		.cfi_restore 8
  50              		.cfi_def_cfa 2, 16
  51 0010 13010101 		addi	sp,sp,16
  52              		.cfi_def_cfa_offset 0
  53 0014 67800000 		jr	ra
  54              		.cfi_endproc
  55              	.LFE18:
  57              		.text
  58              		.align	2
  59              		.globl	_ZN6Thread13threadWrapperEPv
  61              	_ZN6Thread13threadWrapperEPv:
  62              	.LFB33:
  63              		.file 2 "src/syscall_cpp.cpp"
   1:src/syscall_cpp.cpp **** #include "../h/syscall_cpp.hpp"
   2:src/syscall_cpp.cpp **** 
   3:src/syscall_cpp.cpp **** void* operator new(size_t vel){
   4:src/syscall_cpp.cpp ****     return mem_alloc(vel);
   5:src/syscall_cpp.cpp **** }
   6:src/syscall_cpp.cpp **** 
   7:src/syscall_cpp.cpp **** void operator delete (void* adr) noexcept {
   8:src/syscall_cpp.cpp ****     mem_free(adr);
   9:src/syscall_cpp.cpp **** }
  10:src/syscall_cpp.cpp **** 
  11:src/syscall_cpp.cpp **** Thread::Thread(void (*body)(void *), void *arg) {
GAS LISTING /tmp/ccS2ESdj.s 			page 3


  12:src/syscall_cpp.cpp ****     thread_create_cpp(&myHandle, body, arg);
  13:src/syscall_cpp.cpp **** }
  14:src/syscall_cpp.cpp **** 
  15:src/syscall_cpp.cpp **** Thread::~Thread() {
  16:src/syscall_cpp.cpp ****     delete myHandle;
  17:src/syscall_cpp.cpp **** }
  18:src/syscall_cpp.cpp **** 
  19:src/syscall_cpp.cpp **** int Thread::start() {
  20:src/syscall_cpp.cpp ****     Scheduler::dohvatiInstancu()->Stavi(myHandle);
  21:src/syscall_cpp.cpp ****     return 0;
  22:src/syscall_cpp.cpp **** }
  23:src/syscall_cpp.cpp **** 
  24:src/syscall_cpp.cpp **** void Thread::dispatch() {
  25:src/syscall_cpp.cpp ****     thread_dispatch();
  26:src/syscall_cpp.cpp **** }
  27:src/syscall_cpp.cpp **** 
  28:src/syscall_cpp.cpp **** Thread::Thread() {
  29:src/syscall_cpp.cpp ****     thread_create_cpp(&myHandle, threadWrapper, this);
  30:src/syscall_cpp.cpp **** }
  31:src/syscall_cpp.cpp **** 
  32:src/syscall_cpp.cpp **** void Thread::threadWrapper(void *thread) {
  64              		.loc 2 32 42 is_stmt 1
  65              		.cfi_startproc
  66              	.LVL2:
  67 0000 130101FF 		addi	sp,sp,-16
  68              		.cfi_def_cfa_offset 16
  69 0004 23341100 		sd	ra,8(sp)
  70 0008 23308100 		sd	s0,0(sp)
  71              		.cfi_offset 1, -8
  72              		.cfi_offset 8, -16
  73 000c 13040101 		addi	s0,sp,16
  74              		.cfi_def_cfa 8, 0
  33:src/syscall_cpp.cpp ****     Thread* thr = (Thread*) thread;
  75              		.loc 2 33 5
  76              	.LVL3:
  34:src/syscall_cpp.cpp ****     thr->run();
  77              		.loc 2 34 5
  78              		.loc 2 34 14 is_stmt 0
  79 0010 83370500 		ld	a5,0(a0)
  80 0014 83B70701 		ld	a5,16(a5)
  81              		.loc 2 34 13
  82 0018 E7800700 		jalr	a5
  83              	.LVL4:
  35:src/syscall_cpp.cpp **** }
  84              		.loc 2 35 1
  85 001c 83308100 		ld	ra,8(sp)
  86              		.cfi_restore 1
  87 0020 03340100 		ld	s0,0(sp)
  88              		.cfi_restore 8
  89              		.cfi_def_cfa 2, 16
  90 0024 13010101 		addi	sp,sp,16
  91              		.cfi_def_cfa_offset 0
  92 0028 67800000 		jr	ra
  93              		.cfi_endproc
  94              	.LFE33:
  96              		.align	2
  97              		.globl	_ZN14PeriodicThread15periodicWrapperEPv
GAS LISTING /tmp/ccS2ESdj.s 			page 4


  99              	_ZN14PeriodicThread15periodicWrapperEPv:
 100              	.LFB48:
  36:src/syscall_cpp.cpp **** 
  37:src/syscall_cpp.cpp **** int Thread::sleep(time_t slice) {
  38:src/syscall_cpp.cpp ****     return time_sleep(slice);
  39:src/syscall_cpp.cpp **** }
  40:src/syscall_cpp.cpp **** 
  41:src/syscall_cpp.cpp **** void Thread::join() {
  42:src/syscall_cpp.cpp ****     if(myHandle != nullptr)thread_join(myHandle);
  43:src/syscall_cpp.cpp **** }
  44:src/syscall_cpp.cpp **** 
  45:src/syscall_cpp.cpp **** Semaphore::Semaphore(unsigned int init) {
  46:src/syscall_cpp.cpp ****     sem_open(&myHandle, init);
  47:src/syscall_cpp.cpp **** }
  48:src/syscall_cpp.cpp **** 
  49:src/syscall_cpp.cpp **** Semaphore::~Semaphore() {
  50:src/syscall_cpp.cpp ****     sem_close(myHandle);
  51:src/syscall_cpp.cpp **** }
  52:src/syscall_cpp.cpp **** 
  53:src/syscall_cpp.cpp **** int Semaphore::wait() {
  54:src/syscall_cpp.cpp ****     return sem_wait(myHandle);
  55:src/syscall_cpp.cpp **** }
  56:src/syscall_cpp.cpp **** 
  57:src/syscall_cpp.cpp **** int Semaphore::signal() {
  58:src/syscall_cpp.cpp ****     return sem_signal(myHandle);
  59:src/syscall_cpp.cpp **** }
  60:src/syscall_cpp.cpp **** 
  61:src/syscall_cpp.cpp **** char Console::getc() {
  62:src/syscall_cpp.cpp ****     return ::getc();
  63:src/syscall_cpp.cpp **** }
  64:src/syscall_cpp.cpp **** 
  65:src/syscall_cpp.cpp **** void Console::putc(char c) {
  66:src/syscall_cpp.cpp ****     ::putc(c);
  67:src/syscall_cpp.cpp **** }
  68:src/syscall_cpp.cpp **** 
  69:src/syscall_cpp.cpp **** void PeriodicThread::run() {
  70:src/syscall_cpp.cpp ****     time_t sl = period;
  71:src/syscall_cpp.cpp ****     while(period){
  72:src/syscall_cpp.cpp ****         TCB* handle;
  73:src/syscall_cpp.cpp ****         thread_create(&handle, periodicWrapper, this);
  74:src/syscall_cpp.cpp ****         thread_join(handle);
  75:src/syscall_cpp.cpp ****         time_sleep(sl);
  76:src/syscall_cpp.cpp ****         delete handle;
  77:src/syscall_cpp.cpp ****     }
  78:src/syscall_cpp.cpp **** }
  79:src/syscall_cpp.cpp **** 
  80:src/syscall_cpp.cpp **** void PeriodicThread::periodicWrapper(void *thread) {
 101              		.loc 2 80 52 is_stmt 1
 102              		.cfi_startproc
 103              	.LVL5:
 104 002c 130101FF 		addi	sp,sp,-16
 105              		.cfi_def_cfa_offset 16
 106 0030 23341100 		sd	ra,8(sp)
 107 0034 23308100 		sd	s0,0(sp)
 108              		.cfi_offset 1, -8
 109              		.cfi_offset 8, -16
 110 0038 13040101 		addi	s0,sp,16
GAS LISTING /tmp/ccS2ESdj.s 			page 5


 111              		.cfi_def_cfa 8, 0
  81:src/syscall_cpp.cpp ****     PeriodicThread* thr = (PeriodicThread*) thread;
 112              		.loc 2 81 5
 113              	.LVL6:
  82:src/syscall_cpp.cpp ****     thr->periodicActivation();
 114              		.loc 2 82 5
 115              		.loc 2 82 29 is_stmt 0
 116 003c 83370500 		ld	a5,0(a0)
 117 0040 83B78701 		ld	a5,24(a5)
 118              		.loc 2 82 28
 119 0044 E7800700 		jalr	a5
 120              	.LVL7:
  83:src/syscall_cpp.cpp **** }
 121              		.loc 2 83 1
 122 0048 83308100 		ld	ra,8(sp)
 123              		.cfi_restore 1
 124 004c 03340100 		ld	s0,0(sp)
 125              		.cfi_restore 8
 126              		.cfi_def_cfa 2, 16
 127 0050 13010101 		addi	sp,sp,16
 128              		.cfi_def_cfa_offset 0
 129 0054 67800000 		jr	ra
 130              		.cfi_endproc
 131              	.LFE48:
 133              		.align	2
 134              		.globl	_ZN9SemaphoreD2Ev
 136              	_ZN9SemaphoreD2Ev:
 137              	.LFB40:
  49:src/syscall_cpp.cpp ****     sem_close(myHandle);
 138              		.loc 2 49 1 is_stmt 1
 139              		.cfi_startproc
 140              		.cfi_personality 0x9b,DW.ref.__gxx_personality_v0
 141              		.cfi_lsda 0x1b,.LLSDA40
 142              	.LVL8:
 143 0058 130101FF 		addi	sp,sp,-16
 144              		.cfi_def_cfa_offset 16
 145 005c 23341100 		sd	ra,8(sp)
 146 0060 23308100 		sd	s0,0(sp)
 147              		.cfi_offset 1, -8
 148              		.cfi_offset 8, -16
 149 0064 13040101 		addi	s0,sp,16
 150              		.cfi_def_cfa 8, 0
 151              	.LBB13:
  49:src/syscall_cpp.cpp ****     sem_close(myHandle);
 152              		.loc 2 49 23 is_stmt 0
 153 0068 97070000 		lla	a5,_ZTV9Semaphore+16
 153      93870700 
 154 0070 2330F500 		sd	a5,0(a0)
  50:src/syscall_cpp.cpp **** }
 155              		.loc 2 50 5 is_stmt 1
  50:src/syscall_cpp.cpp **** }
 156              		.loc 2 50 14 is_stmt 0
 157 0074 03358500 		ld	a0,8(a0)
 158              	.LVL9:
 159 0078 97000000 		call	_Z9sem_closeP7Semafor@plt
 159      E7800000 
 160              	.LVL10:
GAS LISTING /tmp/ccS2ESdj.s 			page 6


 161              	.LBE13:
  51:src/syscall_cpp.cpp **** 
 162              		.loc 2 51 1
 163 0080 83308100 		ld	ra,8(sp)
 164              		.cfi_restore 1
 165 0084 03340100 		ld	s0,0(sp)
 166              		.cfi_restore 8
 167              		.cfi_def_cfa 2, 16
 168 0088 13010101 		addi	sp,sp,16
 169              		.cfi_def_cfa_offset 0
 170 008c 67800000 		jr	ra
 171              		.cfi_endproc
 172              	.LFE40:
 173              		.globl	__gxx_personality_v0
 174              		.section	.gcc_except_table,"a",@progbits
 175              	.LLSDA40:
 176 0000 FF       		.byte	0xff
 177 0001 FF       		.byte	0xff
 178 0002 03       		.byte	0x3
 179 0003 00       		.byte	0
 180              		.text
 182              		.globl	_ZN9SemaphoreD1Ev
 183              		.set	_ZN9SemaphoreD1Ev,_ZN9SemaphoreD2Ev
 184              		.align	2
 185              		.globl	_Znwm
 187              	_Znwm:
 188              	.LFB19:
   3:src/syscall_cpp.cpp **** void operator delete (void* adr) noexcept {
 189              		.loc 2 3 31 is_stmt 1
 190              		.cfi_startproc
 191              	.LVL11:
 192 0090 130101FF 		addi	sp,sp,-16
 193              		.cfi_def_cfa_offset 16
 194 0094 23341100 		sd	ra,8(sp)
 195 0098 23308100 		sd	s0,0(sp)
 196              		.cfi_offset 1, -8
 197              		.cfi_offset 8, -16
 198 009c 13040101 		addi	s0,sp,16
 199              		.cfi_def_cfa 8, 0
   4:src/syscall_cpp.cpp **** }
 200              		.loc 2 4 5
   4:src/syscall_cpp.cpp **** }
 201              		.loc 2 4 21 is_stmt 0
 202 00a0 97000000 		call	_Z9mem_allocm@plt
 202      E7800000 
 203              	.LVL12:
   5:src/syscall_cpp.cpp **** 
 204              		.loc 2 5 1
 205 00a8 83308100 		ld	ra,8(sp)
 206              		.cfi_restore 1
 207 00ac 03340100 		ld	s0,0(sp)
 208              		.cfi_restore 8
 209              		.cfi_def_cfa 2, 16
 210 00b0 13010101 		addi	sp,sp,16
 211              		.cfi_def_cfa_offset 0
 212 00b4 67800000 		jr	ra
 213              		.cfi_endproc
GAS LISTING /tmp/ccS2ESdj.s 			page 7


 214              	.LFE19:
 216              		.align	2
 217              		.globl	_ZdlPv
 219              	_ZdlPv:
 220              	.LFB20:
   7:src/syscall_cpp.cpp ****     mem_free(adr);
 221              		.loc 2 7 43 is_stmt 1
 222              		.cfi_startproc
 223              		.cfi_personality 0x9b,DW.ref.__gxx_personality_v0
 224              		.cfi_lsda 0x1b,.LLSDA20
 225              	.LVL13:
 226 00b8 130101FF 		addi	sp,sp,-16
 227              		.cfi_def_cfa_offset 16
 228 00bc 23341100 		sd	ra,8(sp)
 229 00c0 23308100 		sd	s0,0(sp)
 230              		.cfi_offset 1, -8
 231              		.cfi_offset 8, -16
 232 00c4 13040101 		addi	s0,sp,16
 233              		.cfi_def_cfa 8, 0
   8:src/syscall_cpp.cpp **** }
 234              		.loc 2 8 5
   8:src/syscall_cpp.cpp **** }
 235              		.loc 2 8 13 is_stmt 0
 236 00c8 97000000 		call	_Z8mem_freePv@plt
 236      E7800000 
 237              	.LVL14:
   9:src/syscall_cpp.cpp **** 
 238              		.loc 2 9 1
 239 00d0 83308100 		ld	ra,8(sp)
 240              		.cfi_restore 1
 241 00d4 03340100 		ld	s0,0(sp)
 242              		.cfi_restore 8
 243              		.cfi_def_cfa 2, 16
 244 00d8 13010101 		addi	sp,sp,16
 245              		.cfi_def_cfa_offset 0
 246 00dc 67800000 		jr	ra
 247              		.cfi_endproc
 248              	.LFE20:
 249              		.section	.gcc_except_table
 250              	.LLSDA20:
 251 0004 FF       		.byte	0xff
 252 0005 FF       		.byte	0xff
 253 0006 03       		.byte	0x3
 254 0007 00       		.byte	0
 255              		.text
 257              		.align	2
 258              		.globl	_ZN6ThreadD2Ev
 260              	_ZN6ThreadD2Ev:
 261              	.LFB25:
  15:src/syscall_cpp.cpp ****     delete myHandle;
 262              		.loc 2 15 1 is_stmt 1
 263              		.cfi_startproc
 264              		.cfi_personality 0x9b,DW.ref.__gxx_personality_v0
 265              		.cfi_lsda 0x1b,.LLSDA25
 266              	.LVL15:
 267 00e0 130101FE 		addi	sp,sp,-32
 268              		.cfi_def_cfa_offset 32
GAS LISTING /tmp/ccS2ESdj.s 			page 8


 269 00e4 233C1100 		sd	ra,24(sp)
 270 00e8 23388100 		sd	s0,16(sp)
 271 00ec 23349100 		sd	s1,8(sp)
 272              		.cfi_offset 1, -8
 273              		.cfi_offset 8, -16
 274              		.cfi_offset 9, -24
 275 00f0 13040102 		addi	s0,sp,32
 276              		.cfi_def_cfa 8, 0
 277              	.LBB14:
  15:src/syscall_cpp.cpp ****     delete myHandle;
 278              		.loc 2 15 17 is_stmt 0
 279 00f4 97070000 		lla	a5,_ZTV6Thread+16
 279      93870700 
 280 00fc 2330F500 		sd	a5,0(a0)
  16:src/syscall_cpp.cpp **** }
 281              		.loc 2 16 5 is_stmt 1
  16:src/syscall_cpp.cpp **** }
 282              		.loc 2 16 12 is_stmt 0
 283 0100 83348500 		ld	s1,8(a0)
  16:src/syscall_cpp.cpp **** }
 284              		.loc 2 16 20
 285 0104 63820402 		beqz	s1,.L15
 286              	.LVL16:
 287              	.LBB15:
 288              	.LBB16:
 289              		.file 3 "src/../h/TCB.hpp"
   1:src/../h/TCB.hpp **** #ifndef Tcb_hpp
   2:src/../h/TCB.hpp **** #define Tcb_hpp
   3:src/../h/TCB.hpp **** 
   4:src/../h/TCB.hpp **** #include "../lib/hw.h"
   5:src/../h/TCB.hpp **** #include "Scheduler.hpp"
   6:src/../h/TCB.hpp **** #include "syscall_cpp.hpp"
   7:src/../h/TCB.hpp **** #include "AlokatorMemorije.h"
   8:src/../h/TCB.hpp **** #include "syscall_c.h"
   9:src/../h/TCB.hpp **** 
  10:src/../h/TCB.hpp **** class TCB{
  11:src/../h/TCB.hpp **** public:
  12:src/../h/TCB.hpp ****     using Telo = void(*)(void*);
  13:src/../h/TCB.hpp **** 
  14:src/../h/TCB.hpp **** private:
  15:src/../h/TCB.hpp ****     struct Elem{
  16:src/../h/TCB.hpp ****         thread_t nit;
  17:src/../h/TCB.hpp ****         Elem* sl;
  18:src/../h/TCB.hpp ****     };
  19:src/../h/TCB.hpp ****     struct Kontekst{
  20:src/../h/TCB.hpp ****         uint64 ra;
  21:src/../h/TCB.hpp ****         uint64 sp;
  22:src/../h/TCB.hpp ****     };
  23:src/../h/TCB.hpp ****     Telo telo;
  24:src/../h/TCB.hpp ****     uint64* stek;
  25:src/../h/TCB.hpp ****     void* argument;
  26:src/../h/TCB.hpp ****     Kontekst kontekst;
  27:src/../h/TCB.hpp ****     uint64 dodeljenoVreme;
  28:src/../h/TCB.hpp ****     bool gotov;
  29:src/../h/TCB.hpp ****     bool blokiran;
  30:src/../h/TCB.hpp ****     bool uspavan;
  31:src/../h/TCB.hpp ****     Elem* glava, *rep;
GAS LISTING /tmp/ccS2ESdj.s 			page 9


  32:src/../h/TCB.hpp **** 
  33:src/../h/TCB.hpp ****     friend class RiscV;
  34:src/../h/TCB.hpp ****     friend class Semafor;
  35:src/../h/TCB.hpp ****     friend class STL;
  36:src/../h/TCB.hpp ****     friend class Scheduler;
  37:src/../h/TCB.hpp **** 
  38:src/../h/TCB.hpp ****     static void threadWrapper();
  39:src/../h/TCB.hpp **** 
  40:src/../h/TCB.hpp ****     static void dispatch();
  41:src/../h/TCB.hpp **** 
  42:src/../h/TCB.hpp ****     static void promenaKonteksta(Kontekst* stariKontekst, Kontekst* noviKontekst);
  43:src/../h/TCB.hpp **** 
  44:src/../h/TCB.hpp ****     static uint64 brojacDodeljivanja;
  45:src/../h/TCB.hpp **** 
  46:src/../h/TCB.hpp **** public:
  47:src/../h/TCB.hpp ****     bool isGotov() const {return gotov;};
  48:src/../h/TCB.hpp **** 
  49:src/../h/TCB.hpp ****     void setGotov(bool gotov) {this->gotov = gotov;};
  50:src/../h/TCB.hpp **** 
  51:src/../h/TCB.hpp ****     static TCB* NapraviInstancu(Telo telo, void* arg, uint64* stek);
  52:src/../h/TCB.hpp **** 
  53:src/../h/TCB.hpp ****     bool isBlokiran() const {return blokiran;};
  54:src/../h/TCB.hpp **** 
  55:src/../h/TCB.hpp ****     void setBlokiran(bool blokiran) {this->blokiran = blokiran;};
  56:src/../h/TCB.hpp **** 
  57:src/../h/TCB.hpp ****     bool isUspavan() const {return uspavan;};
  58:src/../h/TCB.hpp **** 
  59:src/../h/TCB.hpp ****     void setUspavan(bool uspavan) {this->uspavan = uspavan;};
  60:src/../h/TCB.hpp **** 
  61:src/../h/TCB.hpp ****     uint64 getDodeljenoVreme() const {return dodeljenoVreme;}
  62:src/../h/TCB.hpp **** 
  63:src/../h/TCB.hpp ****     static void join(thread_t handle);
  64:src/../h/TCB.hpp **** 
  65:src/../h/TCB.hpp ****     static TCB *running;
  66:src/../h/TCB.hpp **** 
  67:src/../h/TCB.hpp ****     ~TCB() { AlokatorMemorije::dohvatiInstancu()->mem_free(stek);}
 290              		.loc 3 67 14 is_stmt 1
 291              		.loc 3 67 59 is_stmt 0
 292 0108 97000000 		call	_ZN16AlokatorMemorije15dohvatiInstancuEv@plt
 292      E7800000 
 293              	.LVL17:
 294 0110 83B58400 		ld	a1,8(s1)
 295 0114 97000000 		call	_ZN16AlokatorMemorije8mem_freeEPv@plt
 295      E7800000 
 296              	.LVL18:
 297              	.LBE16:
 298              	.LBE15:
  16:src/syscall_cpp.cpp **** }
 299              		.loc 2 16 12
 300 011c 13850400 		mv	a0,s1
 301 0120 97000000 		call	_ZdlPv
 301      E7800000 
 302              	.LVL19:
 303              	.L15:
 304              	.LBE14:
  17:src/syscall_cpp.cpp **** 
 305              		.loc 2 17 1
GAS LISTING /tmp/ccS2ESdj.s 			page 10


 306 0128 83308101 		ld	ra,24(sp)
 307              		.cfi_restore 1
 308 012c 03340101 		ld	s0,16(sp)
 309              		.cfi_restore 8
 310              		.cfi_def_cfa 2, 32
 311 0130 83348100 		ld	s1,8(sp)
 312              		.cfi_restore 9
 313 0134 13010102 		addi	sp,sp,32
 314              		.cfi_def_cfa_offset 0
 315 0138 67800000 		jr	ra
 316              		.cfi_endproc
 317              	.LFE25:
 318              		.section	.gcc_except_table
 319              	.LLSDA25:
 320 0008 FF       		.byte	0xff
 321 0009 FF       		.byte	0xff
 322 000a 03       		.byte	0x3
 323 000b 00       		.byte	0
 324              		.text
 326              		.globl	_ZN6ThreadD1Ev
 327              		.set	_ZN6ThreadD1Ev,_ZN6ThreadD2Ev
 328              		.section	.text._ZN14PeriodicThreadD2Ev,"axG",@progbits,_ZN14PeriodicThreadD5Ev,comdat
 329              		.align	2
 330              		.weak	_ZN14PeriodicThreadD2Ev
 332              	_ZN14PeriodicThreadD2Ev:
 333              	.LFB12:
  42:src/../h/syscall_cpp.hpp **** protected:
 334              		.loc 1 42 13 is_stmt 1
 335              		.cfi_startproc
 336              	.LVL20:
 337 0000 130101FF 		addi	sp,sp,-16
 338              		.cfi_def_cfa_offset 16
 339 0004 23341100 		sd	ra,8(sp)
 340 0008 23308100 		sd	s0,0(sp)
 341              		.cfi_offset 1, -8
 342              		.cfi_offset 8, -16
 343 000c 13040101 		addi	s0,sp,16
 344              		.cfi_def_cfa 8, 0
 345              	.LBB17:
  42:src/../h/syscall_cpp.hpp **** protected:
 346              		.loc 1 42 30 is_stmt 0
 347 0010 17070000 		lla	a4,_ZTV14PeriodicThread+16
 347      13070700 
 348 0018 2330E500 		sd	a4,0(a0)
  42:src/../h/syscall_cpp.hpp **** protected:
 349              		.loc 1 42 31 is_stmt 1
  42:src/../h/syscall_cpp.hpp **** protected:
 350              		.loc 1 42 38 is_stmt 0
 351 001c 23300502 		sd	zero,32(a0)
  42:src/../h/syscall_cpp.hpp **** protected:
 352              		.loc 1 42 30
 353 0020 97000000 		call	_ZN6ThreadD2Ev
 353      E7800000 
 354              	.LVL21:
 355              	.LBE17:
  42:src/../h/syscall_cpp.hpp **** protected:
 356              		.loc 1 42 42
GAS LISTING /tmp/ccS2ESdj.s 			page 11


 357 0028 83308100 		ld	ra,8(sp)
 358              		.cfi_restore 1
 359 002c 03340100 		ld	s0,0(sp)
 360              		.cfi_restore 8
 361              		.cfi_def_cfa 2, 16
 362 0030 13010101 		addi	sp,sp,16
 363              		.cfi_def_cfa_offset 0
 364 0034 67800000 		jr	ra
 365              		.cfi_endproc
 366              	.LFE12:
 368              		.weak	_ZN14PeriodicThreadD1Ev
 369              		.set	_ZN14PeriodicThreadD1Ev,_ZN14PeriodicThreadD2Ev
 370              		.text
 371              		.align	2
 372              		.globl	_ZN6ThreadD0Ev
 374              	_ZN6ThreadD0Ev:
 375              	.LFB27:
  15:src/syscall_cpp.cpp ****     delete myHandle;
 376              		.loc 2 15 1 is_stmt 1
 377              		.cfi_startproc
 378              	.LVL22:
 379 013c 130101FE 		addi	sp,sp,-32
 380              		.cfi_def_cfa_offset 32
 381 0140 233C1100 		sd	ra,24(sp)
 382 0144 23388100 		sd	s0,16(sp)
 383 0148 23349100 		sd	s1,8(sp)
 384              		.cfi_offset 1, -8
 385              		.cfi_offset 8, -16
 386              		.cfi_offset 9, -24
 387 014c 13040102 		addi	s0,sp,32
 388              		.cfi_def_cfa 8, 0
 389 0150 93040500 		mv	s1,a0
  17:src/syscall_cpp.cpp **** 
 390              		.loc 2 17 1 is_stmt 0
 391 0154 97000000 		call	_ZN6ThreadD1Ev
 391      E7800000 
 392              	.LVL23:
 393 015c 13850400 		mv	a0,s1
 394 0160 97000000 		call	_ZdlPv
 394      E7800000 
 395              	.LVL24:
 396 0168 83308101 		ld	ra,24(sp)
 397              		.cfi_restore 1
 398 016c 03340101 		ld	s0,16(sp)
 399              		.cfi_restore 8
 400              		.cfi_def_cfa 2, 32
 401 0170 83348100 		ld	s1,8(sp)
 402              		.cfi_restore 9
 403              	.LVL25:
 404 0174 13010102 		addi	sp,sp,32
 405              		.cfi_def_cfa_offset 0
 406 0178 67800000 		jr	ra
 407              		.cfi_endproc
 408              	.LFE27:
 410              		.align	2
 411              		.globl	_ZN9SemaphoreD0Ev
 413              	_ZN9SemaphoreD0Ev:
GAS LISTING /tmp/ccS2ESdj.s 			page 12


 414              	.LFB42:
  49:src/syscall_cpp.cpp ****     sem_close(myHandle);
 415              		.loc 2 49 1 is_stmt 1
 416              		.cfi_startproc
 417              	.LVL26:
 418 017c 130101FE 		addi	sp,sp,-32
 419              		.cfi_def_cfa_offset 32
 420 0180 233C1100 		sd	ra,24(sp)
 421 0184 23388100 		sd	s0,16(sp)
 422 0188 23349100 		sd	s1,8(sp)
 423              		.cfi_offset 1, -8
 424              		.cfi_offset 8, -16
 425              		.cfi_offset 9, -24
 426 018c 13040102 		addi	s0,sp,32
 427              		.cfi_def_cfa 8, 0
 428 0190 93040500 		mv	s1,a0
  51:src/syscall_cpp.cpp **** 
 429              		.loc 2 51 1 is_stmt 0
 430 0194 97000000 		call	_ZN9SemaphoreD1Ev
 430      E7800000 
 431              	.LVL27:
 432 019c 13850400 		mv	a0,s1
 433 01a0 97000000 		call	_ZdlPv
 433      E7800000 
 434              	.LVL28:
 435 01a8 83308101 		ld	ra,24(sp)
 436              		.cfi_restore 1
 437 01ac 03340101 		ld	s0,16(sp)
 438              		.cfi_restore 8
 439              		.cfi_def_cfa 2, 32
 440 01b0 83348100 		ld	s1,8(sp)
 441              		.cfi_restore 9
 442              	.LVL29:
 443 01b4 13010102 		addi	sp,sp,32
 444              		.cfi_def_cfa_offset 0
 445 01b8 67800000 		jr	ra
 446              		.cfi_endproc
 447              	.LFE42:
 449              		.align	2
 450              		.globl	_ZN14PeriodicThread3runEv
 452              	_ZN14PeriodicThread3runEv:
 453              	.LFB47:
  69:src/syscall_cpp.cpp ****     time_t sl = period;
 454              		.loc 2 69 28 is_stmt 1
 455              		.cfi_startproc
 456              		.cfi_personality 0x9b,DW.ref.__gxx_personality_v0
 457              		.cfi_lsda 0x1b,.LLSDA47
 458              	.LVL30:
 459 01bc 130101FC 		addi	sp,sp,-64
 460              		.cfi_def_cfa_offset 64
 461 01c0 233C1102 		sd	ra,56(sp)
 462 01c4 23388102 		sd	s0,48(sp)
 463 01c8 23349102 		sd	s1,40(sp)
 464 01cc 23302103 		sd	s2,32(sp)
 465 01d0 233C3101 		sd	s3,24(sp)
 466              		.cfi_offset 1, -8
 467              		.cfi_offset 8, -16
GAS LISTING /tmp/ccS2ESdj.s 			page 13


 468              		.cfi_offset 9, -24
 469              		.cfi_offset 18, -32
 470              		.cfi_offset 19, -40
 471 01d4 13040104 		addi	s0,sp,64
 472              		.cfi_def_cfa 8, 0
 473 01d8 13090500 		mv	s2,a0
  70:src/syscall_cpp.cpp ****     while(period){
 474              		.loc 2 70 5
  70:src/syscall_cpp.cpp ****     while(period){
 475              		.loc 2 70 12 is_stmt 0
 476 01dc 83390502 		ld	s3,32(a0)
 477              	.LVL31:
 478 01e0 6F004002 		j	.L27
 479              	.LVL32:
 480              	.L29:
 481              	.LBB18:
 482              	.LBB19:
 483              	.LBB20:
 484              		.loc 3 67 14 is_stmt 1
 485              		.loc 3 67 59 is_stmt 0
 486 01e4 97000000 		call	_ZN16AlokatorMemorije15dohvatiInstancuEv@plt
 486      E7800000 
 487              	.LVL33:
 488 01ec 83B58400 		ld	a1,8(s1)
 489 01f0 97000000 		call	_ZN16AlokatorMemorije8mem_freeEPv@plt
 489      E7800000 
 490              	.LVL34:
 491              	.LBE20:
 492              	.LBE19:
  76:src/syscall_cpp.cpp ****     }
 493              		.loc 2 76 16
 494 01f8 13850400 		mv	a0,s1
 495 01fc 97000000 		call	_ZdlPv
 495      E7800000 
 496              	.LVL35:
 497              	.L27:
 498              	.LBE18:
  71:src/syscall_cpp.cpp ****         TCB* handle;
 499              		.loc 2 71 5 is_stmt 1
  71:src/syscall_cpp.cpp ****         TCB* handle;
 500              		.loc 2 71 11
 501 0204 83370902 		ld	a5,32(s2)
 502 0208 63800704 		beqz	a5,.L24
 503              	.LBB21:
  72:src/syscall_cpp.cpp ****         thread_create(&handle, periodicWrapper, this);
 504              		.loc 2 72 9
  73:src/syscall_cpp.cpp ****         thread_join(handle);
 505              		.loc 2 73 9
  73:src/syscall_cpp.cpp ****         thread_join(handle);
 506              		.loc 2 73 22 is_stmt 0
 507 020c 13060900 		mv	a2,s2
 508 0210 97050000 		lla	a1,_ZN14PeriodicThread15periodicWrapperEPv
 508      93850500 
 509 0218 130584FC 		addi	a0,s0,-56
 510              	.LEHB0:
 511 021c 97000000 		call	_Z13thread_createPP3TCBPFvPvES2_@plt
 511      E7800000 
GAS LISTING /tmp/ccS2ESdj.s 			page 14


 512              	.LVL36:
  74:src/syscall_cpp.cpp ****         time_sleep(sl);
 513              		.loc 2 74 9 is_stmt 1
  74:src/syscall_cpp.cpp ****         time_sleep(sl);
 514              		.loc 2 74 20 is_stmt 0
 515 0224 033584FC 		ld	a0,-56(s0)
 516 0228 97000000 		call	_Z11thread_joinP3TCB@plt
 516      E7800000 
 517              	.LVL37:
  75:src/syscall_cpp.cpp ****         delete handle;
 518              		.loc 2 75 9 is_stmt 1
  75:src/syscall_cpp.cpp ****         delete handle;
 519              		.loc 2 75 19 is_stmt 0
 520 0230 13850900 		mv	a0,s3
 521 0234 97000000 		call	_Z10time_sleepm@plt
 521      E7800000 
 522              	.LVL38:
 523              	.LEHE0:
  76:src/syscall_cpp.cpp ****     }
 524              		.loc 2 76 9 is_stmt 1
  76:src/syscall_cpp.cpp ****     }
 525              		.loc 2 76 16 is_stmt 0
 526 023c 833484FC 		ld	s1,-56(s0)
  76:src/syscall_cpp.cpp ****     }
 527              		.loc 2 76 22
 528 0240 E39204FA 		bnez	s1,.L29
 529 0244 6FF01FFC 		j	.L27
 530              	.L24:
 531              	.LBE21:
  78:src/syscall_cpp.cpp **** 
 532              		.loc 2 78 1
 533 0248 83308103 		ld	ra,56(sp)
 534              		.cfi_restore 1
 535 024c 03340103 		ld	s0,48(sp)
 536              		.cfi_restore 8
 537              		.cfi_def_cfa 2, 64
 538 0250 83348102 		ld	s1,40(sp)
 539              		.cfi_restore 9
 540 0254 03390102 		ld	s2,32(sp)
 541              		.cfi_restore 18
 542              	.LVL39:
 543 0258 83398101 		ld	s3,24(sp)
 544              		.cfi_restore 19
 545              	.LVL40:
 546 025c 13010104 		addi	sp,sp,64
 547              		.cfi_def_cfa_offset 0
 548 0260 67800000 		jr	ra
 549              		.cfi_endproc
 550              	.LFE47:
 551              		.section	.gcc_except_table
 552              	.LLSDA47:
 553 000c FF       		.byte	0xff
 554 000d FF       		.byte	0xff
 555 000e 03       		.byte	0x3
 556 000f 0D       		.byte	0xd
 557 0010 00000000 		.4byte	.LEHB0-.LFB47
 558 0014 00000000 		.4byte	.LEHE0-.LEHB0
GAS LISTING /tmp/ccS2ESdj.s 			page 15


 559 0018 00000000 		.4byte	0
 560 001c 00       		.byte	0
 561              		.text
 563              		.section	.text._ZN14PeriodicThreadD0Ev,"axG",@progbits,_ZN14PeriodicThreadD5Ev,comdat
 564              		.align	2
 565              		.weak	_ZN14PeriodicThreadD0Ev
 567              	_ZN14PeriodicThreadD0Ev:
 568              	.LFB14:
  42:src/../h/syscall_cpp.hpp **** protected:
 569              		.loc 1 42 13 is_stmt 1
 570              		.cfi_startproc
 571              	.LVL41:
 572 0000 130101FE 		addi	sp,sp,-32
 573              		.cfi_def_cfa_offset 32
 574 0004 233C1100 		sd	ra,24(sp)
 575 0008 23388100 		sd	s0,16(sp)
 576 000c 23349100 		sd	s1,8(sp)
 577              		.cfi_offset 1, -8
 578              		.cfi_offset 8, -16
 579              		.cfi_offset 9, -24
 580 0010 13040102 		addi	s0,sp,32
 581              		.cfi_def_cfa 8, 0
 582 0014 93040500 		mv	s1,a0
 583              	.LVL42:
 584              	.LBB22:
 585              	.LBB23:
  42:src/../h/syscall_cpp.hpp **** protected:
 586              		.loc 1 42 30 is_stmt 0
 587 0018 97070000 		lla	a5,_ZTV14PeriodicThread+16
 587      93870700 
 588 0020 2330F500 		sd	a5,0(a0)
  42:src/../h/syscall_cpp.hpp **** protected:
 589              		.loc 1 42 31 is_stmt 1
  42:src/../h/syscall_cpp.hpp **** protected:
 590              		.loc 1 42 38 is_stmt 0
 591 0024 23300502 		sd	zero,32(a0)
  42:src/../h/syscall_cpp.hpp **** protected:
 592              		.loc 1 42 30
 593 0028 97000000 		call	_ZN6ThreadD2Ev
 593      E7800000 
 594              	.LVL43:
 595              	.LBE23:
 596              	.LBE22:
  42:src/../h/syscall_cpp.hpp **** protected:
 597              		.loc 1 42 42
 598 0030 13850400 		mv	a0,s1
 599 0034 97000000 		call	_ZdlPv
 599      E7800000 
 600              	.LVL44:
 601 003c 83308101 		ld	ra,24(sp)
 602              		.cfi_restore 1
 603 0040 03340101 		ld	s0,16(sp)
 604              		.cfi_restore 8
 605              		.cfi_def_cfa 2, 32
 606 0044 83348100 		ld	s1,8(sp)
 607              		.cfi_restore 9
 608              	.LVL45:
GAS LISTING /tmp/ccS2ESdj.s 			page 16


 609 0048 13010102 		addi	sp,sp,32
 610              		.cfi_def_cfa_offset 0
 611 004c 67800000 		jr	ra
 612              		.cfi_endproc
 613              	.LFE14:
 615              		.text
 616              		.align	2
 617              		.globl	_ZN6ThreadC2EPFvPvES0_
 619              	_ZN6ThreadC2EPFvPvES0_:
 620              	.LFB22:
  11:src/syscall_cpp.cpp ****     thread_create_cpp(&myHandle, body, arg);
 621              		.loc 2 11 1 is_stmt 1
 622              		.cfi_startproc
 623              	.LVL46:
 624 0264 130101FF 		addi	sp,sp,-16
 625              		.cfi_def_cfa_offset 16
 626 0268 23341100 		sd	ra,8(sp)
 627 026c 23308100 		sd	s0,0(sp)
 628              		.cfi_offset 1, -8
 629              		.cfi_offset 8, -16
 630 0270 13040101 		addi	s0,sp,16
 631              		.cfi_def_cfa 8, 0
 632              	.LBB24:
  11:src/syscall_cpp.cpp ****     thread_create_cpp(&myHandle, body, arg);
 633              		.loc 2 11 47 is_stmt 0
 634 0274 97070000 		lla	a5,_ZTV6Thread+16
 634      93870700 
 635 027c 2330F500 		sd	a5,0(a0)
  12:src/syscall_cpp.cpp **** }
 636              		.loc 2 12 5 is_stmt 1
  12:src/syscall_cpp.cpp **** }
 637              		.loc 2 12 22 is_stmt 0
 638 0280 13058500 		addi	a0,a0,8
 639              	.LVL47:
 640 0284 97000000 		call	_Z17thread_create_cppPP3TCBPFvPvES2_@plt
 640      E7800000 
 641              	.LVL48:
 642              	.LBE24:
  13:src/syscall_cpp.cpp **** 
 643              		.loc 2 13 1
 644 028c 83308100 		ld	ra,8(sp)
 645              		.cfi_restore 1
 646 0290 03340100 		ld	s0,0(sp)
 647              		.cfi_restore 8
 648              		.cfi_def_cfa 2, 16
 649 0294 13010101 		addi	sp,sp,16
 650              		.cfi_def_cfa_offset 0
 651 0298 67800000 		jr	ra
 652              		.cfi_endproc
 653              	.LFE22:
 655              		.globl	_ZN6ThreadC1EPFvPvES0_
 656              		.set	_ZN6ThreadC1EPFvPvES0_,_ZN6ThreadC2EPFvPvES0_
 657              		.align	2
 658              		.globl	_ZN6Thread5startEv
 660              	_ZN6Thread5startEv:
 661              	.LFB28:
  19:src/syscall_cpp.cpp ****     Scheduler::dohvatiInstancu()->Stavi(myHandle);
GAS LISTING /tmp/ccS2ESdj.s 			page 17


 662              		.loc 2 19 21 is_stmt 1
 663              		.cfi_startproc
 664              	.LVL49:
 665 029c 130101FE 		addi	sp,sp,-32
 666              		.cfi_def_cfa_offset 32
 667 02a0 233C1100 		sd	ra,24(sp)
 668 02a4 23388100 		sd	s0,16(sp)
 669 02a8 23349100 		sd	s1,8(sp)
 670              		.cfi_offset 1, -8
 671              		.cfi_offset 8, -16
 672              		.cfi_offset 9, -24
 673 02ac 13040102 		addi	s0,sp,32
 674              		.cfi_def_cfa 8, 0
 675 02b0 93040500 		mv	s1,a0
  20:src/syscall_cpp.cpp ****     return 0;
 676              		.loc 2 20 5
  20:src/syscall_cpp.cpp ****     return 0;
 677              		.loc 2 20 40 is_stmt 0
 678 02b4 97000000 		call	_ZN9Scheduler15dohvatiInstancuEv@plt
 678      E7800000 
 679              	.LVL50:
 680 02bc 83B58400 		ld	a1,8(s1)
 681 02c0 97000000 		call	_ZN9Scheduler5StaviEP3TCB@plt
 681      E7800000 
 682              	.LVL51:
  21:src/syscall_cpp.cpp **** }
 683              		.loc 2 21 5 is_stmt 1
  22:src/syscall_cpp.cpp **** 
 684              		.loc 2 22 1 is_stmt 0
 685 02c8 13050000 		li	a0,0
 686 02cc 83308101 		ld	ra,24(sp)
 687              		.cfi_restore 1
 688 02d0 03340101 		ld	s0,16(sp)
 689              		.cfi_restore 8
 690              		.cfi_def_cfa 2, 32
 691 02d4 83348100 		ld	s1,8(sp)
 692              		.cfi_restore 9
 693              	.LVL52:
 694 02d8 13010102 		addi	sp,sp,32
 695              		.cfi_def_cfa_offset 0
 696 02dc 67800000 		jr	ra
 697              		.cfi_endproc
 698              	.LFE28:
 700              		.align	2
 701              		.globl	_ZN6Thread8dispatchEv
 703              	_ZN6Thread8dispatchEv:
 704              	.LFB29:
  24:src/syscall_cpp.cpp ****     thread_dispatch();
 705              		.loc 2 24 25 is_stmt 1
 706              		.cfi_startproc
 707 02e0 130101FF 		addi	sp,sp,-16
 708              		.cfi_def_cfa_offset 16
 709 02e4 23341100 		sd	ra,8(sp)
 710 02e8 23308100 		sd	s0,0(sp)
 711              		.cfi_offset 1, -8
 712              		.cfi_offset 8, -16
 713 02ec 13040101 		addi	s0,sp,16
GAS LISTING /tmp/ccS2ESdj.s 			page 18


 714              		.cfi_def_cfa 8, 0
  25:src/syscall_cpp.cpp **** }
 715              		.loc 2 25 5
  25:src/syscall_cpp.cpp **** }
 716              		.loc 2 25 20 is_stmt 0
 717 02f0 97000000 		call	_Z15thread_dispatchv@plt
 717      E7800000 
 718              	.LVL53:
  26:src/syscall_cpp.cpp **** 
 719              		.loc 2 26 1
 720 02f8 83308100 		ld	ra,8(sp)
 721              		.cfi_restore 1
 722 02fc 03340100 		ld	s0,0(sp)
 723              		.cfi_restore 8
 724              		.cfi_def_cfa 2, 16
 725 0300 13010101 		addi	sp,sp,16
 726              		.cfi_def_cfa_offset 0
 727 0304 67800000 		jr	ra
 728              		.cfi_endproc
 729              	.LFE29:
 731              		.align	2
 732              		.globl	_ZN6ThreadC2Ev
 734              	_ZN6ThreadC2Ev:
 735              	.LFB31:
  28:src/syscall_cpp.cpp ****     thread_create_cpp(&myHandle, threadWrapper, this);
 736              		.loc 2 28 1 is_stmt 1
 737              		.cfi_startproc
 738              	.LVL54:
 739 0308 130101FF 		addi	sp,sp,-16
 740              		.cfi_def_cfa_offset 16
 741 030c 23341100 		sd	ra,8(sp)
 742 0310 23308100 		sd	s0,0(sp)
 743              		.cfi_offset 1, -8
 744              		.cfi_offset 8, -16
 745 0314 13040101 		addi	s0,sp,16
 746              		.cfi_def_cfa 8, 0
 747              	.LBB25:
  28:src/syscall_cpp.cpp ****     thread_create_cpp(&myHandle, threadWrapper, this);
 748              		.loc 2 28 16 is_stmt 0
 749 0318 97070000 		lla	a5,_ZTV6Thread+16
 749      93870700 
 750 0320 2330F500 		sd	a5,0(a0)
  29:src/syscall_cpp.cpp **** }
 751              		.loc 2 29 5 is_stmt 1
  29:src/syscall_cpp.cpp **** }
 752              		.loc 2 29 22 is_stmt 0
 753 0324 13060500 		mv	a2,a0
 754 0328 97050000 		lla	a1,_ZN6Thread13threadWrapperEPv
 754      93850500 
 755 0330 13058500 		addi	a0,a0,8
 756              	.LVL55:
 757 0334 97000000 		call	_Z17thread_create_cppPP3TCBPFvPvES2_@plt
 757      E7800000 
 758              	.LVL56:
 759              	.LBE25:
  30:src/syscall_cpp.cpp **** 
 760              		.loc 2 30 1
GAS LISTING /tmp/ccS2ESdj.s 			page 19


 761 033c 83308100 		ld	ra,8(sp)
 762              		.cfi_restore 1
 763 0340 03340100 		ld	s0,0(sp)
 764              		.cfi_restore 8
 765              		.cfi_def_cfa 2, 16
 766 0344 13010101 		addi	sp,sp,16
 767              		.cfi_def_cfa_offset 0
 768 0348 67800000 		jr	ra
 769              		.cfi_endproc
 770              	.LFE31:
 772              		.globl	_ZN6ThreadC1Ev
 773              		.set	_ZN6ThreadC1Ev,_ZN6ThreadC2Ev
 774              		.align	2
 775              		.globl	_ZN6Thread5sleepEm
 777              	_ZN6Thread5sleepEm:
 778              	.LFB34:
  37:src/syscall_cpp.cpp ****     return time_sleep(slice);
 779              		.loc 2 37 33 is_stmt 1
 780              		.cfi_startproc
 781              	.LVL57:
 782 034c 130101FF 		addi	sp,sp,-16
 783              		.cfi_def_cfa_offset 16
 784 0350 23341100 		sd	ra,8(sp)
 785 0354 23308100 		sd	s0,0(sp)
 786              		.cfi_offset 1, -8
 787              		.cfi_offset 8, -16
 788 0358 13040101 		addi	s0,sp,16
 789              		.cfi_def_cfa 8, 0
  38:src/syscall_cpp.cpp **** }
 790              		.loc 2 38 5
  38:src/syscall_cpp.cpp **** }
 791              		.loc 2 38 22 is_stmt 0
 792 035c 97000000 		call	_Z10time_sleepm@plt
 792      E7800000 
 793              	.LVL58:
  39:src/syscall_cpp.cpp **** 
 794              		.loc 2 39 1
 795 0364 83308100 		ld	ra,8(sp)
 796              		.cfi_restore 1
 797 0368 03340100 		ld	s0,0(sp)
 798              		.cfi_restore 8
 799              		.cfi_def_cfa 2, 16
 800 036c 13010101 		addi	sp,sp,16
 801              		.cfi_def_cfa_offset 0
 802 0370 67800000 		jr	ra
 803              		.cfi_endproc
 804              	.LFE34:
 806              		.align	2
 807              		.globl	_ZN6Thread4joinEv
 809              	_ZN6Thread4joinEv:
 810              	.LFB35:
  41:src/syscall_cpp.cpp ****     if(myHandle != nullptr)thread_join(myHandle);
 811              		.loc 2 41 21 is_stmt 1
 812              		.cfi_startproc
 813              	.LVL59:
  42:src/syscall_cpp.cpp **** }
 814              		.loc 2 42 5
GAS LISTING /tmp/ccS2ESdj.s 			page 20


  42:src/syscall_cpp.cpp **** }
 815              		.loc 2 42 8 is_stmt 0
 816 0374 03358500 		ld	a0,8(a0)
 817              	.LVL60:
  42:src/syscall_cpp.cpp **** }
 818              		.loc 2 42 5
 819 0378 63060502 		beqz	a0,.L45
  41:src/syscall_cpp.cpp ****     if(myHandle != nullptr)thread_join(myHandle);
 820              		.loc 2 41 21 discriminator 1
 821 037c 130101FF 		addi	sp,sp,-16
 822              		.cfi_def_cfa_offset 16
 823 0380 23341100 		sd	ra,8(sp)
 824 0384 23308100 		sd	s0,0(sp)
 825              		.cfi_offset 1, -8
 826              		.cfi_offset 8, -16
 827 0388 13040101 		addi	s0,sp,16
 828              		.cfi_def_cfa 8, 0
  42:src/syscall_cpp.cpp **** }
 829              		.loc 2 42 28 is_stmt 1 discriminator 1
  42:src/syscall_cpp.cpp **** }
 830              		.loc 2 42 39 is_stmt 0 discriminator 1
 831 038c 97000000 		call	_Z11thread_joinP3TCB@plt
 831      E7800000 
 832              	.LVL61:
  43:src/syscall_cpp.cpp **** 
 833              		.loc 2 43 1 discriminator 1
 834 0394 83308100 		ld	ra,8(sp)
 835              		.cfi_restore 1
 836 0398 03340100 		ld	s0,0(sp)
 837              		.cfi_restore 8
 838              		.cfi_def_cfa 2, 16
 839 039c 13010101 		addi	sp,sp,16
 840              		.cfi_def_cfa_offset 0
 841 03a0 67800000 		jr	ra
 842              	.L45:
 843 03a4 67800000 		ret
 844              		.cfi_endproc
 845              	.LFE35:
 847              		.align	2
 848              		.globl	_ZN9SemaphoreC2Ej
 850              	_ZN9SemaphoreC2Ej:
 851              	.LFB37:
  45:src/syscall_cpp.cpp ****     sem_open(&myHandle, init);
 852              		.loc 2 45 1 is_stmt 1
 853              		.cfi_startproc
 854              	.LVL62:
 855 03a8 130101FF 		addi	sp,sp,-16
 856              		.cfi_def_cfa_offset 16
 857 03ac 23341100 		sd	ra,8(sp)
 858 03b0 23308100 		sd	s0,0(sp)
 859              		.cfi_offset 1, -8
 860              		.cfi_offset 8, -16
 861 03b4 13040101 		addi	s0,sp,16
 862              		.cfi_def_cfa 8, 0
 863              	.LBB26:
  45:src/syscall_cpp.cpp ****     sem_open(&myHandle, init);
 864              		.loc 2 45 39 is_stmt 0
GAS LISTING /tmp/ccS2ESdj.s 			page 21


 865 03b8 97070000 		lla	a5,_ZTV9Semaphore+16
 865      93870700 
 866 03c0 2330F500 		sd	a5,0(a0)
  46:src/syscall_cpp.cpp **** }
 867              		.loc 2 46 5 is_stmt 1
  46:src/syscall_cpp.cpp **** }
 868              		.loc 2 46 13 is_stmt 0
 869 03c4 13058500 		addi	a0,a0,8
 870              	.LVL63:
 871 03c8 97000000 		call	_Z8sem_openPP7Semaforj@plt
 871      E7800000 
 872              	.LVL64:
 873              	.LBE26:
  47:src/syscall_cpp.cpp **** 
 874              		.loc 2 47 1
 875 03d0 83308100 		ld	ra,8(sp)
 876              		.cfi_restore 1
 877 03d4 03340100 		ld	s0,0(sp)
 878              		.cfi_restore 8
 879              		.cfi_def_cfa 2, 16
 880 03d8 13010101 		addi	sp,sp,16
 881              		.cfi_def_cfa_offset 0
 882 03dc 67800000 		jr	ra
 883              		.cfi_endproc
 884              	.LFE37:
 886              		.globl	_ZN9SemaphoreC1Ej
 887              		.set	_ZN9SemaphoreC1Ej,_ZN9SemaphoreC2Ej
 888              		.align	2
 889              		.globl	_ZN9Semaphore4waitEv
 891              	_ZN9Semaphore4waitEv:
 892              	.LFB43:
  53:src/syscall_cpp.cpp ****     return sem_wait(myHandle);
 893              		.loc 2 53 23 is_stmt 1
 894              		.cfi_startproc
 895              	.LVL65:
 896 03e0 130101FF 		addi	sp,sp,-16
 897              		.cfi_def_cfa_offset 16
 898 03e4 23341100 		sd	ra,8(sp)
 899 03e8 23308100 		sd	s0,0(sp)
 900              		.cfi_offset 1, -8
 901              		.cfi_offset 8, -16
 902 03ec 13040101 		addi	s0,sp,16
 903              		.cfi_def_cfa 8, 0
  54:src/syscall_cpp.cpp **** }
 904              		.loc 2 54 5
  54:src/syscall_cpp.cpp **** }
 905              		.loc 2 54 20 is_stmt 0
 906 03f0 03358500 		ld	a0,8(a0)
 907              	.LVL66:
 908 03f4 97000000 		call	_Z8sem_waitP7Semafor@plt
 908      E7800000 
 909              	.LVL67:
  55:src/syscall_cpp.cpp **** 
 910              		.loc 2 55 1
 911 03fc 83308100 		ld	ra,8(sp)
 912              		.cfi_restore 1
 913 0400 03340100 		ld	s0,0(sp)
GAS LISTING /tmp/ccS2ESdj.s 			page 22


 914              		.cfi_restore 8
 915              		.cfi_def_cfa 2, 16
 916 0404 13010101 		addi	sp,sp,16
 917              		.cfi_def_cfa_offset 0
 918 0408 67800000 		jr	ra
 919              		.cfi_endproc
 920              	.LFE43:
 922              		.align	2
 923              		.globl	_ZN9Semaphore6signalEv
 925              	_ZN9Semaphore6signalEv:
 926              	.LFB44:
  57:src/syscall_cpp.cpp ****     return sem_signal(myHandle);
 927              		.loc 2 57 25 is_stmt 1
 928              		.cfi_startproc
 929              	.LVL68:
 930 040c 130101FF 		addi	sp,sp,-16
 931              		.cfi_def_cfa_offset 16
 932 0410 23341100 		sd	ra,8(sp)
 933 0414 23308100 		sd	s0,0(sp)
 934              		.cfi_offset 1, -8
 935              		.cfi_offset 8, -16
 936 0418 13040101 		addi	s0,sp,16
 937              		.cfi_def_cfa 8, 0
  58:src/syscall_cpp.cpp **** }
 938              		.loc 2 58 5
  58:src/syscall_cpp.cpp **** }
 939              		.loc 2 58 22 is_stmt 0
 940 041c 03358500 		ld	a0,8(a0)
 941              	.LVL69:
 942 0420 97000000 		call	_Z10sem_signalP7Semafor@plt
 942      E7800000 
 943              	.LVL70:
  59:src/syscall_cpp.cpp **** 
 944              		.loc 2 59 1
 945 0428 83308100 		ld	ra,8(sp)
 946              		.cfi_restore 1
 947 042c 03340100 		ld	s0,0(sp)
 948              		.cfi_restore 8
 949              		.cfi_def_cfa 2, 16
 950 0430 13010101 		addi	sp,sp,16
 951              		.cfi_def_cfa_offset 0
 952 0434 67800000 		jr	ra
 953              		.cfi_endproc
 954              	.LFE44:
 956              		.align	2
 957              		.globl	_ZN7Console4getcEv
 959              	_ZN7Console4getcEv:
 960              	.LFB45:
  61:src/syscall_cpp.cpp ****     return ::getc();
 961              		.loc 2 61 22 is_stmt 1
 962              		.cfi_startproc
 963 0438 130101FF 		addi	sp,sp,-16
 964              		.cfi_def_cfa_offset 16
 965 043c 23341100 		sd	ra,8(sp)
 966 0440 23308100 		sd	s0,0(sp)
 967              		.cfi_offset 1, -8
 968              		.cfi_offset 8, -16
GAS LISTING /tmp/ccS2ESdj.s 			page 23


 969 0444 13040101 		addi	s0,sp,16
 970              		.cfi_def_cfa 8, 0
  62:src/syscall_cpp.cpp **** }
 971              		.loc 2 62 5
  62:src/syscall_cpp.cpp **** }
 972              		.loc 2 62 18 is_stmt 0
 973 0448 97000000 		call	_Z4getcv@plt
 973      E7800000 
 974              	.LVL71:
  63:src/syscall_cpp.cpp **** 
 975              		.loc 2 63 1
 976 0450 83308100 		ld	ra,8(sp)
 977              		.cfi_restore 1
 978 0454 03340100 		ld	s0,0(sp)
 979              		.cfi_restore 8
 980              		.cfi_def_cfa 2, 16
 981 0458 13010101 		addi	sp,sp,16
 982              		.cfi_def_cfa_offset 0
 983 045c 67800000 		jr	ra
 984              		.cfi_endproc
 985              	.LFE45:
 987              		.align	2
 988              		.globl	_ZN7Console4putcEc
 990              	_ZN7Console4putcEc:
 991              	.LFB46:
  65:src/syscall_cpp.cpp ****     ::putc(c);
 992              		.loc 2 65 28 is_stmt 1
 993              		.cfi_startproc
 994              	.LVL72:
 995 0460 130101FF 		addi	sp,sp,-16
 996              		.cfi_def_cfa_offset 16
 997 0464 23341100 		sd	ra,8(sp)
 998 0468 23308100 		sd	s0,0(sp)
 999              		.cfi_offset 1, -8
 1000              		.cfi_offset 8, -16
 1001 046c 13040101 		addi	s0,sp,16
 1002              		.cfi_def_cfa 8, 0
  66:src/syscall_cpp.cpp **** }
 1003              		.loc 2 66 5
  66:src/syscall_cpp.cpp **** }
 1004              		.loc 2 66 11 is_stmt 0
 1005 0470 97000000 		call	_Z4putcc@plt
 1005      E7800000 
 1006              	.LVL73:
  67:src/syscall_cpp.cpp **** 
 1007              		.loc 2 67 1
 1008 0478 83308100 		ld	ra,8(sp)
 1009              		.cfi_restore 1
 1010 047c 03340100 		ld	s0,0(sp)
 1011              		.cfi_restore 8
 1012              		.cfi_def_cfa 2, 16
 1013 0480 13010101 		addi	sp,sp,16
 1014              		.cfi_def_cfa_offset 0
 1015 0484 67800000 		jr	ra
 1016              		.cfi_endproc
 1017              	.LFE46:
 1019              		.align	2
GAS LISTING /tmp/ccS2ESdj.s 			page 24


 1020              		.globl	_ZN14PeriodicThread9terminateEv
 1022              	_ZN14PeriodicThread9terminateEv:
 1023              	.LFB49:
  84:src/syscall_cpp.cpp **** 
  85:src/syscall_cpp.cpp **** void PeriodicThread::terminate() {
 1024              		.loc 2 85 34 is_stmt 1
 1025              		.cfi_startproc
 1026              	.LVL74:
 1027 0488 130101FF 		addi	sp,sp,-16
 1028              		.cfi_def_cfa_offset 16
 1029 048c 23348100 		sd	s0,8(sp)
 1030              		.cfi_offset 8, -8
 1031 0490 13040101 		addi	s0,sp,16
 1032              		.cfi_def_cfa 8, 0
  86:src/syscall_cpp.cpp ****     period = 0;
 1033              		.loc 2 86 5
 1034              		.loc 2 86 12 is_stmt 0
 1035 0494 23300502 		sd	zero,32(a0)
  87:src/syscall_cpp.cpp **** }
 1036              		.loc 2 87 1
 1037 0498 03348100 		ld	s0,8(sp)
 1038              		.cfi_restore 8
 1039              		.cfi_def_cfa 2, 16
 1040 049c 13010101 		addi	sp,sp,16
 1041              		.cfi_def_cfa_offset 0
 1042 04a0 67800000 		jr	ra
 1043              		.cfi_endproc
 1044              	.LFE49:
 1046              		.weak	_ZTV6Thread
 1047              		.section	.data.rel.ro.local._ZTV6Thread,"awG",@progbits,_ZTV6Thread,comdat
 1048              		.align	3
 1051              	_ZTV6Thread:
 1052 0000 00000000 		.dword	0
 1052      00000000 
 1053 0008 00000000 		.dword	0
 1053      00000000 
 1054 0010 00000000 		.dword	_ZN6ThreadD1Ev
 1054      00000000 
 1055 0018 00000000 		.dword	_ZN6ThreadD0Ev
 1055      00000000 
 1056 0020 00000000 		.dword	_ZN6Thread3runEv
 1056      00000000 
 1057              		.weak	_ZTV9Semaphore
 1058              		.section	.data.rel.ro.local._ZTV9Semaphore,"awG",@progbits,_ZTV9Semaphore,comdat
 1059              		.align	3
 1062              	_ZTV9Semaphore:
 1063 0000 00000000 		.dword	0
 1063      00000000 
 1064 0008 00000000 		.dword	0
 1064      00000000 
 1065 0010 00000000 		.dword	_ZN9SemaphoreD1Ev
 1065      00000000 
 1066 0018 00000000 		.dword	_ZN9SemaphoreD0Ev
 1066      00000000 
 1067              		.weak	_ZTV14PeriodicThread
 1068              		.section	.data.rel.ro.local._ZTV14PeriodicThread,"awG",@progbits,_ZTV14PeriodicThread,comdat
 1069              		.align	3
GAS LISTING /tmp/ccS2ESdj.s 			page 25


 1072              	_ZTV14PeriodicThread:
 1073 0000 00000000 		.dword	0
 1073      00000000 
 1074 0008 00000000 		.dword	0
 1074      00000000 
 1075 0010 00000000 		.dword	_ZN14PeriodicThreadD1Ev
 1075      00000000 
 1076 0018 00000000 		.dword	_ZN14PeriodicThreadD0Ev
 1076      00000000 
 1077 0020 00000000 		.dword	_ZN14PeriodicThread3runEv
 1077      00000000 
 1078 0028 00000000 		.dword	_ZN14PeriodicThread18periodicActivationEv
 1078      00000000 
 1079              		.text
 1080              	.Letext0:
 1081              		.file 4 "src/../h/../lib/hw.h"
 1082              		.file 5 "src/../h/syscall_c.h"
 1083              		.file 6 "src/../h/Semafor.hpp"
 1084              		.file 7 "src/../h/AlokatorMemorije.h"
 1085              		.file 8 "src/../h/Scheduler.hpp"
 5416              		.align	3
 5419              	DW.ref.__gxx_personality_v0:
 5420 0000 00000000 		.dword	__gxx_personality_v0
 5420      00000000 
 5421              		.ident	"GCC: (Ubuntu 9.4.0-1ubuntu1~20.04) 9.4.0"
 5422              		.section	.note.GNU-stack,"",@progbits
GAS LISTING /tmp/ccS2ESdj.s 			page 26


DEFINED SYMBOLS
                            *ABS*:0000000000000000 syscall_cpp.cpp
     /tmp/ccS2ESdj.s:10     .text._ZN6Thread3runEv:0000000000000000 _ZN6Thread3runEv
     /tmp/ccS2ESdj.s:14     .text._ZN6Thread3runEv:0000000000000000 .L0 
     /tmp/ccS2ESdj.s:16     .text._ZN6Thread3runEv:0000000000000000 .L0 
     /tmp/ccS2ESdj.s:17     .text._ZN6Thread3runEv:0000000000000004 .L0 
     /tmp/ccS2ESdj.s:19     .text._ZN6Thread3runEv:0000000000000008 .L0 
     /tmp/ccS2ESdj.s:21     .text._ZN6Thread3runEv:000000000000000c .L0 
     /tmp/ccS2ESdj.s:23     .text._ZN6Thread3runEv:000000000000000c .L0 
     /tmp/ccS2ESdj.s:24     .text._ZN6Thread3runEv:0000000000000010 .L0 
     /tmp/ccS2ESdj.s:25     .text._ZN6Thread3runEv:0000000000000010 .L0 
     /tmp/ccS2ESdj.s:27     .text._ZN6Thread3runEv:0000000000000014 .L0 
     /tmp/ccS2ESdj.s:29     .text._ZN6Thread3runEv:0000000000000018 .L0 
     /tmp/ccS2ESdj.s:36     .text._ZN14PeriodicThread18periodicActivationEv:0000000000000000 _ZN14PeriodicThread18periodicActivationEv
     /tmp/ccS2ESdj.s:39     .text._ZN14PeriodicThread18periodicActivationEv:0000000000000000 .L0 
     /tmp/ccS2ESdj.s:41     .text._ZN14PeriodicThread18periodicActivationEv:0000000000000000 .L0 
     /tmp/ccS2ESdj.s:42     .text._ZN14PeriodicThread18periodicActivationEv:0000000000000004 .L0 
     /tmp/ccS2ESdj.s:44     .text._ZN14PeriodicThread18periodicActivationEv:0000000000000008 .L0 
     /tmp/ccS2ESdj.s:46     .text._ZN14PeriodicThread18periodicActivationEv:000000000000000c .L0 
     /tmp/ccS2ESdj.s:48     .text._ZN14PeriodicThread18periodicActivationEv:000000000000000c .L0 
     /tmp/ccS2ESdj.s:49     .text._ZN14PeriodicThread18periodicActivationEv:0000000000000010 .L0 
     /tmp/ccS2ESdj.s:50     .text._ZN14PeriodicThread18periodicActivationEv:0000000000000010 .L0 
     /tmp/ccS2ESdj.s:52     .text._ZN14PeriodicThread18periodicActivationEv:0000000000000014 .L0 
     /tmp/ccS2ESdj.s:54     .text._ZN14PeriodicThread18periodicActivationEv:0000000000000018 .L0 
     /tmp/ccS2ESdj.s:61     .text:0000000000000000 _ZN6Thread13threadWrapperEPv
     /tmp/ccS2ESdj.s:65     .text:0000000000000000 .L0 
     /tmp/ccS2ESdj.s:67     .text:0000000000000000 .L0 
     /tmp/ccS2ESdj.s:68     .text:0000000000000004 .L0 
     /tmp/ccS2ESdj.s:71     .text:000000000000000c .L0 
     /tmp/ccS2ESdj.s:72     .text:000000000000000c .L0 
     /tmp/ccS2ESdj.s:74     .text:0000000000000010 .L0 
     /tmp/ccS2ESdj.s:77     .text:0000000000000010 .L0 
     /tmp/ccS2ESdj.s:78     .text:0000000000000010 .L0 
     /tmp/ccS2ESdj.s:79     .text:0000000000000010 .L0 
     /tmp/ccS2ESdj.s:82     .text:0000000000000018 .L0 
     /tmp/ccS2ESdj.s:85     .text:000000000000001c .L0 
     /tmp/ccS2ESdj.s:86     .text:0000000000000020 .L0 
     /tmp/ccS2ESdj.s:88     .text:0000000000000024 .L0 
     /tmp/ccS2ESdj.s:89     .text:0000000000000024 .L0 
     /tmp/ccS2ESdj.s:91     .text:0000000000000028 .L0 
     /tmp/ccS2ESdj.s:93     .text:000000000000002c .L0 
     /tmp/ccS2ESdj.s:99     .text:000000000000002c _ZN14PeriodicThread15periodicWrapperEPv
     /tmp/ccS2ESdj.s:102    .text:000000000000002c .L0 
     /tmp/ccS2ESdj.s:104    .text:000000000000002c .L0 
     /tmp/ccS2ESdj.s:105    .text:0000000000000030 .L0 
     /tmp/ccS2ESdj.s:108    .text:0000000000000038 .L0 
     /tmp/ccS2ESdj.s:109    .text:0000000000000038 .L0 
     /tmp/ccS2ESdj.s:111    .text:000000000000003c .L0 
     /tmp/ccS2ESdj.s:114    .text:000000000000003c .L0 
     /tmp/ccS2ESdj.s:115    .text:000000000000003c .L0 
     /tmp/ccS2ESdj.s:116    .text:000000000000003c .L0 
     /tmp/ccS2ESdj.s:119    .text:0000000000000044 .L0 
     /tmp/ccS2ESdj.s:122    .text:0000000000000048 .L0 
     /tmp/ccS2ESdj.s:123    .text:000000000000004c .L0 
     /tmp/ccS2ESdj.s:125    .text:0000000000000050 .L0 
     /tmp/ccS2ESdj.s:126    .text:0000000000000050 .L0 
     /tmp/ccS2ESdj.s:128    .text:0000000000000054 .L0 
GAS LISTING /tmp/ccS2ESdj.s 			page 27


     /tmp/ccS2ESdj.s:130    .text:0000000000000058 .L0 
     /tmp/ccS2ESdj.s:136    .text:0000000000000058 _ZN9SemaphoreD2Ev
     /tmp/ccS2ESdj.s:139    .text:0000000000000058 .L0 
     /tmp/ccS2ESdj.s:5419   .data.rel.local.DW.ref.__gxx_personality_v0:0000000000000000 DW.ref.__gxx_personality_v0
     /tmp/ccS2ESdj.s:143    .text:0000000000000058 .L0 
     /tmp/ccS2ESdj.s:144    .text:000000000000005c .L0 
     /tmp/ccS2ESdj.s:147    .text:0000000000000064 .L0 
     /tmp/ccS2ESdj.s:148    .text:0000000000000064 .L0 
     /tmp/ccS2ESdj.s:150    .text:0000000000000068 .L0 
     /tmp/ccS2ESdj.s:1062   .data.rel.ro.local._ZTV9Semaphore:0000000000000000 _ZTV9Semaphore
     /tmp/ccS2ESdj.s:153    .text:0000000000000068 .L0 
     /tmp/ccS2ESdj.s:156    .text:0000000000000074 .L0 
     /tmp/ccS2ESdj.s:157    .text:0000000000000074 .L0 
     /tmp/ccS2ESdj.s:163    .text:0000000000000080 .L0 
     /tmp/ccS2ESdj.s:164    .text:0000000000000084 .L0 
     /tmp/ccS2ESdj.s:166    .text:0000000000000088 .L0 
     /tmp/ccS2ESdj.s:167    .text:0000000000000088 .L0 
     /tmp/ccS2ESdj.s:169    .text:000000000000008c .L0 
     /tmp/ccS2ESdj.s:171    .text:0000000000000090 .L0 
     /tmp/ccS2ESdj.s:136    .text:0000000000000058 _ZN9SemaphoreD1Ev
     /tmp/ccS2ESdj.s:187    .text:0000000000000090 _Znwm
     /tmp/ccS2ESdj.s:190    .text:0000000000000090 .L0 
     /tmp/ccS2ESdj.s:192    .text:0000000000000090 .L0 
     /tmp/ccS2ESdj.s:193    .text:0000000000000094 .L0 
     /tmp/ccS2ESdj.s:196    .text:000000000000009c .L0 
     /tmp/ccS2ESdj.s:197    .text:000000000000009c .L0 
     /tmp/ccS2ESdj.s:199    .text:00000000000000a0 .L0 
     /tmp/ccS2ESdj.s:201    .text:00000000000000a0 .L0 
     /tmp/ccS2ESdj.s:202    .text:00000000000000a0 .L0 
     /tmp/ccS2ESdj.s:205    .text:00000000000000a8 .L0 
     /tmp/ccS2ESdj.s:206    .text:00000000000000ac .L0 
     /tmp/ccS2ESdj.s:208    .text:00000000000000b0 .L0 
     /tmp/ccS2ESdj.s:209    .text:00000000000000b0 .L0 
     /tmp/ccS2ESdj.s:211    .text:00000000000000b4 .L0 
     /tmp/ccS2ESdj.s:213    .text:00000000000000b8 .L0 
     /tmp/ccS2ESdj.s:219    .text:00000000000000b8 _ZdlPv
     /tmp/ccS2ESdj.s:222    .text:00000000000000b8 .L0 
     /tmp/ccS2ESdj.s:226    .text:00000000000000b8 .L0 
     /tmp/ccS2ESdj.s:227    .text:00000000000000bc .L0 
     /tmp/ccS2ESdj.s:230    .text:00000000000000c4 .L0 
     /tmp/ccS2ESdj.s:231    .text:00000000000000c4 .L0 
     /tmp/ccS2ESdj.s:233    .text:00000000000000c8 .L0 
     /tmp/ccS2ESdj.s:235    .text:00000000000000c8 .L0 
     /tmp/ccS2ESdj.s:236    .text:00000000000000c8 .L0 
     /tmp/ccS2ESdj.s:239    .text:00000000000000d0 .L0 
     /tmp/ccS2ESdj.s:240    .text:00000000000000d4 .L0 
     /tmp/ccS2ESdj.s:242    .text:00000000000000d8 .L0 
     /tmp/ccS2ESdj.s:243    .text:00000000000000d8 .L0 
     /tmp/ccS2ESdj.s:245    .text:00000000000000dc .L0 
     /tmp/ccS2ESdj.s:247    .text:00000000000000e0 .L0 
     /tmp/ccS2ESdj.s:260    .text:00000000000000e0 _ZN6ThreadD2Ev
     /tmp/ccS2ESdj.s:263    .text:00000000000000e0 .L0 
     /tmp/ccS2ESdj.s:267    .text:00000000000000e0 .L0 
     /tmp/ccS2ESdj.s:268    .text:00000000000000e4 .L0 
     /tmp/ccS2ESdj.s:272    .text:00000000000000f0 .L0 
     /tmp/ccS2ESdj.s:273    .text:00000000000000f0 .L0 
     /tmp/ccS2ESdj.s:274    .text:00000000000000f0 .L0 
GAS LISTING /tmp/ccS2ESdj.s 			page 28


     /tmp/ccS2ESdj.s:276    .text:00000000000000f4 .L0 
     /tmp/ccS2ESdj.s:1051   .data.rel.ro.local._ZTV6Thread:0000000000000000 _ZTV6Thread
     /tmp/ccS2ESdj.s:279    .text:00000000000000f4 .L0 
     /tmp/ccS2ESdj.s:282    .text:0000000000000100 .L0 
     /tmp/ccS2ESdj.s:283    .text:0000000000000100 .L0 
     /tmp/ccS2ESdj.s:285    .text:0000000000000104 .L0 
     /tmp/ccS2ESdj.s:291    .text:0000000000000108 .L0 
     /tmp/ccS2ESdj.s:292    .text:0000000000000108 .L0 
     /tmp/ccS2ESdj.s:300    .text:000000000000011c .L0 
     /tmp/ccS2ESdj.s:306    .text:0000000000000128 .L0 
     /tmp/ccS2ESdj.s:307    .text:000000000000012c .L0 
     /tmp/ccS2ESdj.s:309    .text:0000000000000130 .L0 
     /tmp/ccS2ESdj.s:310    .text:0000000000000130 .L0 
     /tmp/ccS2ESdj.s:312    .text:0000000000000134 .L0 
     /tmp/ccS2ESdj.s:314    .text:0000000000000138 .L0 
     /tmp/ccS2ESdj.s:316    .text:000000000000013c .L0 
     /tmp/ccS2ESdj.s:260    .text:00000000000000e0 _ZN6ThreadD1Ev
     /tmp/ccS2ESdj.s:332    .text._ZN14PeriodicThreadD2Ev:0000000000000000 _ZN14PeriodicThreadD2Ev
     /tmp/ccS2ESdj.s:335    .text._ZN14PeriodicThreadD2Ev:0000000000000000 .L0 
     /tmp/ccS2ESdj.s:337    .text._ZN14PeriodicThreadD2Ev:0000000000000000 .L0 
     /tmp/ccS2ESdj.s:338    .text._ZN14PeriodicThreadD2Ev:0000000000000004 .L0 
     /tmp/ccS2ESdj.s:341    .text._ZN14PeriodicThreadD2Ev:000000000000000c .L0 
     /tmp/ccS2ESdj.s:342    .text._ZN14PeriodicThreadD2Ev:000000000000000c .L0 
     /tmp/ccS2ESdj.s:344    .text._ZN14PeriodicThreadD2Ev:0000000000000010 .L0 
     /tmp/ccS2ESdj.s:1072   .data.rel.ro.local._ZTV14PeriodicThread:0000000000000000 _ZTV14PeriodicThread
     /tmp/ccS2ESdj.s:347    .text._ZN14PeriodicThreadD2Ev:0000000000000010 .L0 
     /tmp/ccS2ESdj.s:350    .text._ZN14PeriodicThreadD2Ev:000000000000001c .L0 
     /tmp/ccS2ESdj.s:351    .text._ZN14PeriodicThreadD2Ev:000000000000001c .L0 
     /tmp/ccS2ESdj.s:353    .text._ZN14PeriodicThreadD2Ev:0000000000000020 .L0 
     /tmp/ccS2ESdj.s:357    .text._ZN14PeriodicThreadD2Ev:0000000000000028 .L0 
     /tmp/ccS2ESdj.s:358    .text._ZN14PeriodicThreadD2Ev:000000000000002c .L0 
     /tmp/ccS2ESdj.s:360    .text._ZN14PeriodicThreadD2Ev:0000000000000030 .L0 
     /tmp/ccS2ESdj.s:361    .text._ZN14PeriodicThreadD2Ev:0000000000000030 .L0 
     /tmp/ccS2ESdj.s:363    .text._ZN14PeriodicThreadD2Ev:0000000000000034 .L0 
     /tmp/ccS2ESdj.s:365    .text._ZN14PeriodicThreadD2Ev:0000000000000038 .L0 
     /tmp/ccS2ESdj.s:332    .text._ZN14PeriodicThreadD2Ev:0000000000000000 _ZN14PeriodicThreadD1Ev
     /tmp/ccS2ESdj.s:374    .text:000000000000013c _ZN6ThreadD0Ev
     /tmp/ccS2ESdj.s:377    .text:000000000000013c .L0 
     /tmp/ccS2ESdj.s:379    .text:000000000000013c .L0 
     /tmp/ccS2ESdj.s:380    .text:0000000000000140 .L0 
     /tmp/ccS2ESdj.s:384    .text:000000000000014c .L0 
     /tmp/ccS2ESdj.s:385    .text:000000000000014c .L0 
     /tmp/ccS2ESdj.s:386    .text:000000000000014c .L0 
     /tmp/ccS2ESdj.s:388    .text:0000000000000150 .L0 
     /tmp/ccS2ESdj.s:391    .text:0000000000000154 .L0 
     /tmp/ccS2ESdj.s:397    .text:000000000000016c .L0 
     /tmp/ccS2ESdj.s:399    .text:0000000000000170 .L0 
     /tmp/ccS2ESdj.s:400    .text:0000000000000170 .L0 
     /tmp/ccS2ESdj.s:402    .text:0000000000000174 .L0 
     /tmp/ccS2ESdj.s:405    .text:0000000000000178 .L0 
     /tmp/ccS2ESdj.s:407    .text:000000000000017c .L0 
     /tmp/ccS2ESdj.s:413    .text:000000000000017c _ZN9SemaphoreD0Ev
     /tmp/ccS2ESdj.s:416    .text:000000000000017c .L0 
     /tmp/ccS2ESdj.s:418    .text:000000000000017c .L0 
     /tmp/ccS2ESdj.s:419    .text:0000000000000180 .L0 
     /tmp/ccS2ESdj.s:423    .text:000000000000018c .L0 
     /tmp/ccS2ESdj.s:424    .text:000000000000018c .L0 
GAS LISTING /tmp/ccS2ESdj.s 			page 29


     /tmp/ccS2ESdj.s:425    .text:000000000000018c .L0 
     /tmp/ccS2ESdj.s:427    .text:0000000000000190 .L0 
     /tmp/ccS2ESdj.s:430    .text:0000000000000194 .L0 
     /tmp/ccS2ESdj.s:436    .text:00000000000001ac .L0 
     /tmp/ccS2ESdj.s:438    .text:00000000000001b0 .L0 
     /tmp/ccS2ESdj.s:439    .text:00000000000001b0 .L0 
     /tmp/ccS2ESdj.s:441    .text:00000000000001b4 .L0 
     /tmp/ccS2ESdj.s:444    .text:00000000000001b8 .L0 
     /tmp/ccS2ESdj.s:446    .text:00000000000001bc .L0 
     /tmp/ccS2ESdj.s:452    .text:00000000000001bc _ZN14PeriodicThread3runEv
     /tmp/ccS2ESdj.s:455    .text:00000000000001bc .L0 
     /tmp/ccS2ESdj.s:459    .text:00000000000001bc .L0 
     /tmp/ccS2ESdj.s:460    .text:00000000000001c0 .L0 
     /tmp/ccS2ESdj.s:466    .text:00000000000001d4 .L0 
     /tmp/ccS2ESdj.s:467    .text:00000000000001d4 .L0 
     /tmp/ccS2ESdj.s:468    .text:00000000000001d4 .L0 
     /tmp/ccS2ESdj.s:469    .text:00000000000001d4 .L0 
     /tmp/ccS2ESdj.s:470    .text:00000000000001d4 .L0 
     /tmp/ccS2ESdj.s:472    .text:00000000000001d8 .L0 
     /tmp/ccS2ESdj.s:475    .text:00000000000001dc .L0 
     /tmp/ccS2ESdj.s:476    .text:00000000000001dc .L0 
     /tmp/ccS2ESdj.s:485    .text:00000000000001e4 .L0 
     /tmp/ccS2ESdj.s:486    .text:00000000000001e4 .L0 
     /tmp/ccS2ESdj.s:494    .text:00000000000001f8 .L0 
     /tmp/ccS2ESdj.s:500    .text:0000000000000204 .L0 
     /tmp/ccS2ESdj.s:501    .text:0000000000000204 .L0 
     /tmp/ccS2ESdj.s:505    .text:000000000000020c .L0 
     /tmp/ccS2ESdj.s:506    .text:000000000000020c .L0 
     /tmp/ccS2ESdj.s:507    .text:000000000000020c .L0 
     /tmp/ccS2ESdj.s:514    .text:0000000000000224 .L0 
     /tmp/ccS2ESdj.s:515    .text:0000000000000224 .L0 
     /tmp/ccS2ESdj.s:519    .text:0000000000000230 .L0 
     /tmp/ccS2ESdj.s:520    .text:0000000000000230 .L0 
     /tmp/ccS2ESdj.s:525    .text:000000000000023c .L0 
     /tmp/ccS2ESdj.s:526    .text:000000000000023c .L0 
     /tmp/ccS2ESdj.s:528    .text:0000000000000240 .L0 
     /tmp/ccS2ESdj.s:533    .text:0000000000000248 .L0 
     /tmp/ccS2ESdj.s:534    .text:000000000000024c .L0 
     /tmp/ccS2ESdj.s:536    .text:0000000000000250 .L0 
     /tmp/ccS2ESdj.s:537    .text:0000000000000250 .L0 
     /tmp/ccS2ESdj.s:539    .text:0000000000000254 .L0 
     /tmp/ccS2ESdj.s:541    .text:0000000000000258 .L0 
     /tmp/ccS2ESdj.s:544    .text:000000000000025c .L0 
     /tmp/ccS2ESdj.s:547    .text:0000000000000260 .L0 
     /tmp/ccS2ESdj.s:549    .text:0000000000000264 .L0 
     /tmp/ccS2ESdj.s:567    .text._ZN14PeriodicThreadD0Ev:0000000000000000 _ZN14PeriodicThreadD0Ev
     /tmp/ccS2ESdj.s:570    .text._ZN14PeriodicThreadD0Ev:0000000000000000 .L0 
     /tmp/ccS2ESdj.s:572    .text._ZN14PeriodicThreadD0Ev:0000000000000000 .L0 
     /tmp/ccS2ESdj.s:573    .text._ZN14PeriodicThreadD0Ev:0000000000000004 .L0 
     /tmp/ccS2ESdj.s:577    .text._ZN14PeriodicThreadD0Ev:0000000000000010 .L0 
     /tmp/ccS2ESdj.s:578    .text._ZN14PeriodicThreadD0Ev:0000000000000010 .L0 
     /tmp/ccS2ESdj.s:579    .text._ZN14PeriodicThreadD0Ev:0000000000000010 .L0 
     /tmp/ccS2ESdj.s:581    .text._ZN14PeriodicThreadD0Ev:0000000000000014 .L0 
     /tmp/ccS2ESdj.s:587    .text._ZN14PeriodicThreadD0Ev:0000000000000018 .L0 
     /tmp/ccS2ESdj.s:590    .text._ZN14PeriodicThreadD0Ev:0000000000000024 .L0 
     /tmp/ccS2ESdj.s:591    .text._ZN14PeriodicThreadD0Ev:0000000000000024 .L0 
     /tmp/ccS2ESdj.s:593    .text._ZN14PeriodicThreadD0Ev:0000000000000028 .L0 
GAS LISTING /tmp/ccS2ESdj.s 			page 30


     /tmp/ccS2ESdj.s:598    .text._ZN14PeriodicThreadD0Ev:0000000000000030 .L0 
     /tmp/ccS2ESdj.s:602    .text._ZN14PeriodicThreadD0Ev:0000000000000040 .L0 
     /tmp/ccS2ESdj.s:604    .text._ZN14PeriodicThreadD0Ev:0000000000000044 .L0 
     /tmp/ccS2ESdj.s:605    .text._ZN14PeriodicThreadD0Ev:0000000000000044 .L0 
     /tmp/ccS2ESdj.s:607    .text._ZN14PeriodicThreadD0Ev:0000000000000048 .L0 
     /tmp/ccS2ESdj.s:610    .text._ZN14PeriodicThreadD0Ev:000000000000004c .L0 
     /tmp/ccS2ESdj.s:612    .text._ZN14PeriodicThreadD0Ev:0000000000000050 .L0 
     /tmp/ccS2ESdj.s:619    .text:0000000000000264 _ZN6ThreadC2EPFvPvES0_
     /tmp/ccS2ESdj.s:622    .text:0000000000000264 .L0 
     /tmp/ccS2ESdj.s:624    .text:0000000000000264 .L0 
     /tmp/ccS2ESdj.s:625    .text:0000000000000268 .L0 
     /tmp/ccS2ESdj.s:628    .text:0000000000000270 .L0 
     /tmp/ccS2ESdj.s:629    .text:0000000000000270 .L0 
     /tmp/ccS2ESdj.s:631    .text:0000000000000274 .L0 
     /tmp/ccS2ESdj.s:634    .text:0000000000000274 .L0 
     /tmp/ccS2ESdj.s:637    .text:0000000000000280 .L0 
     /tmp/ccS2ESdj.s:638    .text:0000000000000280 .L0 
     /tmp/ccS2ESdj.s:644    .text:000000000000028c .L0 
     /tmp/ccS2ESdj.s:645    .text:0000000000000290 .L0 
     /tmp/ccS2ESdj.s:647    .text:0000000000000294 .L0 
     /tmp/ccS2ESdj.s:648    .text:0000000000000294 .L0 
     /tmp/ccS2ESdj.s:650    .text:0000000000000298 .L0 
     /tmp/ccS2ESdj.s:652    .text:000000000000029c .L0 
     /tmp/ccS2ESdj.s:619    .text:0000000000000264 _ZN6ThreadC1EPFvPvES0_
     /tmp/ccS2ESdj.s:660    .text:000000000000029c _ZN6Thread5startEv
     /tmp/ccS2ESdj.s:663    .text:000000000000029c .L0 
     /tmp/ccS2ESdj.s:665    .text:000000000000029c .L0 
     /tmp/ccS2ESdj.s:666    .text:00000000000002a0 .L0 
     /tmp/ccS2ESdj.s:670    .text:00000000000002ac .L0 
     /tmp/ccS2ESdj.s:671    .text:00000000000002ac .L0 
     /tmp/ccS2ESdj.s:672    .text:00000000000002ac .L0 
     /tmp/ccS2ESdj.s:674    .text:00000000000002b0 .L0 
     /tmp/ccS2ESdj.s:677    .text:00000000000002b4 .L0 
     /tmp/ccS2ESdj.s:678    .text:00000000000002b4 .L0 
     /tmp/ccS2ESdj.s:684    .text:00000000000002c8 .L0 
     /tmp/ccS2ESdj.s:685    .text:00000000000002c8 .L0 
     /tmp/ccS2ESdj.s:687    .text:00000000000002d0 .L0 
     /tmp/ccS2ESdj.s:689    .text:00000000000002d4 .L0 
     /tmp/ccS2ESdj.s:690    .text:00000000000002d4 .L0 
     /tmp/ccS2ESdj.s:692    .text:00000000000002d8 .L0 
     /tmp/ccS2ESdj.s:695    .text:00000000000002dc .L0 
     /tmp/ccS2ESdj.s:697    .text:00000000000002e0 .L0 
     /tmp/ccS2ESdj.s:703    .text:00000000000002e0 _ZN6Thread8dispatchEv
     /tmp/ccS2ESdj.s:706    .text:00000000000002e0 .L0 
     /tmp/ccS2ESdj.s:707    .text:00000000000002e0 .L0 
     /tmp/ccS2ESdj.s:708    .text:00000000000002e4 .L0 
     /tmp/ccS2ESdj.s:711    .text:00000000000002ec .L0 
     /tmp/ccS2ESdj.s:712    .text:00000000000002ec .L0 
     /tmp/ccS2ESdj.s:714    .text:00000000000002f0 .L0 
     /tmp/ccS2ESdj.s:716    .text:00000000000002f0 .L0 
     /tmp/ccS2ESdj.s:717    .text:00000000000002f0 .L0 
     /tmp/ccS2ESdj.s:720    .text:00000000000002f8 .L0 
     /tmp/ccS2ESdj.s:721    .text:00000000000002fc .L0 
     /tmp/ccS2ESdj.s:723    .text:0000000000000300 .L0 
     /tmp/ccS2ESdj.s:724    .text:0000000000000300 .L0 
     /tmp/ccS2ESdj.s:726    .text:0000000000000304 .L0 
     /tmp/ccS2ESdj.s:728    .text:0000000000000308 .L0 
GAS LISTING /tmp/ccS2ESdj.s 			page 31


     /tmp/ccS2ESdj.s:734    .text:0000000000000308 _ZN6ThreadC2Ev
     /tmp/ccS2ESdj.s:737    .text:0000000000000308 .L0 
     /tmp/ccS2ESdj.s:739    .text:0000000000000308 .L0 
     /tmp/ccS2ESdj.s:740    .text:000000000000030c .L0 
     /tmp/ccS2ESdj.s:743    .text:0000000000000314 .L0 
     /tmp/ccS2ESdj.s:744    .text:0000000000000314 .L0 
     /tmp/ccS2ESdj.s:746    .text:0000000000000318 .L0 
     /tmp/ccS2ESdj.s:749    .text:0000000000000318 .L0 
     /tmp/ccS2ESdj.s:752    .text:0000000000000324 .L0 
     /tmp/ccS2ESdj.s:753    .text:0000000000000324 .L0 
     /tmp/ccS2ESdj.s:761    .text:000000000000033c .L0 
     /tmp/ccS2ESdj.s:762    .text:0000000000000340 .L0 
     /tmp/ccS2ESdj.s:764    .text:0000000000000344 .L0 
     /tmp/ccS2ESdj.s:765    .text:0000000000000344 .L0 
     /tmp/ccS2ESdj.s:767    .text:0000000000000348 .L0 
     /tmp/ccS2ESdj.s:769    .text:000000000000034c .L0 
     /tmp/ccS2ESdj.s:734    .text:0000000000000308 _ZN6ThreadC1Ev
     /tmp/ccS2ESdj.s:777    .text:000000000000034c _ZN6Thread5sleepEm
     /tmp/ccS2ESdj.s:780    .text:000000000000034c .L0 
     /tmp/ccS2ESdj.s:782    .text:000000000000034c .L0 
     /tmp/ccS2ESdj.s:783    .text:0000000000000350 .L0 
     /tmp/ccS2ESdj.s:786    .text:0000000000000358 .L0 
     /tmp/ccS2ESdj.s:787    .text:0000000000000358 .L0 
     /tmp/ccS2ESdj.s:789    .text:000000000000035c .L0 
     /tmp/ccS2ESdj.s:791    .text:000000000000035c .L0 
     /tmp/ccS2ESdj.s:792    .text:000000000000035c .L0 
     /tmp/ccS2ESdj.s:795    .text:0000000000000364 .L0 
     /tmp/ccS2ESdj.s:796    .text:0000000000000368 .L0 
     /tmp/ccS2ESdj.s:798    .text:000000000000036c .L0 
     /tmp/ccS2ESdj.s:799    .text:000000000000036c .L0 
     /tmp/ccS2ESdj.s:801    .text:0000000000000370 .L0 
     /tmp/ccS2ESdj.s:803    .text:0000000000000374 .L0 
     /tmp/ccS2ESdj.s:809    .text:0000000000000374 _ZN6Thread4joinEv
     /tmp/ccS2ESdj.s:812    .text:0000000000000374 .L0 
     /tmp/ccS2ESdj.s:814    .text:0000000000000374 .L0 
     /tmp/ccS2ESdj.s:815    .text:0000000000000374 .L0 
     /tmp/ccS2ESdj.s:816    .text:0000000000000374 .L0 
     /tmp/ccS2ESdj.s:819    .text:0000000000000378 .L0 
     /tmp/ccS2ESdj.s:821    .text:000000000000037c .L0 
     /tmp/ccS2ESdj.s:822    .text:0000000000000380 .L0 
     /tmp/ccS2ESdj.s:825    .text:0000000000000388 .L0 
     /tmp/ccS2ESdj.s:826    .text:0000000000000388 .L0 
     /tmp/ccS2ESdj.s:828    .text:000000000000038c .L0 
     /tmp/ccS2ESdj.s:830    .text:000000000000038c .L0 
     /tmp/ccS2ESdj.s:831    .text:000000000000038c .L0 
     /tmp/ccS2ESdj.s:834    .text:0000000000000394 .L0 
     /tmp/ccS2ESdj.s:835    .text:0000000000000398 .L0 
     /tmp/ccS2ESdj.s:837    .text:000000000000039c .L0 
     /tmp/ccS2ESdj.s:838    .text:000000000000039c .L0 
     /tmp/ccS2ESdj.s:840    .text:00000000000003a0 .L0 
     /tmp/ccS2ESdj.s:844    .text:00000000000003a8 .L0 
     /tmp/ccS2ESdj.s:850    .text:00000000000003a8 _ZN9SemaphoreC2Ej
     /tmp/ccS2ESdj.s:853    .text:00000000000003a8 .L0 
     /tmp/ccS2ESdj.s:855    .text:00000000000003a8 .L0 
     /tmp/ccS2ESdj.s:856    .text:00000000000003ac .L0 
     /tmp/ccS2ESdj.s:859    .text:00000000000003b4 .L0 
     /tmp/ccS2ESdj.s:860    .text:00000000000003b4 .L0 
GAS LISTING /tmp/ccS2ESdj.s 			page 32


     /tmp/ccS2ESdj.s:862    .text:00000000000003b8 .L0 
     /tmp/ccS2ESdj.s:865    .text:00000000000003b8 .L0 
     /tmp/ccS2ESdj.s:868    .text:00000000000003c4 .L0 
     /tmp/ccS2ESdj.s:869    .text:00000000000003c4 .L0 
     /tmp/ccS2ESdj.s:875    .text:00000000000003d0 .L0 
     /tmp/ccS2ESdj.s:876    .text:00000000000003d4 .L0 
     /tmp/ccS2ESdj.s:878    .text:00000000000003d8 .L0 
     /tmp/ccS2ESdj.s:879    .text:00000000000003d8 .L0 
     /tmp/ccS2ESdj.s:881    .text:00000000000003dc .L0 
     /tmp/ccS2ESdj.s:883    .text:00000000000003e0 .L0 
     /tmp/ccS2ESdj.s:850    .text:00000000000003a8 _ZN9SemaphoreC1Ej
     /tmp/ccS2ESdj.s:891    .text:00000000000003e0 _ZN9Semaphore4waitEv
     /tmp/ccS2ESdj.s:894    .text:00000000000003e0 .L0 
     /tmp/ccS2ESdj.s:896    .text:00000000000003e0 .L0 
     /tmp/ccS2ESdj.s:897    .text:00000000000003e4 .L0 
     /tmp/ccS2ESdj.s:900    .text:00000000000003ec .L0 
     /tmp/ccS2ESdj.s:901    .text:00000000000003ec .L0 
     /tmp/ccS2ESdj.s:903    .text:00000000000003f0 .L0 
     /tmp/ccS2ESdj.s:905    .text:00000000000003f0 .L0 
     /tmp/ccS2ESdj.s:906    .text:00000000000003f0 .L0 
     /tmp/ccS2ESdj.s:911    .text:00000000000003fc .L0 
     /tmp/ccS2ESdj.s:912    .text:0000000000000400 .L0 
     /tmp/ccS2ESdj.s:914    .text:0000000000000404 .L0 
     /tmp/ccS2ESdj.s:915    .text:0000000000000404 .L0 
     /tmp/ccS2ESdj.s:917    .text:0000000000000408 .L0 
     /tmp/ccS2ESdj.s:919    .text:000000000000040c .L0 
     /tmp/ccS2ESdj.s:925    .text:000000000000040c _ZN9Semaphore6signalEv
     /tmp/ccS2ESdj.s:928    .text:000000000000040c .L0 
     /tmp/ccS2ESdj.s:930    .text:000000000000040c .L0 
     /tmp/ccS2ESdj.s:931    .text:0000000000000410 .L0 
     /tmp/ccS2ESdj.s:934    .text:0000000000000418 .L0 
     /tmp/ccS2ESdj.s:935    .text:0000000000000418 .L0 
     /tmp/ccS2ESdj.s:937    .text:000000000000041c .L0 
     /tmp/ccS2ESdj.s:939    .text:000000000000041c .L0 
     /tmp/ccS2ESdj.s:940    .text:000000000000041c .L0 
     /tmp/ccS2ESdj.s:945    .text:0000000000000428 .L0 
     /tmp/ccS2ESdj.s:946    .text:000000000000042c .L0 
     /tmp/ccS2ESdj.s:948    .text:0000000000000430 .L0 
     /tmp/ccS2ESdj.s:949    .text:0000000000000430 .L0 
     /tmp/ccS2ESdj.s:951    .text:0000000000000434 .L0 
     /tmp/ccS2ESdj.s:953    .text:0000000000000438 .L0 
     /tmp/ccS2ESdj.s:959    .text:0000000000000438 _ZN7Console4getcEv
     /tmp/ccS2ESdj.s:962    .text:0000000000000438 .L0 
     /tmp/ccS2ESdj.s:963    .text:0000000000000438 .L0 
     /tmp/ccS2ESdj.s:964    .text:000000000000043c .L0 
     /tmp/ccS2ESdj.s:967    .text:0000000000000444 .L0 
     /tmp/ccS2ESdj.s:968    .text:0000000000000444 .L0 
     /tmp/ccS2ESdj.s:970    .text:0000000000000448 .L0 
     /tmp/ccS2ESdj.s:972    .text:0000000000000448 .L0 
     /tmp/ccS2ESdj.s:973    .text:0000000000000448 .L0 
     /tmp/ccS2ESdj.s:976    .text:0000000000000450 .L0 
     /tmp/ccS2ESdj.s:977    .text:0000000000000454 .L0 
     /tmp/ccS2ESdj.s:979    .text:0000000000000458 .L0 
     /tmp/ccS2ESdj.s:980    .text:0000000000000458 .L0 
     /tmp/ccS2ESdj.s:982    .text:000000000000045c .L0 
     /tmp/ccS2ESdj.s:984    .text:0000000000000460 .L0 
     /tmp/ccS2ESdj.s:990    .text:0000000000000460 _ZN7Console4putcEc
GAS LISTING /tmp/ccS2ESdj.s 			page 33


     /tmp/ccS2ESdj.s:993    .text:0000000000000460 .L0 
     /tmp/ccS2ESdj.s:995    .text:0000000000000460 .L0 
     /tmp/ccS2ESdj.s:996    .text:0000000000000464 .L0 
     /tmp/ccS2ESdj.s:999    .text:000000000000046c .L0 
     /tmp/ccS2ESdj.s:1000   .text:000000000000046c .L0 
     /tmp/ccS2ESdj.s:1002   .text:0000000000000470 .L0 
     /tmp/ccS2ESdj.s:1004   .text:0000000000000470 .L0 
     /tmp/ccS2ESdj.s:1005   .text:0000000000000470 .L0 
     /tmp/ccS2ESdj.s:1008   .text:0000000000000478 .L0 
     /tmp/ccS2ESdj.s:1009   .text:000000000000047c .L0 
     /tmp/ccS2ESdj.s:1011   .text:0000000000000480 .L0 
     /tmp/ccS2ESdj.s:1012   .text:0000000000000480 .L0 
     /tmp/ccS2ESdj.s:1014   .text:0000000000000484 .L0 
     /tmp/ccS2ESdj.s:1016   .text:0000000000000488 .L0 
     /tmp/ccS2ESdj.s:1022   .text:0000000000000488 _ZN14PeriodicThread9terminateEv
     /tmp/ccS2ESdj.s:1025   .text:0000000000000488 .L0 
     /tmp/ccS2ESdj.s:1027   .text:0000000000000488 .L0 
     /tmp/ccS2ESdj.s:1028   .text:000000000000048c .L0 
     /tmp/ccS2ESdj.s:1030   .text:0000000000000490 .L0 
     /tmp/ccS2ESdj.s:1032   .text:0000000000000494 .L0 
     /tmp/ccS2ESdj.s:1034   .text:0000000000000494 .L0 
     /tmp/ccS2ESdj.s:1035   .text:0000000000000494 .L0 
     /tmp/ccS2ESdj.s:1037   .text:0000000000000498 .L0 
     /tmp/ccS2ESdj.s:1038   .text:000000000000049c .L0 
     /tmp/ccS2ESdj.s:1039   .text:000000000000049c .L0 
     /tmp/ccS2ESdj.s:1041   .text:00000000000004a0 .L0 
     /tmp/ccS2ESdj.s:1043   .text:00000000000004a4 .L0 
     /tmp/ccS2ESdj.s:32     .text._ZN6Thread3runEv:0000000000000018 .L0 
     /tmp/ccS2ESdj.s:57     .text._ZN14PeriodicThread18periodicActivationEv:0000000000000018 .L0 
     /tmp/ccS2ESdj.s:1086   .text:00000000000004a4 .L0 
     /tmp/ccS2ESdj.s:370    .text._ZN14PeriodicThreadD2Ev:0000000000000038 .L0 
     /tmp/ccS2ESdj.s:615    .text._ZN14PeriodicThreadD0Ev:0000000000000050 .L0 
     /tmp/ccS2ESdj.s:153    .text:0000000000000068 .L0 
     /tmp/ccS2ESdj.s:279    .text:00000000000000f4 .L0 
     /tmp/ccS2ESdj.s:508    .text:0000000000000210 .L0 
     /tmp/ccS2ESdj.s:634    .text:0000000000000274 .L0 
     /tmp/ccS2ESdj.s:749    .text:0000000000000318 .L0 
     /tmp/ccS2ESdj.s:754    .text:0000000000000328 .L0 
     /tmp/ccS2ESdj.s:865    .text:00000000000003b8 .L0 
     /tmp/ccS2ESdj.s:303    .text:0000000000000128 .L15
     /tmp/ccS2ESdj.s:497    .text:0000000000000204 .L27
     /tmp/ccS2ESdj.s:530    .text:0000000000000248 .L24
     /tmp/ccS2ESdj.s:480    .text:00000000000001e4 .L29
     /tmp/ccS2ESdj.s:842    .text:00000000000003a4 .L45
     /tmp/ccS2ESdj.s:510    .text:000000000000021c .LEHB0
     /tmp/ccS2ESdj.s:453    .text:00000000000001bc .LFB47
     /tmp/ccS2ESdj.s:523    .text:000000000000023c .LEHE0
     /tmp/ccS2ESdj.s:347    .text._ZN14PeriodicThreadD2Ev:0000000000000010 .L0 
     /tmp/ccS2ESdj.s:587    .text._ZN14PeriodicThreadD0Ev:0000000000000018 .L0 
     /tmp/ccS2ESdj.s:3304   .debug_abbrev:0000000000000000 .Ldebug_abbrev0
     /tmp/ccS2ESdj.s:5329   .debug_str:000000000000098b .LASF184
     /tmp/ccS2ESdj.s:5159   .debug_str:000000000000047d .LASF185
     /tmp/ccS2ESdj.s:5293   .debug_str:0000000000000883 .LASF186
     /tmp/ccS2ESdj.s:5001   .debug_ranges:0000000000000000 .Ldebug_ranges0
     /tmp/ccS2ESdj.s:5021   .debug_line:0000000000000000 .Ldebug_line0
     /tmp/ccS2ESdj.s:5147   .debug_str:0000000000000415 .LASF0
     /tmp/ccS2ESdj.s:5179   .debug_str:0000000000000521 .LASF1
GAS LISTING /tmp/ccS2ESdj.s 			page 34


     /tmp/ccS2ESdj.s:5275   .debug_str:0000000000000809 .LASF2
     /tmp/ccS2ESdj.s:5283   .debug_str:0000000000000848 .LASF4
     /tmp/ccS2ESdj.s:5161   .debug_str:0000000000000491 .LASF3
     /tmp/ccS2ESdj.s:5037   .debug_str:000000000000005f .LASF5
     /tmp/ccS2ESdj.s:5243   .debug_str:0000000000000735 .LASF6
     /tmp/ccS2ESdj.s:5235   .debug_str:00000000000006f4 .LASF7
     /tmp/ccS2ESdj.s:5169   .debug_str:00000000000004ca .LASF8
     /tmp/ccS2ESdj.s:5121   .debug_str:0000000000000321 .LASF9
     /tmp/ccS2ESdj.s:5131   .debug_str:000000000000039d .LASF10
     /tmp/ccS2ESdj.s:5069   .debug_str:0000000000000150 .LASF11
     /tmp/ccS2ESdj.s:5111   .debug_str:00000000000002cd .LASF12
     /tmp/ccS2ESdj.s:5083   .debug_str:00000000000001e0 .LASF13
     /tmp/ccS2ESdj.s:5067   .debug_str:0000000000000140 .LASF14
     /tmp/ccS2ESdj.s:5307   .debug_str:000000000000091a .LASF15
     /tmp/ccS2ESdj.s:5101   .debug_str:0000000000000288 .LASF16
     /tmp/ccS2ESdj.s:5301   .debug_str:00000000000008d6 .LASF17
     /tmp/ccS2ESdj.s:5365   .debug_str:0000000000000b23 .LASF18
     /tmp/ccS2ESdj.s:5357   .debug_str:0000000000000afc .LASF19
     /tmp/ccS2ESdj.s:5355   .debug_str:0000000000000af3 .LASF20
     /tmp/ccS2ESdj.s:5181   .debug_str:0000000000000534 .LASF187
     /tmp/ccS2ESdj.s:5091   .debug_str:000000000000022e .LASF21
     /tmp/ccS2ESdj.s:5277   .debug_str:0000000000000817 .LASF22
     /tmp/ccS2ESdj.s:5163   .debug_str:00000000000004a3 .LASF23
     /tmp/ccS2ESdj.s:5171   .debug_str:00000000000004dd .LASF24
     /tmp/ccS2ESdj.s:5055   .debug_str:00000000000000db .LASF25
     /tmp/ccS2ESdj.s:5349   .debug_str:0000000000000adb .LASF26
     /tmp/ccS2ESdj.s:5265   .debug_str:00000000000007bf .LASF27
     /tmp/ccS2ESdj.s:5189   .debug_str:0000000000000574 .LASF28
     /tmp/ccS2ESdj.s:5207   .debug_str:00000000000005e4 .LASF29
     /tmp/ccS2ESdj.s:5061   .debug_str:000000000000010b .LASF30
     /tmp/ccS2ESdj.s:5185   .debug_str:000000000000054c .LASF32
     /tmp/ccS2ESdj.s:5095   .debug_str:0000000000000267 .LASF31
     /tmp/ccS2ESdj.s:5079   .debug_str:00000000000001ba .LASF33
     /tmp/ccS2ESdj.s:5033   .debug_str:0000000000000044 .LASF102
     /tmp/ccS2ESdj.s:5405   .debug_str:0000000000000c6c .LASF104
     /tmp/ccS2ESdj.s:5399   .debug_str:0000000000000c34 .LASF70
     /tmp/ccS2ESdj.s:5351   .debug_str:0000000000000ae1 .LASF38
     /tmp/ccS2ESdj.s:5071   .debug_str:000000000000015f .LASF40
     /tmp/ccS2ESdj.s:5253   .debug_str:0000000000000783 .LASF34
     /tmp/ccS2ESdj.s:5143   .debug_str:00000000000003f2 .LASF36
     /tmp/ccS2ESdj.s:5151   .debug_str:0000000000000434 .LASF35
     /tmp/ccS2ESdj.s:5117   .debug_str:00000000000002f2 .LASF37
     /tmp/ccS2ESdj.s:5287   .debug_str:0000000000000854 .LASF39
     /tmp/ccS2ESdj.s:5199   .debug_str:00000000000005ae .LASF41
     /tmp/ccS2ESdj.s:5023   .debug_str:0000000000000000 .LASF42
     /tmp/ccS2ESdj.s:5029   .debug_str:0000000000000021 .LASF43
     /tmp/ccS2ESdj.s:5353   .debug_str:0000000000000ae9 .LASF44
     /tmp/ccS2ESdj.s:5273   .debug_str:00000000000007f4 .LASF45
     /tmp/ccS2ESdj.s:5389   .debug_str:0000000000000be0 .LASF46
     /tmp/ccS2ESdj.s:5053   .debug_str:00000000000000c5 .LASF47
     /tmp/ccS2ESdj.s:5375   .debug_str:0000000000000b73 .LASF48
     /tmp/ccS2ESdj.s:5063   .debug_str:0000000000000119 .LASF49
     /tmp/ccS2ESdj.s:5323   .debug_str:0000000000000969 .LASF52
     /tmp/ccS2ESdj.s:5113   .debug_str:00000000000002dc .LASF54
     /tmp/ccS2ESdj.s:5327   .debug_str:0000000000000983 .LASF188
     /tmp/ccS2ESdj.s:5285   .debug_str:000000000000084f .LASF50
     /tmp/ccS2ESdj.s:5031   .debug_str:0000000000000038 .LASF51
GAS LISTING /tmp/ccS2ESdj.s 			page 35


     /tmp/ccS2ESdj.s:5373   .debug_str:0000000000000b6a .LASF53
     /tmp/ccS2ESdj.s:5081   .debug_str:00000000000001cd .LASF55
     /tmp/ccS2ESdj.s:5219   .debug_str:0000000000000648 .LASF56
     /tmp/ccS2ESdj.s:5239   .debug_str:000000000000071c .LASF57
     /tmp/ccS2ESdj.s:5065   .debug_str:0000000000000137 .LASF58
     /tmp/ccS2ESdj.s:5247   .debug_str:000000000000074b .LASF59
     /tmp/ccS2ESdj.s:5209   .debug_str:00000000000005ea .LASF60
     /tmp/ccS2ESdj.s:5187   .debug_str:0000000000000565 .LASF61
     /tmp/ccS2ESdj.s:5087   .debug_str:00000000000001fb .LASF62
     /tmp/ccS2ESdj.s:5341   .debug_str:0000000000000aa5 .LASF63
     /tmp/ccS2ESdj.s:5141   .debug_str:00000000000003dd .LASF64
     /tmp/ccS2ESdj.s:5347   .debug_str:0000000000000ad6 .LASF65
     /tmp/ccS2ESdj.s:5191   .debug_str:000000000000057c .LASF66
     /tmp/ccS2ESdj.s:5105   .debug_str:00000000000002a7 .LASF67
     /tmp/ccS2ESdj.s:5297   .debug_str:00000000000008bd .LASF68
     /tmp/ccS2ESdj.s:5047   .debug_str:00000000000000b5 .LASF69
     /tmp/ccS2ESdj.s:5319   .debug_str:000000000000094e .LASF71
     /tmp/ccS2ESdj.s:5167   .debug_str:00000000000004c4 .LASF72
     /tmp/ccS2ESdj.s:5093   .debug_str:0000000000000233 .LASF73
     /tmp/ccS2ESdj.s:5295   .debug_str:00000000000008a3 .LASF74
     /tmp/ccS2ESdj.s:5233   .debug_str:00000000000006d8 .LASF75
     /tmp/ccS2ESdj.s:5279   .debug_str:000000000000081c .LASF76
     /tmp/ccS2ESdj.s:5225   .debug_str:000000000000066d .LASF77
     /tmp/ccS2ESdj.s:5211   .debug_str:0000000000000607 .LASF89
     /tmp/ccS2ESdj.s:5173   .debug_str:00000000000004e6 .LASF90
     /tmp/ccS2ESdj.s:5205   .debug_str:00000000000005da .LASF78
     /tmp/ccS2ESdj.s:5281   .debug_str:0000000000000826 .LASF79
     /tmp/ccS2ESdj.s:5313   .debug_str:0000000000000936 .LASF80
     /tmp/ccS2ESdj.s:5227   .debug_str:0000000000000689 .LASF81
     /tmp/ccS2ESdj.s:5119   .debug_str:0000000000000317 .LASF82
     /tmp/ccS2ESdj.s:5229   .debug_str:00000000000006ab .LASF83
     /tmp/ccS2ESdj.s:5041   .debug_str:0000000000000090 .LASF84
     /tmp/ccS2ESdj.s:5381   .debug_str:0000000000000bb3 .LASF85
     /tmp/ccS2ESdj.s:5387   .debug_str:0000000000000bce .LASF86
     /tmp/ccS2ESdj.s:5343   .debug_str:0000000000000aac .LASF87
     /tmp/ccS2ESdj.s:5305   .debug_str:0000000000000906 .LASF88
     /tmp/ccS2ESdj.s:5077   .debug_str:0000000000000199 .LASF91
     /tmp/ccS2ESdj.s:5249   .debug_str:0000000000000759 .LASF92
     /tmp/ccS2ESdj.s:5397   .debug_str:0000000000000c0f .LASF93
     /tmp/ccS2ESdj.s:5045   .debug_str:00000000000000af .LASF94
     /tmp/ccS2ESdj.s:5303   .debug_str:00000000000008ec .LASF95
     /tmp/ccS2ESdj.s:5259   .debug_str:00000000000007a1 .LASF96
     /tmp/ccS2ESdj.s:5237   .debug_str:0000000000000707 .LASF97
     /tmp/ccS2ESdj.s:5193   .debug_str:000000000000058f .LASF98
     /tmp/ccS2ESdj.s:5197   .debug_str:00000000000005a6 .LASF99
     /tmp/ccS2ESdj.s:5155   .debug_str:0000000000000469 .LASF100
     /tmp/ccS2ESdj.s:5089   .debug_str:000000000000021b .LASF101
     /tmp/ccS2ESdj.s:5201   .debug_str:00000000000005c5 .LASF103
     /tmp/ccS2ESdj.s:5099   .debug_str:0000000000000275 .LASF105
     /tmp/ccS2ESdj.s:5315   .debug_str:000000000000093f .LASF106
     /tmp/ccS2ESdj.s:5371   .debug_str:0000000000000b5b .LASF109
     /tmp/ccS2ESdj.s:5317   .debug_str:0000000000000944 .LASF107
     /tmp/ccS2ESdj.s:5125   .debug_str:0000000000000352 .LASF108
     /tmp/ccS2ESdj.s:5215   .debug_str:0000000000000623 .LASF115
     /tmp/ccS2ESdj.s:5127   .debug_str:0000000000000372 .LASF117
     /tmp/ccS2ESdj.s:5165   .debug_str:00000000000004ac .LASF110
     /tmp/ccS2ESdj.s:5129   .debug_str:000000000000038a .LASF111
GAS LISTING /tmp/ccS2ESdj.s 			page 36


     /tmp/ccS2ESdj.s:5039   .debug_str:0000000000000066 .LASF189
     /tmp/ccS2ESdj.s:5367   .debug_str:0000000000000b2c .LASF125
     /tmp/ccS2ESdj.s:5337   .debug_str:0000000000000a87 .LASF112
     /tmp/ccS2ESdj.s:5203   .debug_str:00000000000005ca .LASF190
     /tmp/ccS2ESdj.s:5231   .debug_str:00000000000006b0 .LASF191
     /tmp/ccS2ESdj.s:5139   .debug_str:00000000000003d6 .LASF113
     /tmp/ccS2ESdj.s:5057   .debug_str:00000000000000ea .LASF131
     /tmp/ccS2ESdj.s:5267   .debug_str:00000000000007c8 .LASF133
     /tmp/ccS2ESdj.s:5409   .debug_str:0000000000000ca1 .LASF114
     /tmp/ccS2ESdj.s:5299   .debug_str:00000000000008ce .LASF116
     /tmp/ccS2ESdj.s:5107   .debug_str:00000000000002b8 .LASF118
     /tmp/ccS2ESdj.s:5393   .debug_str:0000000000000bf9 .LASF119
     /tmp/ccS2ESdj.s:5183   .debug_str:0000000000000539 .LASF120
     /tmp/ccS2ESdj.s:5195   .debug_str:0000000000000594 .LASF121
     /tmp/ccS2ESdj.s:5223   .debug_str:0000000000000657 .LASF192
     /tmp/ccS2ESdj.s:5049   .debug_str:00000000000000ba .LASF122
     /tmp/ccS2ESdj.s:5331   .debug_str:0000000000000a4f .LASF123
     /tmp/ccS2ESdj.s:5157   .debug_str:000000000000046e .LASF124
     /tmp/ccS2ESdj.s:5379   .debug_str:0000000000000ba2 .LASF126
     /tmp/ccS2ESdj.s:5377   .debug_str:0000000000000b85 .LASF127
     /tmp/ccS2ESdj.s:5103   .debug_str:000000000000029e .LASF128
     /tmp/ccS2ESdj.s:5025   .debug_str:000000000000000c .LASF129
     /tmp/ccS2ESdj.s:5359   .debug_str:0000000000000b01 .LASF130
     /tmp/ccS2ESdj.s:5325   .debug_str:000000000000096e .LASF132
     /tmp/ccS2ESdj.s:5395   .debug_str:0000000000000bff .LASF134
     /tmp/ccS2ESdj.s:5321   .debug_str:0000000000000957 .LASF135
     /tmp/ccS2ESdj.s:5255   .debug_str:000000000000078c .LASF136
     /tmp/ccS2ESdj.s:5291   .debug_str:0000000000000871 .LASF137
     /tmp/ccS2ESdj.s:5097   .debug_str:0000000000000270 .LASF138
     /tmp/ccS2ESdj.s:5075   .debug_str:0000000000000184 .LASF139
     /tmp/ccS2ESdj.s:5311   .debug_str:000000000000092f .LASF140
     /tmp/ccS2ESdj.s:5339   .debug_str:0000000000000a8e .LASF141
     /tmp/ccS2ESdj.s:5385   .debug_str:0000000000000bc8 .LASF142
     /tmp/ccS2ESdj.s:5145   .debug_str:0000000000000405 .LASF193
     /tmp/ccS2ESdj.s:1023   .text:0000000000000488 .LFB49
     /tmp/ccS2ESdj.s:1044   .text:00000000000004a4 .LFE49
     /tmp/ccS2ESdj.s:5115   .debug_str:00000000000002ed .LASF143
     /tmp/ccS2ESdj.s:100    .text:000000000000002c .LFB48
     /tmp/ccS2ESdj.s:131    .text:0000000000000058 .LFE48
     /tmp/ccS2ESdj.s:5269   .debug_str:00000000000007d5 .LASF145
     /tmp/ccS2ESdj.s:4562   .debug_loc:0000000000000000 .LLST2
     /tmp/ccS2ESdj.s:4576   .debug_loc:0000000000000039 .LLST3
     /tmp/ccS2ESdj.s:120    .text:0000000000000048 .LVL7
     /tmp/ccS2ESdj.s:550    .text:0000000000000264 .LFE47
     /tmp/ccS2ESdj.s:4590   .debug_loc:0000000000000072 .LLST12
     /tmp/ccS2ESdj.s:4608   .debug_loc:00000000000000be .LLST13
     /tmp/ccS2ESdj.s:5383   .debug_str:0000000000000bc1 .LASF144
     /tmp/ccS2ESdj.s:482    .text:00000000000001e4 .LBB19
     /tmp/ccS2ESdj.s:492    .text:00000000000001f8 .LBE19
     /tmp/ccS2ESdj.s:4615   .debug_loc:00000000000000e1 .LLST14
     /tmp/ccS2ESdj.s:487    .text:00000000000001ec .LVL33
     /tmp/ccS2ESdj.s:490    .text:00000000000001f8 .LVL34
     /tmp/ccS2ESdj.s:496    .text:0000000000000204 .LVL35
     /tmp/ccS2ESdj.s:512    .text:0000000000000224 .LVL36
     /tmp/ccS2ESdj.s:517    .text:0000000000000230 .LVL37
     /tmp/ccS2ESdj.s:522    .text:000000000000023c .LVL38
     /tmp/ccS2ESdj.s:991    .text:0000000000000460 .LFB46
GAS LISTING /tmp/ccS2ESdj.s 			page 37


     /tmp/ccS2ESdj.s:1017   .text:0000000000000488 .LFE46
     /tmp/ccS2ESdj.s:4622   .debug_loc:0000000000000104 .LLST28
     /tmp/ccS2ESdj.s:1006   .text:0000000000000478 .LVL73
     /tmp/ccS2ESdj.s:960    .text:0000000000000438 .LFB45
     /tmp/ccS2ESdj.s:985    .text:0000000000000460 .LFE45
     /tmp/ccS2ESdj.s:974    .text:0000000000000450 .LVL71
     /tmp/ccS2ESdj.s:926    .text:000000000000040c .LFB44
     /tmp/ccS2ESdj.s:954    .text:0000000000000438 .LFE44
     /tmp/ccS2ESdj.s:4636   .debug_loc:000000000000013d .LLST27
     /tmp/ccS2ESdj.s:943    .text:0000000000000428 .LVL70
     /tmp/ccS2ESdj.s:892    .text:00000000000003e0 .LFB43
     /tmp/ccS2ESdj.s:920    .text:000000000000040c .LFE43
     /tmp/ccS2ESdj.s:4650   .debug_loc:0000000000000176 .LLST26
     /tmp/ccS2ESdj.s:909    .text:00000000000003fc .LVL67
     /tmp/ccS2ESdj.s:5035   .debug_str:0000000000000055 .LASF146
     /tmp/ccS2ESdj.s:5149   .debug_str:0000000000000422 .LASF147
     /tmp/ccS2ESdj.s:414    .text:000000000000017c .LFB42
     /tmp/ccS2ESdj.s:447    .text:00000000000001bc .LFE42
     /tmp/ccS2ESdj.s:4664   .debug_loc:00000000000001af .LLST11
     /tmp/ccS2ESdj.s:431    .text:000000000000019c .LVL27
     /tmp/ccS2ESdj.s:434    .text:00000000000001a8 .LVL28
     /tmp/ccS2ESdj.s:5289   .debug_str:000000000000085f .LASF148
     /tmp/ccS2ESdj.s:137    .text:0000000000000058 .LFB40
     /tmp/ccS2ESdj.s:172    .text:0000000000000090 .LFE40
     /tmp/ccS2ESdj.s:4682   .debug_loc:00000000000001fb .LLST4
     /tmp/ccS2ESdj.s:160    .text:0000000000000080 .LVL10
     /tmp/ccS2ESdj.s:5051   .debug_str:00000000000000c0 .LASF154
     /tmp/ccS2ESdj.s:5073   .debug_str:0000000000000172 .LASF149
     /tmp/ccS2ESdj.s:851    .text:00000000000003a8 .LFB37
     /tmp/ccS2ESdj.s:884    .text:00000000000003e0 .LFE37
     /tmp/ccS2ESdj.s:4696   .debug_loc:0000000000000234 .LLST24
     /tmp/ccS2ESdj.s:4716   .debug_loc:0000000000000282 .LLST25
     /tmp/ccS2ESdj.s:872    .text:00000000000003d0 .LVL64
     /tmp/ccS2ESdj.s:810    .text:0000000000000374 .LFB35
     /tmp/ccS2ESdj.s:845    .text:00000000000003a8 .LFE35
     /tmp/ccS2ESdj.s:4730   .debug_loc:00000000000002bb .LLST23
     /tmp/ccS2ESdj.s:832    .text:0000000000000394 .LVL61
     /tmp/ccS2ESdj.s:778    .text:000000000000034c .LFB34
     /tmp/ccS2ESdj.s:804    .text:0000000000000374 .LFE34
     /tmp/ccS2ESdj.s:5177   .debug_str:000000000000051b .LASF150
     /tmp/ccS2ESdj.s:4744   .debug_loc:00000000000002f4 .LLST22
     /tmp/ccS2ESdj.s:793    .text:0000000000000364 .LVL58
     /tmp/ccS2ESdj.s:62     .text:0000000000000000 .LFB33
     /tmp/ccS2ESdj.s:94     .text:000000000000002c .LFE33
     /tmp/ccS2ESdj.s:4758   .debug_loc:000000000000032d .LLST0
     /tmp/ccS2ESdj.s:4772   .debug_loc:0000000000000366 .LLST1
     /tmp/ccS2ESdj.s:83     .text:000000000000001c .LVL4
     /tmp/ccS2ESdj.s:5245   .debug_str:000000000000073c .LASF151
     /tmp/ccS2ESdj.s:735    .text:0000000000000308 .LFB31
     /tmp/ccS2ESdj.s:770    .text:000000000000034c .LFE31
     /tmp/ccS2ESdj.s:4786   .debug_loc:000000000000039f .LLST21
     /tmp/ccS2ESdj.s:758    .text:000000000000033c .LVL56
     /tmp/ccS2ESdj.s:704    .text:00000000000002e0 .LFB29
     /tmp/ccS2ESdj.s:729    .text:0000000000000308 .LFE29
     /tmp/ccS2ESdj.s:718    .text:00000000000002f8 .LVL53
     /tmp/ccS2ESdj.s:661    .text:000000000000029c .LFB28
     /tmp/ccS2ESdj.s:698    .text:00000000000002e0 .LFE28
GAS LISTING /tmp/ccS2ESdj.s 			page 38


     /tmp/ccS2ESdj.s:4804   .debug_loc:00000000000003eb .LLST20
     /tmp/ccS2ESdj.s:679    .text:00000000000002bc .LVL50
     /tmp/ccS2ESdj.s:682    .text:00000000000002c8 .LVL51
     /tmp/ccS2ESdj.s:5361   .debug_str:0000000000000b0b .LASF152
     /tmp/ccS2ESdj.s:375    .text:000000000000013c .LFB27
     /tmp/ccS2ESdj.s:408    .text:000000000000017c .LFE27
     /tmp/ccS2ESdj.s:4822   .debug_loc:0000000000000437 .LLST10
     /tmp/ccS2ESdj.s:392    .text:000000000000015c .LVL23
     /tmp/ccS2ESdj.s:395    .text:0000000000000168 .LVL24
     /tmp/ccS2ESdj.s:5059   .debug_str:00000000000000fc .LASF153
     /tmp/ccS2ESdj.s:261    .text:00000000000000e0 .LFB25
     /tmp/ccS2ESdj.s:317    .text:000000000000013c .LFE25
     /tmp/ccS2ESdj.s:4840   .debug_loc:0000000000000483 .LLST7
     /tmp/ccS2ESdj.s:287    .text:0000000000000108 .LBB15
     /tmp/ccS2ESdj.s:298    .text:000000000000011c .LBE15
     /tmp/ccS2ESdj.s:4854   .debug_loc:00000000000004bc .LLST8
     /tmp/ccS2ESdj.s:293    .text:0000000000000110 .LVL17
     /tmp/ccS2ESdj.s:296    .text:000000000000011c .LVL18
     /tmp/ccS2ESdj.s:302    .text:0000000000000128 .LVL19
     /tmp/ccS2ESdj.s:5335   .debug_str:0000000000000a70 .LASF155
     /tmp/ccS2ESdj.s:620    .text:0000000000000264 .LFB22
     /tmp/ccS2ESdj.s:653    .text:000000000000029c .LFE22
     /tmp/ccS2ESdj.s:4861   .debug_loc:00000000000004df .LLST17
     /tmp/ccS2ESdj.s:4881   .debug_loc:000000000000052d .LLST18
     /tmp/ccS2ESdj.s:4895   .debug_loc:0000000000000566 .LLST19
     /tmp/ccS2ESdj.s:641    .text:000000000000028c .LVL48
     /tmp/ccS2ESdj.s:5027   .debug_str:0000000000000011 .LASF156
     /tmp/ccS2ESdj.s:5221   .debug_str:0000000000000650 .LASF157
     /tmp/ccS2ESdj.s:220    .text:00000000000000b8 .LFB20
     /tmp/ccS2ESdj.s:248    .text:00000000000000e0 .LFE20
     /tmp/ccS2ESdj.s:4909   .debug_loc:000000000000059f .LLST6
     /tmp/ccS2ESdj.s:237    .text:00000000000000d0 .LVL14
     /tmp/ccS2ESdj.s:5401   .debug_str:0000000000000c47 .LASF158
     /tmp/ccS2ESdj.s:5109   .debug_str:00000000000002c7 .LASF159
     /tmp/ccS2ESdj.s:188    .text:0000000000000090 .LFB19
     /tmp/ccS2ESdj.s:214    .text:00000000000000b8 .LFE19
     /tmp/ccS2ESdj.s:4923   .debug_loc:00000000000005d8 .LLST5
     /tmp/ccS2ESdj.s:203    .text:00000000000000a8 .LVL12
     /tmp/ccS2ESdj.s:37     .text._ZN14PeriodicThread18periodicActivationEv:0000000000000000 .LFB18
     /tmp/ccS2ESdj.s:55     .text._ZN14PeriodicThread18periodicActivationEv:0000000000000018 .LFE18
     /tmp/ccS2ESdj.s:5411   .debug_str:0000000000000cb8 .LASF160
     /tmp/ccS2ESdj.s:568    .text._ZN14PeriodicThreadD0Ev:0000000000000000 .LFB14
     /tmp/ccS2ESdj.s:613    .text._ZN14PeriodicThreadD0Ev:0000000000000050 .LFE14
     /tmp/ccS2ESdj.s:4937   .debug_loc:0000000000000611 .LLST15
     /tmp/ccS2ESdj.s:584    .text._ZN14PeriodicThreadD0Ev:0000000000000018 .LBB22
     /tmp/ccS2ESdj.s:596    .text._ZN14PeriodicThreadD0Ev:0000000000000030 .LBE22
     /tmp/ccS2ESdj.s:4955   .debug_loc:000000000000065d .LLST16
     /tmp/ccS2ESdj.s:594    .text._ZN14PeriodicThreadD0Ev:0000000000000030 .LVL43
     /tmp/ccS2ESdj.s:600    .text._ZN14PeriodicThreadD0Ev:000000000000003c .LVL44
     /tmp/ccS2ESdj.s:5271   .debug_str:00000000000007dc .LASF161
     /tmp/ccS2ESdj.s:333    .text._ZN14PeriodicThreadD2Ev:0000000000000000 .LFB12
     /tmp/ccS2ESdj.s:366    .text._ZN14PeriodicThreadD2Ev:0000000000000038 .LFE12
     /tmp/ccS2ESdj.s:4966   .debug_loc:0000000000000693 .LLST9
     /tmp/ccS2ESdj.s:354    .text._ZN14PeriodicThreadD2Ev:0000000000000028 .LVL21
     /tmp/ccS2ESdj.s:11     .text._ZN6Thread3runEv:0000000000000000 .LFB10
     /tmp/ccS2ESdj.s:30     .text._ZN6Thread3runEv:0000000000000018 .LFE10
     /tmp/ccS2ESdj.s:5175   .debug_str:000000000000050f .LASF194
GAS LISTING /tmp/ccS2ESdj.s 			page 39


     /tmp/ccS2ESdj.s:5123   .debug_str:0000000000000331 .LASF162
     /tmp/ccS2ESdj.s:5333   .debug_str:0000000000000a62 .LASF164
     /tmp/ccS2ESdj.s:5217   .debug_str:0000000000000633 .LASF163
     /tmp/ccS2ESdj.s:5213   .debug_str:0000000000000617 .LASF165
     /tmp/ccS2ESdj.s:5241   .debug_str:0000000000000725 .LASF166
     /tmp/ccS2ESdj.s:5085   .debug_str:00000000000001f0 .LASF167
     /tmp/ccS2ESdj.s:5309   .debug_str:0000000000000926 .LASF168
     /tmp/ccS2ESdj.s:5363   .debug_str:0000000000000b1a .LASF169
     /tmp/ccS2ESdj.s:5403   .debug_str:0000000000000c54 .LASF170
     /tmp/ccS2ESdj.s:5137   .debug_str:00000000000003cb .LASF171
     /tmp/ccS2ESdj.s:5369   .debug_str:0000000000000b46 .LASF172
     /tmp/ccS2ESdj.s:5407   .debug_str:0000000000000c98 .LASF173
     /tmp/ccS2ESdj.s:5345   .debug_str:0000000000000ac0 .LASF174
     /tmp/ccS2ESdj.s:5257   .debug_str:0000000000000797 .LASF175
     /tmp/ccS2ESdj.s:5251   .debug_str:000000000000076c .LASF176
     /tmp/ccS2ESdj.s:5263   .debug_str:00000000000007b6 .LASF177
     /tmp/ccS2ESdj.s:5153   .debug_str:0000000000000444 .LASF178
     /tmp/ccS2ESdj.s:5133   .debug_str:00000000000003ab .LASF179
     /tmp/ccS2ESdj.s:5043   .debug_str:000000000000009a .LASF180
     /tmp/ccS2ESdj.s:5261   .debug_str:00000000000007a6 .LASF181
     /tmp/ccS2ESdj.s:5391   .debug_str:0000000000000beb .LASF182
     /tmp/ccS2ESdj.s:5135   .debug_str:00000000000003bd .LASF183
     /tmp/ccS2ESdj.s:103    .text:000000000000002c .LVL5
     /tmp/ccS2ESdj.s:113    .text:000000000000003c .LVL6
     /tmp/ccS2ESdj.s:458    .text:00000000000001bc .LVL30
     /tmp/ccS2ESdj.s:479    .text:00000000000001e4 .LVL32
     /tmp/ccS2ESdj.s:542    .text:0000000000000258 .LVL39
     /tmp/ccS2ESdj.s:477    .text:00000000000001e0 .LVL31
     /tmp/ccS2ESdj.s:545    .text:000000000000025c .LVL40
     /tmp/ccS2ESdj.s:994    .text:0000000000000460 .LVL72
     /tmp/ccS2ESdj.s:929    .text:000000000000040c .LVL68
     /tmp/ccS2ESdj.s:941    .text:0000000000000420 .LVL69
     /tmp/ccS2ESdj.s:895    .text:00000000000003e0 .LVL65
     /tmp/ccS2ESdj.s:907    .text:00000000000003f4 .LVL66
     /tmp/ccS2ESdj.s:417    .text:000000000000017c .LVL26
     /tmp/ccS2ESdj.s:442    .text:00000000000001b4 .LVL29
     /tmp/ccS2ESdj.s:142    .text:0000000000000058 .LVL8
     /tmp/ccS2ESdj.s:158    .text:0000000000000078 .LVL9
     /tmp/ccS2ESdj.s:854    .text:00000000000003a8 .LVL62
     /tmp/ccS2ESdj.s:870    .text:00000000000003c8 .LVL63
     /tmp/ccS2ESdj.s:813    .text:0000000000000374 .LVL59
     /tmp/ccS2ESdj.s:817    .text:0000000000000378 .LVL60
     /tmp/ccS2ESdj.s:781    .text:000000000000034c .LVL57
     /tmp/ccS2ESdj.s:66     .text:0000000000000000 .LVL2
     /tmp/ccS2ESdj.s:76     .text:0000000000000010 .LVL3
     /tmp/ccS2ESdj.s:738    .text:0000000000000308 .LVL54
     /tmp/ccS2ESdj.s:756    .text:0000000000000334 .LVL55
     /tmp/ccS2ESdj.s:664    .text:000000000000029c .LVL49
     /tmp/ccS2ESdj.s:693    .text:00000000000002d8 .LVL52
     /tmp/ccS2ESdj.s:378    .text:000000000000013c .LVL22
     /tmp/ccS2ESdj.s:403    .text:0000000000000174 .LVL25
     /tmp/ccS2ESdj.s:266    .text:00000000000000e0 .LVL15
     /tmp/ccS2ESdj.s:286    .text:0000000000000108 .LVL16
     /tmp/ccS2ESdj.s:623    .text:0000000000000264 .LVL46
     /tmp/ccS2ESdj.s:639    .text:0000000000000284 .LVL47
     /tmp/ccS2ESdj.s:225    .text:00000000000000b8 .LVL13
     /tmp/ccS2ESdj.s:191    .text:0000000000000090 .LVL11
GAS LISTING /tmp/ccS2ESdj.s 			page 40


     /tmp/ccS2ESdj.s:571    .text._ZN14PeriodicThreadD0Ev:0000000000000000 .LVL41
     /tmp/ccS2ESdj.s:608    .text._ZN14PeriodicThreadD0Ev:0000000000000048 .LVL45
     /tmp/ccS2ESdj.s:583    .text._ZN14PeriodicThreadD0Ev:0000000000000018 .LVL42
     /tmp/ccS2ESdj.s:336    .text._ZN14PeriodicThreadD2Ev:0000000000000000 .LVL20
     /tmp/ccS2ESdj.s:1087   .debug_info:0000000000000000 .Ldebug_info0
     /tmp/ccS2ESdj.s:5      .text:0000000000000000 .Ltext0
     /tmp/ccS2ESdj.s:1080   .text:00000000000004a4 .Letext0
     /tmp/ccS2ESdj.s:481    .text:00000000000001e4 .LBB18
     /tmp/ccS2ESdj.s:498    .text:0000000000000204 .LBE18
     /tmp/ccS2ESdj.s:503    .text:000000000000020c .LBB21
     /tmp/ccS2ESdj.s:531    .text:0000000000000248 .LBE21
     /tmp/ccS2ESdj.s:175    .gcc_except_table:0000000000000000 .LLSDA40
     /tmp/ccS2ESdj.s:250    .gcc_except_table:0000000000000004 .LLSDA20
     /tmp/ccS2ESdj.s:319    .gcc_except_table:0000000000000008 .LLSDA25
     /tmp/ccS2ESdj.s:552    .gcc_except_table:000000000000000c .LLSDA47
                           .group:0000000000000000 _ZN14PeriodicThreadD5Ev

UNDEFINED SYMBOLS
_Z9sem_closeP7Semafor
__gxx_personality_v0
_Z9mem_allocm
_Z8mem_freePv
_ZN16AlokatorMemorije15dohvatiInstancuEv
_ZN16AlokatorMemorije8mem_freeEPv
_Z13thread_createPP3TCBPFvPvES2_
_Z11thread_joinP3TCB
_Z10time_sleepm
_Z17thread_create_cppPP3TCBPFvPvES2_
_ZN9Scheduler15dohvatiInstancuEv
_ZN9Scheduler5StaviEP3TCB
_Z15thread_dispatchv
_Z8sem_openPP7Semaforj
_Z8sem_waitP7Semafor
_Z10sem_signalP7Semafor
_Z4getcv
_Z4putcc
