GAS LISTING /tmp/cc4yCDT2.s 			page 1


   1              		.file	"Threads_CPP_API_test.cpp"
   2              		.option pic
   3              		.option norelax
   4              		.text
   5              	.Ltext0:
   6              		.align	2
   8              	_ZL9fibonaccim:
   9              	.LFB19:
  10              		.file 1 "test/Threads_CPP_API_test.cpp"
   1:test/Threads_CPP_API_test.cpp **** #include "../h/syscall_cpp.hpp"
   2:test/Threads_CPP_API_test.cpp **** 
   3:test/Threads_CPP_API_test.cpp **** #include "printing.hpp"
   4:test/Threads_CPP_API_test.cpp **** 
   5:test/Threads_CPP_API_test.cpp **** static volatile bool finishedA = false;
   6:test/Threads_CPP_API_test.cpp **** static volatile bool finishedB = false;
   7:test/Threads_CPP_API_test.cpp **** static volatile bool finishedC = false;
   8:test/Threads_CPP_API_test.cpp **** static volatile bool finishedD = false;
   9:test/Threads_CPP_API_test.cpp **** static Thread* a = nullptr;
  10:test/Threads_CPP_API_test.cpp **** 
  11:test/Threads_CPP_API_test.cpp **** static uint64 fibonacci(uint64 n) {
  11              		.loc 1 11 35
  12              		.cfi_startproc
  13              	.LVL0:
  14 0000 130101FE 		addi	sp,sp,-32
  15              		.cfi_def_cfa_offset 32
  16 0004 233C1100 		sd	ra,24(sp)
  17 0008 23388100 		sd	s0,16(sp)
  18 000c 23349100 		sd	s1,8(sp)
  19 0010 23302101 		sd	s2,0(sp)
  20              		.cfi_offset 1, -8
  21              		.cfi_offset 8, -16
  22              		.cfi_offset 9, -24
  23              		.cfi_offset 18, -32
  24 0014 13040102 		addi	s0,sp,32
  25              		.cfi_def_cfa 8, 0
  26 0018 93040500 		mv	s1,a0
  12:test/Threads_CPP_API_test.cpp ****     if (n == 0 || n == 1) { return n; }
  27              		.loc 1 12 5
  28 001c 93071000 		li	a5,1
  29 0020 63F8A702 		bleu	a0,a5,.L1
  13:test/Threads_CPP_API_test.cpp ****     if (n % 10 == 0) { thread_dispatch(); }
  30              		.loc 1 13 5
  31              		.loc 1 13 11 is_stmt 0
  32 0024 9307A000 		li	a5,10
  33 0028 B377F502 		remu	a5,a0,a5
  34              		.loc 1 13 5
  35 002c 638E0702 		beqz	a5,.L6
  36              	.LVL1:
  37              	.L3:
  14:test/Threads_CPP_API_test.cpp ****     return fibonacci(n - 1) + fibonacci(n - 2);
  38              		.loc 1 14 5 is_stmt 1
  39              		.loc 1 14 21 is_stmt 0
  40 0030 1385F4FF 		addi	a0,s1,-1
  41 0034 97000000 		call	_ZL9fibonaccim
  41      E7800000 
  42              	.LVL2:
  43 003c 13090500 		mv	s2,a0
GAS LISTING /tmp/cc4yCDT2.s 			page 2


  44              		.loc 1 14 40
  45 0040 1385E4FF 		addi	a0,s1,-2
  46 0044 97000000 		call	_ZL9fibonaccim
  46      E7800000 
  47              	.LVL3:
  48              		.loc 1 14 46
  49 004c 3305A900 		add	a0,s2,a0
  50              	.L1:
  15:test/Threads_CPP_API_test.cpp **** }
  51              		.loc 1 15 1
  52 0050 83308101 		ld	ra,24(sp)
  53              		.cfi_remember_state
  54              		.cfi_restore 1
  55 0054 03340101 		ld	s0,16(sp)
  56              		.cfi_restore 8
  57              		.cfi_def_cfa 2, 32
  58 0058 83348100 		ld	s1,8(sp)
  59              		.cfi_restore 9
  60              	.LVL4:
  61 005c 03390100 		ld	s2,0(sp)
  62              		.cfi_restore 18
  63 0060 13010102 		addi	sp,sp,32
  64              		.cfi_def_cfa_offset 0
  65 0064 67800000 		jr	ra
  66              	.LVL5:
  67              	.L6:
  68              		.cfi_restore_state
  13:test/Threads_CPP_API_test.cpp ****     if (n % 10 == 0) { thread_dispatch(); }
  69              		.loc 1 13 24 is_stmt 1 discriminator 1
  13:test/Threads_CPP_API_test.cpp ****     if (n % 10 == 0) { thread_dispatch(); }
  70              		.loc 1 13 39 is_stmt 0 discriminator 1
  71 0068 97000000 		call	_Z15thread_dispatchv@plt
  71      E7800000 
  72              	.LVL6:
  73 0070 6FF01FFC 		j	.L3
  74              		.cfi_endproc
  75              	.LFE19:
  77              		.section	.text._ZN7WorkerAD2Ev,"axG",@progbits,_ZN7WorkerAD5Ev,comdat
  78              		.align	2
  79              		.weak	_ZN7WorkerAD2Ev
  81              	_ZN7WorkerAD2Ev:
  82              	.LFB54:
  16:test/Threads_CPP_API_test.cpp **** 
  17:test/Threads_CPP_API_test.cpp **** class WorkerA: public Thread {
  83              		.loc 1 17 7 is_stmt 1
  84              		.cfi_startproc
  85              	.LVL7:
  86 0000 130101FF 		addi	sp,sp,-16
  87              		.cfi_def_cfa_offset 16
  88 0004 23341100 		sd	ra,8(sp)
  89 0008 23308100 		sd	s0,0(sp)
  90              		.cfi_offset 1, -8
  91              		.cfi_offset 8, -16
  92 000c 13040101 		addi	s0,sp,16
  93              		.cfi_def_cfa 8, 0
  94              	.LBB28:
  95              		.loc 1 17 7 is_stmt 0
GAS LISTING /tmp/cc4yCDT2.s 			page 3


  96 0010 97070000 		lla	a5,_ZTV7WorkerA+16
  96      93870700 
  97 0018 2330F500 		sd	a5,0(a0)
  98 001c 97000000 		call	_ZN6ThreadD2Ev@plt
  98      E7800000 
  99              	.LVL8:
 100              	.LBE28:
 101 0024 83308100 		ld	ra,8(sp)
 102              		.cfi_restore 1
 103 0028 03340100 		ld	s0,0(sp)
 104              		.cfi_restore 8
 105              		.cfi_def_cfa 2, 16
 106 002c 13010101 		addi	sp,sp,16
 107              		.cfi_def_cfa_offset 0
 108 0030 67800000 		jr	ra
 109              		.cfi_endproc
 110              	.LFE54:
 112              		.weak	_ZN7WorkerAD1Ev
 113              		.set	_ZN7WorkerAD1Ev,_ZN7WorkerAD2Ev
 114              		.section	.text._ZN7WorkerAD0Ev,"axG",@progbits,_ZN7WorkerAD5Ev,comdat
 115              		.align	2
 116              		.weak	_ZN7WorkerAD0Ev
 118              	_ZN7WorkerAD0Ev:
 119              	.LFB56:
 120              		.loc 1 17 7 is_stmt 1
 121              		.cfi_startproc
 122              	.LVL9:
 123 0000 130101FE 		addi	sp,sp,-32
 124              		.cfi_def_cfa_offset 32
 125 0004 233C1100 		sd	ra,24(sp)
 126 0008 23388100 		sd	s0,16(sp)
 127 000c 23349100 		sd	s1,8(sp)
 128              		.cfi_offset 1, -8
 129              		.cfi_offset 8, -16
 130              		.cfi_offset 9, -24
 131 0010 13040102 		addi	s0,sp,32
 132              		.cfi_def_cfa 8, 0
 133 0014 93040500 		mv	s1,a0
 134              	.LVL10:
 135              	.LBB29:
 136              	.LBB30:
 137              		.loc 1 17 7 is_stmt 0
 138 0018 97070000 		lla	a5,_ZTV7WorkerA+16
 138      93870700 
 139 0020 2330F500 		sd	a5,0(a0)
 140 0024 97000000 		call	_ZN6ThreadD2Ev@plt
 140      E7800000 
 141              	.LVL11:
 142              	.LBE30:
 143              	.LBE29:
 144 002c 13850400 		mv	a0,s1
 145 0030 97000000 		call	_ZdlPv@plt
 145      E7800000 
 146              	.LVL12:
 147 0038 83308101 		ld	ra,24(sp)
 148              		.cfi_restore 1
 149 003c 03340101 		ld	s0,16(sp)
GAS LISTING /tmp/cc4yCDT2.s 			page 4


 150              		.cfi_restore 8
 151              		.cfi_def_cfa 2, 32
 152 0040 83348100 		ld	s1,8(sp)
 153              		.cfi_restore 9
 154              	.LVL13:
 155 0044 13010102 		addi	sp,sp,32
 156              		.cfi_def_cfa_offset 0
 157 0048 67800000 		jr	ra
 158              		.cfi_endproc
 159              	.LFE56:
 161              		.section	.text._ZN7WorkerBD2Ev,"axG",@progbits,_ZN7WorkerBD5Ev,comdat
 162              		.align	2
 163              		.weak	_ZN7WorkerBD2Ev
 165              	_ZN7WorkerBD2Ev:
 166              	.LFB50:
  18:test/Threads_CPP_API_test.cpp ****     void workerBodyA(void* arg);
  19:test/Threads_CPP_API_test.cpp **** public:
  20:test/Threads_CPP_API_test.cpp ****     WorkerA():Thread() {}
  21:test/Threads_CPP_API_test.cpp **** 
  22:test/Threads_CPP_API_test.cpp ****     void run() override {
  23:test/Threads_CPP_API_test.cpp ****         workerBodyA(nullptr);
  24:test/Threads_CPP_API_test.cpp ****     }
  25:test/Threads_CPP_API_test.cpp **** };
  26:test/Threads_CPP_API_test.cpp **** 
  27:test/Threads_CPP_API_test.cpp **** class WorkerB: public Thread {
 167              		.loc 1 27 7 is_stmt 1
 168              		.cfi_startproc
 169              	.LVL14:
 170 0000 130101FF 		addi	sp,sp,-16
 171              		.cfi_def_cfa_offset 16
 172 0004 23341100 		sd	ra,8(sp)
 173 0008 23308100 		sd	s0,0(sp)
 174              		.cfi_offset 1, -8
 175              		.cfi_offset 8, -16
 176 000c 13040101 		addi	s0,sp,16
 177              		.cfi_def_cfa 8, 0
 178              	.LBB31:
 179              		.loc 1 27 7 is_stmt 0
 180 0010 97070000 		lla	a5,_ZTV7WorkerB+16
 180      93870700 
 181 0018 2330F500 		sd	a5,0(a0)
 182 001c 97000000 		call	_ZN6ThreadD2Ev@plt
 182      E7800000 
 183              	.LVL15:
 184              	.LBE31:
 185 0024 83308100 		ld	ra,8(sp)
 186              		.cfi_restore 1
 187 0028 03340100 		ld	s0,0(sp)
 188              		.cfi_restore 8
 189              		.cfi_def_cfa 2, 16
 190 002c 13010101 		addi	sp,sp,16
 191              		.cfi_def_cfa_offset 0
 192 0030 67800000 		jr	ra
 193              		.cfi_endproc
 194              	.LFE50:
 196              		.weak	_ZN7WorkerBD1Ev
 197              		.set	_ZN7WorkerBD1Ev,_ZN7WorkerBD2Ev
GAS LISTING /tmp/cc4yCDT2.s 			page 5


 198              		.section	.text._ZN7WorkerBD0Ev,"axG",@progbits,_ZN7WorkerBD5Ev,comdat
 199              		.align	2
 200              		.weak	_ZN7WorkerBD0Ev
 202              	_ZN7WorkerBD0Ev:
 203              	.LFB52:
 204              		.loc 1 27 7 is_stmt 1
 205              		.cfi_startproc
 206              	.LVL16:
 207 0000 130101FE 		addi	sp,sp,-32
 208              		.cfi_def_cfa_offset 32
 209 0004 233C1100 		sd	ra,24(sp)
 210 0008 23388100 		sd	s0,16(sp)
 211 000c 23349100 		sd	s1,8(sp)
 212              		.cfi_offset 1, -8
 213              		.cfi_offset 8, -16
 214              		.cfi_offset 9, -24
 215 0010 13040102 		addi	s0,sp,32
 216              		.cfi_def_cfa 8, 0
 217 0014 93040500 		mv	s1,a0
 218              	.LVL17:
 219              	.LBB32:
 220              	.LBB33:
 221              		.loc 1 27 7 is_stmt 0
 222 0018 97070000 		lla	a5,_ZTV7WorkerB+16
 222      93870700 
 223 0020 2330F500 		sd	a5,0(a0)
 224 0024 97000000 		call	_ZN6ThreadD2Ev@plt
 224      E7800000 
 225              	.LVL18:
 226              	.LBE33:
 227              	.LBE32:
 228 002c 13850400 		mv	a0,s1
 229 0030 97000000 		call	_ZdlPv@plt
 229      E7800000 
 230              	.LVL19:
 231 0038 83308101 		ld	ra,24(sp)
 232              		.cfi_restore 1
 233 003c 03340101 		ld	s0,16(sp)
 234              		.cfi_restore 8
 235              		.cfi_def_cfa 2, 32
 236 0040 83348100 		ld	s1,8(sp)
 237              		.cfi_restore 9
 238              	.LVL20:
 239 0044 13010102 		addi	sp,sp,32
 240              		.cfi_def_cfa_offset 0
 241 0048 67800000 		jr	ra
 242              		.cfi_endproc
 243              	.LFE52:
 245              		.section	.text._ZN7WorkerCD2Ev,"axG",@progbits,_ZN7WorkerCD5Ev,comdat
 246              		.align	2
 247              		.weak	_ZN7WorkerCD2Ev
 249              	_ZN7WorkerCD2Ev:
 250              	.LFB46:
  28:test/Threads_CPP_API_test.cpp ****     void workerBodyB(void* arg);
  29:test/Threads_CPP_API_test.cpp **** public:
  30:test/Threads_CPP_API_test.cpp ****     WorkerB():Thread() {}
  31:test/Threads_CPP_API_test.cpp **** 
GAS LISTING /tmp/cc4yCDT2.s 			page 6


  32:test/Threads_CPP_API_test.cpp ****     void run() override {
  33:test/Threads_CPP_API_test.cpp ****         workerBodyB(nullptr);
  34:test/Threads_CPP_API_test.cpp ****     }
  35:test/Threads_CPP_API_test.cpp **** };
  36:test/Threads_CPP_API_test.cpp **** 
  37:test/Threads_CPP_API_test.cpp **** class WorkerC: public Thread {
 251              		.loc 1 37 7 is_stmt 1
 252              		.cfi_startproc
 253              	.LVL21:
 254 0000 130101FF 		addi	sp,sp,-16
 255              		.cfi_def_cfa_offset 16
 256 0004 23341100 		sd	ra,8(sp)
 257 0008 23308100 		sd	s0,0(sp)
 258              		.cfi_offset 1, -8
 259              		.cfi_offset 8, -16
 260 000c 13040101 		addi	s0,sp,16
 261              		.cfi_def_cfa 8, 0
 262              	.LBB34:
 263              		.loc 1 37 7 is_stmt 0
 264 0010 97070000 		lla	a5,_ZTV7WorkerC+16
 264      93870700 
 265 0018 2330F500 		sd	a5,0(a0)
 266 001c 97000000 		call	_ZN6ThreadD2Ev@plt
 266      E7800000 
 267              	.LVL22:
 268              	.LBE34:
 269 0024 83308100 		ld	ra,8(sp)
 270              		.cfi_restore 1
 271 0028 03340100 		ld	s0,0(sp)
 272              		.cfi_restore 8
 273              		.cfi_def_cfa 2, 16
 274 002c 13010101 		addi	sp,sp,16
 275              		.cfi_def_cfa_offset 0
 276 0030 67800000 		jr	ra
 277              		.cfi_endproc
 278              	.LFE46:
 280              		.weak	_ZN7WorkerCD1Ev
 281              		.set	_ZN7WorkerCD1Ev,_ZN7WorkerCD2Ev
 282              		.section	.text._ZN7WorkerCD0Ev,"axG",@progbits,_ZN7WorkerCD5Ev,comdat
 283              		.align	2
 284              		.weak	_ZN7WorkerCD0Ev
 286              	_ZN7WorkerCD0Ev:
 287              	.LFB48:
 288              		.loc 1 37 7 is_stmt 1
 289              		.cfi_startproc
 290              	.LVL23:
 291 0000 130101FE 		addi	sp,sp,-32
 292              		.cfi_def_cfa_offset 32
 293 0004 233C1100 		sd	ra,24(sp)
 294 0008 23388100 		sd	s0,16(sp)
 295 000c 23349100 		sd	s1,8(sp)
 296              		.cfi_offset 1, -8
 297              		.cfi_offset 8, -16
 298              		.cfi_offset 9, -24
 299 0010 13040102 		addi	s0,sp,32
 300              		.cfi_def_cfa 8, 0
 301 0014 93040500 		mv	s1,a0
GAS LISTING /tmp/cc4yCDT2.s 			page 7


 302              	.LVL24:
 303              	.LBB35:
 304              	.LBB36:
 305              		.loc 1 37 7 is_stmt 0
 306 0018 97070000 		lla	a5,_ZTV7WorkerC+16
 306      93870700 
 307 0020 2330F500 		sd	a5,0(a0)
 308 0024 97000000 		call	_ZN6ThreadD2Ev@plt
 308      E7800000 
 309              	.LVL25:
 310              	.LBE36:
 311              	.LBE35:
 312 002c 13850400 		mv	a0,s1
 313 0030 97000000 		call	_ZdlPv@plt
 313      E7800000 
 314              	.LVL26:
 315 0038 83308101 		ld	ra,24(sp)
 316              		.cfi_restore 1
 317 003c 03340101 		ld	s0,16(sp)
 318              		.cfi_restore 8
 319              		.cfi_def_cfa 2, 32
 320 0040 83348100 		ld	s1,8(sp)
 321              		.cfi_restore 9
 322              	.LVL27:
 323 0044 13010102 		addi	sp,sp,32
 324              		.cfi_def_cfa_offset 0
 325 0048 67800000 		jr	ra
 326              		.cfi_endproc
 327              	.LFE48:
 329              		.section	.text._ZN7WorkerDD2Ev,"axG",@progbits,_ZN7WorkerDD5Ev,comdat
 330              		.align	2
 331              		.weak	_ZN7WorkerDD2Ev
 333              	_ZN7WorkerDD2Ev:
 334              	.LFB42:
  38:test/Threads_CPP_API_test.cpp ****     void workerBodyC(void* arg);
  39:test/Threads_CPP_API_test.cpp **** public:
  40:test/Threads_CPP_API_test.cpp ****     WorkerC():Thread() {}
  41:test/Threads_CPP_API_test.cpp **** 
  42:test/Threads_CPP_API_test.cpp ****     void run() override {
  43:test/Threads_CPP_API_test.cpp ****         workerBodyC(nullptr);
  44:test/Threads_CPP_API_test.cpp ****     }
  45:test/Threads_CPP_API_test.cpp **** };
  46:test/Threads_CPP_API_test.cpp **** 
  47:test/Threads_CPP_API_test.cpp **** class WorkerD: public Thread {
 335              		.loc 1 47 7 is_stmt 1
 336              		.cfi_startproc
 337              	.LVL28:
 338 0000 130101FF 		addi	sp,sp,-16
 339              		.cfi_def_cfa_offset 16
 340 0004 23341100 		sd	ra,8(sp)
 341 0008 23308100 		sd	s0,0(sp)
 342              		.cfi_offset 1, -8
 343              		.cfi_offset 8, -16
 344 000c 13040101 		addi	s0,sp,16
 345              		.cfi_def_cfa 8, 0
 346              	.LBB37:
 347              		.loc 1 47 7 is_stmt 0
GAS LISTING /tmp/cc4yCDT2.s 			page 8


 348 0010 97070000 		lla	a5,_ZTV7WorkerD+16
 348      93870700 
 349 0018 2330F500 		sd	a5,0(a0)
 350 001c 97000000 		call	_ZN6ThreadD2Ev@plt
 350      E7800000 
 351              	.LVL29:
 352              	.LBE37:
 353 0024 83308100 		ld	ra,8(sp)
 354              		.cfi_restore 1
 355 0028 03340100 		ld	s0,0(sp)
 356              		.cfi_restore 8
 357              		.cfi_def_cfa 2, 16
 358 002c 13010101 		addi	sp,sp,16
 359              		.cfi_def_cfa_offset 0
 360 0030 67800000 		jr	ra
 361              		.cfi_endproc
 362              	.LFE42:
 364              		.weak	_ZN7WorkerDD1Ev
 365              		.set	_ZN7WorkerDD1Ev,_ZN7WorkerDD2Ev
 366              		.section	.text._ZN7WorkerDD0Ev,"axG",@progbits,_ZN7WorkerDD5Ev,comdat
 367              		.align	2
 368              		.weak	_ZN7WorkerDD0Ev
 370              	_ZN7WorkerDD0Ev:
 371              	.LFB44:
 372              		.loc 1 47 7 is_stmt 1
 373              		.cfi_startproc
 374              	.LVL30:
 375 0000 130101FE 		addi	sp,sp,-32
 376              		.cfi_def_cfa_offset 32
 377 0004 233C1100 		sd	ra,24(sp)
 378 0008 23388100 		sd	s0,16(sp)
 379 000c 23349100 		sd	s1,8(sp)
 380              		.cfi_offset 1, -8
 381              		.cfi_offset 8, -16
 382              		.cfi_offset 9, -24
 383 0010 13040102 		addi	s0,sp,32
 384              		.cfi_def_cfa 8, 0
 385 0014 93040500 		mv	s1,a0
 386              	.LVL31:
 387              	.LBB38:
 388              	.LBB39:
 389              		.loc 1 47 7 is_stmt 0
 390 0018 97070000 		lla	a5,_ZTV7WorkerD+16
 390      93870700 
 391 0020 2330F500 		sd	a5,0(a0)
 392 0024 97000000 		call	_ZN6ThreadD2Ev@plt
 392      E7800000 
 393              	.LVL32:
 394              	.LBE39:
 395              	.LBE38:
 396 002c 13850400 		mv	a0,s1
 397 0030 97000000 		call	_ZdlPv@plt
 397      E7800000 
 398              	.LVL33:
 399 0038 83308101 		ld	ra,24(sp)
 400              		.cfi_restore 1
 401 003c 03340101 		ld	s0,16(sp)
GAS LISTING /tmp/cc4yCDT2.s 			page 9


 402              		.cfi_restore 8
 403              		.cfi_def_cfa 2, 32
 404 0040 83348100 		ld	s1,8(sp)
 405              		.cfi_restore 9
 406              	.LVL34:
 407 0044 13010102 		addi	sp,sp,32
 408              		.cfi_def_cfa_offset 0
 409 0048 67800000 		jr	ra
 410              		.cfi_endproc
 411              	.LFE44:
 413              		.section	.rodata.str1.8,"aMS",@progbits,1
 414              		.align	3
 415              	.LC0:
 416 0000 413A2069 		.string	"A: i="
 416      3D00
 417 0006 0000     		.align	3
 418              	.LC1:
 419 0008 0A00     		.string	"\n"
 420 000a 00000000 		.align	3
 420      0000
 421              	.LC2:
 422 0010 41206669 		.string	"A finished!\n"
 422      6E697368 
 422      6564210A 
 422      00
 423              		.text
 424              		.align	2
 425              		.globl	_ZN7WorkerA11workerBodyAEPv
 427              	_ZN7WorkerA11workerBodyAEPv:
 428              	.LFB36:
  48:test/Threads_CPP_API_test.cpp ****     void workerBodyD(void* arg);
  49:test/Threads_CPP_API_test.cpp **** public:
  50:test/Threads_CPP_API_test.cpp ****     WorkerD():Thread() {}
  51:test/Threads_CPP_API_test.cpp **** 
  52:test/Threads_CPP_API_test.cpp ****     void run() override {
  53:test/Threads_CPP_API_test.cpp ****         workerBodyD(nullptr);
  54:test/Threads_CPP_API_test.cpp ****     }
  55:test/Threads_CPP_API_test.cpp **** };
  56:test/Threads_CPP_API_test.cpp **** 
  57:test/Threads_CPP_API_test.cpp **** void WorkerA::workerBodyA(void *arg) {
 429              		.loc 1 57 38 is_stmt 1
 430              		.cfi_startproc
 431              	.LVL35:
 432 0074 130101FE 		addi	sp,sp,-32
 433              		.cfi_def_cfa_offset 32
 434 0078 233C1100 		sd	ra,24(sp)
 435 007c 23388100 		sd	s0,16(sp)
 436 0080 23349100 		sd	s1,8(sp)
 437 0084 23302101 		sd	s2,0(sp)
 438              		.cfi_offset 1, -8
 439              		.cfi_offset 8, -16
 440              		.cfi_offset 9, -24
 441              		.cfi_offset 18, -32
 442 0088 13040102 		addi	s0,sp,32
 443              		.cfi_def_cfa 8, 0
  58:test/Threads_CPP_API_test.cpp ****     for (uint64 i = 0; i < 10; i++) {
 444              		.loc 1 58 5
GAS LISTING /tmp/cc4yCDT2.s 			page 10


 445              	.LVL36:
 446              	.LBB40:
 447              		.loc 1 58 17 is_stmt 0
 448 008c 13090000 		li	s2,0
 449 0090 6F008003 		j	.L29
 450              	.LVL37:
 451              	.L26:
 452              	.LBB41:
 453              	.LBB42:
 454              	.LBB43:
  59:test/Threads_CPP_API_test.cpp ****         printString("A: i="); printInt(i); printString("\n");
  60:test/Threads_CPP_API_test.cpp ****         for (uint64 j = 0; j < 10000; j++) {
  61:test/Threads_CPP_API_test.cpp ****             for (uint64 k = 0; k < 30000; k++) { /* busy wait */ }
  62:test/Threads_CPP_API_test.cpp ****             thread_dispatch();
 455              		.loc 1 62 13 is_stmt 1 discriminator 2
 456              		.loc 1 62 28 is_stmt 0 discriminator 2
 457 0094 97000000 		call	_Z15thread_dispatchv@plt
 457      E7800000 
 458              	.LVL38:
 459              	.LBE43:
  60:test/Threads_CPP_API_test.cpp ****             for (uint64 k = 0; k < 30000; k++) { /* busy wait */ }
 460              		.loc 1 60 9 is_stmt 1 discriminator 2
 461 009c 93841400 		addi	s1,s1,1
 462              	.LVL39:
 463              	.L28:
  60:test/Threads_CPP_API_test.cpp ****             for (uint64 k = 0; k < 30000; k++) { /* busy wait */ }
 464              		.loc 1 60 30 discriminator 1
 465 00a0 B7270000 		li	a5,8192
 466 00a4 9387F770 		addi	a5,a5,1807
 467 00a8 63EE9700 		bgtu	s1,a5,.L25
 468              	.LBB45:
 469              	.LBB44:
  61:test/Threads_CPP_API_test.cpp ****             thread_dispatch();
 470              		.loc 1 61 25 is_stmt 0
 471 00ac 13070000 		li	a4,0
 472              	.L27:
 473              	.LVL40:
  61:test/Threads_CPP_API_test.cpp ****             thread_dispatch();
 474              		.loc 1 61 34 is_stmt 1 discriminator 3
 475 00b0 B7770000 		li	a5,28672
 476 00b4 9387F752 		addi	a5,a5,1327
 477 00b8 E3EEE7FC 		bgtu	a4,a5,.L26
  61:test/Threads_CPP_API_test.cpp ****             thread_dispatch();
 478              		.loc 1 61 13 discriminator 2
 479 00bc 13071700 		addi	a4,a4,1
 480              	.LVL41:
 481 00c0 6FF01FFF 		j	.L27
 482              	.LVL42:
 483              	.L25:
 484              	.LBE44:
 485              	.LBE45:
 486              	.LBE42:
 487              	.LBE41:
  58:test/Threads_CPP_API_test.cpp ****         printString("A: i="); printInt(i); printString("\n");
 488              		.loc 1 58 5 discriminator 2
 489 00c4 13091900 		addi	s2,s2,1
 490              	.LVL43:
GAS LISTING /tmp/cc4yCDT2.s 			page 11


 491              	.L29:
  58:test/Threads_CPP_API_test.cpp ****         printString("A: i="); printInt(i); printString("\n");
 492              		.loc 1 58 26 discriminator 1
 493 00c8 93079000 		li	a5,9
 494 00cc 63E02705 		bgtu	s2,a5,.L24
 495              	.LBB47:
  59:test/Threads_CPP_API_test.cpp ****         for (uint64 j = 0; j < 10000; j++) {
 496              		.loc 1 59 9
  59:test/Threads_CPP_API_test.cpp ****         for (uint64 j = 0; j < 10000; j++) {
 497              		.loc 1 59 20 is_stmt 0
 498 00d0 17050000 		lla	a0,.LC0
 498      13050500 
 499 00d8 97000000 		call	_Z11printStringPKc@plt
 499      E7800000 
 500              	.LVL44:
  59:test/Threads_CPP_API_test.cpp ****         for (uint64 j = 0; j < 10000; j++) {
 501              		.loc 1 59 31 is_stmt 1
  59:test/Threads_CPP_API_test.cpp ****         for (uint64 j = 0; j < 10000; j++) {
 502              		.loc 1 59 39 is_stmt 0
 503 00e0 13060000 		li	a2,0
 504 00e4 9305A000 		li	a1,10
 505 00e8 1B050900 		sext.w	a0,s2
 506 00ec 97000000 		call	_Z8printIntiii@plt
 506      E7800000 
 507              	.LVL45:
  59:test/Threads_CPP_API_test.cpp ****         for (uint64 j = 0; j < 10000; j++) {
 508              		.loc 1 59 44 is_stmt 1
  59:test/Threads_CPP_API_test.cpp ****         for (uint64 j = 0; j < 10000; j++) {
 509              		.loc 1 59 55 is_stmt 0
 510 00f4 17050000 		lla	a0,.LC1
 510      13050500 
 511 00fc 97000000 		call	_Z11printStringPKc@plt
 511      E7800000 
 512              	.LVL46:
  60:test/Threads_CPP_API_test.cpp ****             for (uint64 k = 0; k < 30000; k++) { /* busy wait */ }
 513              		.loc 1 60 9 is_stmt 1
 514              	.LBB46:
  60:test/Threads_CPP_API_test.cpp ****             for (uint64 k = 0; k < 30000; k++) { /* busy wait */ }
 515              		.loc 1 60 21 is_stmt 0
 516 0104 93040000 		li	s1,0
 517 0108 6FF09FF9 		j	.L28
 518              	.LVL47:
 519              	.L24:
 520              	.LBE46:
 521              	.LBE47:
 522              	.LBE40:
  63:test/Threads_CPP_API_test.cpp ****         }
  64:test/Threads_CPP_API_test.cpp ****     }
  65:test/Threads_CPP_API_test.cpp **** 
  66:test/Threads_CPP_API_test.cpp ****     printString("A finished!\n");
 523              		.loc 1 66 5 is_stmt 1
 524              		.loc 1 66 16 is_stmt 0
 525 010c 17050000 		lla	a0,.LC2
 525      13050500 
 526 0114 97000000 		call	_Z11printStringPKc@plt
 526      E7800000 
 527              	.LVL48:
GAS LISTING /tmp/cc4yCDT2.s 			page 12


  67:test/Threads_CPP_API_test.cpp ****     finishedA = true;
 528              		.loc 1 67 5 is_stmt 1
 529              		.loc 1 67 15 is_stmt 0
 530 011c 93071000 		li	a5,1
 531 0120 17070000 		sb	a5,.LANCHOR0,a4
 531      2300F700 
  68:test/Threads_CPP_API_test.cpp **** }
 532              		.loc 1 68 1
 533 0128 83308101 		ld	ra,24(sp)
 534              		.cfi_restore 1
 535 012c 03340101 		ld	s0,16(sp)
 536              		.cfi_restore 8
 537              		.cfi_def_cfa 2, 32
 538 0130 83348100 		ld	s1,8(sp)
 539              		.cfi_restore 9
 540 0134 03390100 		ld	s2,0(sp)
 541              		.cfi_restore 18
 542              	.LVL49:
 543 0138 13010102 		addi	sp,sp,32
 544              		.cfi_def_cfa_offset 0
 545 013c 67800000 		jr	ra
 546              		.cfi_endproc
 547              	.LFE36:
 549              		.section	.text._ZN7WorkerA3runEv,"axG",@progbits,_ZN7WorkerA3runEv,comdat
 550              		.align	2
 551              		.weak	_ZN7WorkerA3runEv
 553              	_ZN7WorkerA3runEv:
 554              	.LFB23:
  22:test/Threads_CPP_API_test.cpp ****         workerBodyA(nullptr);
 555              		.loc 1 22 10 is_stmt 1
 556              		.cfi_startproc
 557              	.LVL50:
 558 0000 130101FF 		addi	sp,sp,-16
 559              		.cfi_def_cfa_offset 16
 560 0004 23341100 		sd	ra,8(sp)
 561 0008 23308100 		sd	s0,0(sp)
 562              		.cfi_offset 1, -8
 563              		.cfi_offset 8, -16
 564 000c 13040101 		addi	s0,sp,16
 565              		.cfi_def_cfa 8, 0
  23:test/Threads_CPP_API_test.cpp ****     }
 566              		.loc 1 23 9
  23:test/Threads_CPP_API_test.cpp ****     }
 567              		.loc 1 23 20 is_stmt 0
 568 0010 93050000 		li	a1,0
 569 0014 97000000 		call	_ZN7WorkerA11workerBodyAEPv
 569      E7800000 
 570              	.LVL51:
  24:test/Threads_CPP_API_test.cpp **** };
 571              		.loc 1 24 5
 572 001c 83308100 		ld	ra,8(sp)
 573              		.cfi_restore 1
 574 0020 03340100 		ld	s0,0(sp)
 575              		.cfi_restore 8
 576              		.cfi_def_cfa 2, 16
 577 0024 13010101 		addi	sp,sp,16
 578              		.cfi_def_cfa_offset 0
GAS LISTING /tmp/cc4yCDT2.s 			page 13


 579 0028 67800000 		jr	ra
 580              		.cfi_endproc
 581              	.LFE23:
 583              		.section	.rodata.str1.8
 584 001d 000000   		.align	3
 585              	.LC3:
 586 0020 423A2069 		.string	"B: i="
 586      3D00
 587 0026 0000     		.align	3
 588              	.LC4:
 589 0028 42206669 		.string	"B finished!\n"
 589      6E697368 
 589      6564210A 
 589      00
 590              		.text
 591              		.align	2
 592              		.globl	_ZN7WorkerB11workerBodyBEPv
 594              	_ZN7WorkerB11workerBodyBEPv:
 595              	.LFB37:
  69:test/Threads_CPP_API_test.cpp **** 
  70:test/Threads_CPP_API_test.cpp **** void WorkerB::workerBodyB(void *arg) {
 596              		.loc 1 70 38 is_stmt 1
 597              		.cfi_startproc
 598              	.LVL52:
 599 0140 130101FE 		addi	sp,sp,-32
 600              		.cfi_def_cfa_offset 32
 601 0144 233C1100 		sd	ra,24(sp)
 602 0148 23388100 		sd	s0,16(sp)
 603 014c 23349100 		sd	s1,8(sp)
 604 0150 23302101 		sd	s2,0(sp)
 605              		.cfi_offset 1, -8
 606              		.cfi_offset 8, -16
 607              		.cfi_offset 9, -24
 608              		.cfi_offset 18, -32
 609 0154 13040102 		addi	s0,sp,32
 610              		.cfi_def_cfa 8, 0
  71:test/Threads_CPP_API_test.cpp ****     for (uint64 i = 0; i < 16; i++) {
 611              		.loc 1 71 5
 612              	.LVL53:
 613              	.LBB48:
 614              		.loc 1 71 17 is_stmt 0
 615 0158 13090000 		li	s2,0
 616 015c 6F008003 		j	.L39
 617              	.LVL54:
 618              	.L36:
 619              	.LBB49:
 620              	.LBB50:
 621              	.LBB51:
  72:test/Threads_CPP_API_test.cpp ****         printString("B: i="); printInt(i); printString("\n");
  73:test/Threads_CPP_API_test.cpp ****         for (uint64 j = 0; j < 10000; j++) {
  74:test/Threads_CPP_API_test.cpp ****             for (uint64 k = 0; k < 30000; k++) { /* busy wait */ }
  75:test/Threads_CPP_API_test.cpp ****             thread_dispatch();
 622              		.loc 1 75 13 is_stmt 1 discriminator 2
 623              		.loc 1 75 28 is_stmt 0 discriminator 2
 624 0160 97000000 		call	_Z15thread_dispatchv@plt
 624      E7800000 
 625              	.LVL55:
GAS LISTING /tmp/cc4yCDT2.s 			page 14


 626              	.LBE51:
  73:test/Threads_CPP_API_test.cpp ****             for (uint64 k = 0; k < 30000; k++) { /* busy wait */ }
 627              		.loc 1 73 9 is_stmt 1 discriminator 2
 628 0168 93841400 		addi	s1,s1,1
 629              	.LVL56:
 630              	.L38:
  73:test/Threads_CPP_API_test.cpp ****             for (uint64 k = 0; k < 30000; k++) { /* busy wait */ }
 631              		.loc 1 73 30 discriminator 1
 632 016c B7270000 		li	a5,8192
 633 0170 9387F770 		addi	a5,a5,1807
 634 0174 63EE9700 		bgtu	s1,a5,.L35
 635              	.LBB53:
 636              	.LBB52:
  74:test/Threads_CPP_API_test.cpp ****             thread_dispatch();
 637              		.loc 1 74 25 is_stmt 0
 638 0178 13070000 		li	a4,0
 639              	.L37:
 640              	.LVL57:
  74:test/Threads_CPP_API_test.cpp ****             thread_dispatch();
 641              		.loc 1 74 34 is_stmt 1 discriminator 3
 642 017c B7770000 		li	a5,28672
 643 0180 9387F752 		addi	a5,a5,1327
 644 0184 E3EEE7FC 		bgtu	a4,a5,.L36
  74:test/Threads_CPP_API_test.cpp ****             thread_dispatch();
 645              		.loc 1 74 13 discriminator 2
 646 0188 13071700 		addi	a4,a4,1
 647              	.LVL58:
 648 018c 6FF01FFF 		j	.L37
 649              	.LVL59:
 650              	.L35:
 651              	.LBE52:
 652              	.LBE53:
 653              	.LBE50:
 654              	.LBE49:
  71:test/Threads_CPP_API_test.cpp ****         printString("B: i="); printInt(i); printString("\n");
 655              		.loc 1 71 5 discriminator 2
 656 0190 13091900 		addi	s2,s2,1
 657              	.LVL60:
 658              	.L39:
  71:test/Threads_CPP_API_test.cpp ****         printString("B: i="); printInt(i); printString("\n");
 659              		.loc 1 71 26 discriminator 1
 660 0194 9307F000 		li	a5,15
 661 0198 63E02705 		bgtu	s2,a5,.L34
 662              	.LBB55:
  72:test/Threads_CPP_API_test.cpp ****         for (uint64 j = 0; j < 10000; j++) {
 663              		.loc 1 72 9
  72:test/Threads_CPP_API_test.cpp ****         for (uint64 j = 0; j < 10000; j++) {
 664              		.loc 1 72 20 is_stmt 0
 665 019c 17050000 		lla	a0,.LC3
 665      13050500 
 666 01a4 97000000 		call	_Z11printStringPKc@plt
 666      E7800000 
 667              	.LVL61:
  72:test/Threads_CPP_API_test.cpp ****         for (uint64 j = 0; j < 10000; j++) {
 668              		.loc 1 72 31 is_stmt 1
  72:test/Threads_CPP_API_test.cpp ****         for (uint64 j = 0; j < 10000; j++) {
 669              		.loc 1 72 39 is_stmt 0
GAS LISTING /tmp/cc4yCDT2.s 			page 15


 670 01ac 13060000 		li	a2,0
 671 01b0 9305A000 		li	a1,10
 672 01b4 1B050900 		sext.w	a0,s2
 673 01b8 97000000 		call	_Z8printIntiii@plt
 673      E7800000 
 674              	.LVL62:
  72:test/Threads_CPP_API_test.cpp ****         for (uint64 j = 0; j < 10000; j++) {
 675              		.loc 1 72 44 is_stmt 1
  72:test/Threads_CPP_API_test.cpp ****         for (uint64 j = 0; j < 10000; j++) {
 676              		.loc 1 72 55 is_stmt 0
 677 01c0 17050000 		lla	a0,.LC1
 677      13050500 
 678 01c8 97000000 		call	_Z11printStringPKc@plt
 678      E7800000 
 679              	.LVL63:
  73:test/Threads_CPP_API_test.cpp ****             for (uint64 k = 0; k < 30000; k++) { /* busy wait */ }
 680              		.loc 1 73 9 is_stmt 1
 681              	.LBB54:
  73:test/Threads_CPP_API_test.cpp ****             for (uint64 k = 0; k < 30000; k++) { /* busy wait */ }
 682              		.loc 1 73 21 is_stmt 0
 683 01d0 93040000 		li	s1,0
 684 01d4 6FF09FF9 		j	.L38
 685              	.LVL64:
 686              	.L34:
 687              	.LBE54:
 688              	.LBE55:
 689              	.LBE48:
  76:test/Threads_CPP_API_test.cpp ****         }
  77:test/Threads_CPP_API_test.cpp ****     }
  78:test/Threads_CPP_API_test.cpp ****     printString("B finished!\n");
 690              		.loc 1 78 5 is_stmt 1
 691              		.loc 1 78 16 is_stmt 0
 692 01d8 17050000 		lla	a0,.LC4
 692      13050500 
 693 01e0 97000000 		call	_Z11printStringPKc@plt
 693      E7800000 
 694              	.LVL65:
  79:test/Threads_CPP_API_test.cpp ****     finishedB = true;
 695              		.loc 1 79 5 is_stmt 1
 696              		.loc 1 79 15 is_stmt 0
 697 01e8 93071000 		li	a5,1
 698 01ec 17070000 		sb	a5,.LANCHOR0+1,a4
 698      2300F700 
  80:test/Threads_CPP_API_test.cpp ****     thread_dispatch();
 699              		.loc 1 80 5 is_stmt 1
 700              		.loc 1 80 20 is_stmt 0
 701 01f4 97000000 		call	_Z15thread_dispatchv@plt
 701      E7800000 
 702              	.LVL66:
  81:test/Threads_CPP_API_test.cpp **** 
  82:test/Threads_CPP_API_test.cpp **** }
 703              		.loc 1 82 1
 704 01fc 83308101 		ld	ra,24(sp)
 705              		.cfi_restore 1
 706 0200 03340101 		ld	s0,16(sp)
 707              		.cfi_restore 8
 708              		.cfi_def_cfa 2, 32
GAS LISTING /tmp/cc4yCDT2.s 			page 16


 709 0204 83348100 		ld	s1,8(sp)
 710              		.cfi_restore 9
 711 0208 03390100 		ld	s2,0(sp)
 712              		.cfi_restore 18
 713              	.LVL67:
 714 020c 13010102 		addi	sp,sp,32
 715              		.cfi_def_cfa_offset 0
 716 0210 67800000 		jr	ra
 717              		.cfi_endproc
 718              	.LFE37:
 720              		.section	.text._ZN7WorkerB3runEv,"axG",@progbits,_ZN7WorkerB3runEv,comdat
 721              		.align	2
 722              		.weak	_ZN7WorkerB3runEv
 724              	_ZN7WorkerB3runEv:
 725              	.LFB27:
  32:test/Threads_CPP_API_test.cpp ****         workerBodyB(nullptr);
 726              		.loc 1 32 10 is_stmt 1
 727              		.cfi_startproc
 728              	.LVL68:
 729 0000 130101FF 		addi	sp,sp,-16
 730              		.cfi_def_cfa_offset 16
 731 0004 23341100 		sd	ra,8(sp)
 732 0008 23308100 		sd	s0,0(sp)
 733              		.cfi_offset 1, -8
 734              		.cfi_offset 8, -16
 735 000c 13040101 		addi	s0,sp,16
 736              		.cfi_def_cfa 8, 0
  33:test/Threads_CPP_API_test.cpp ****     }
 737              		.loc 1 33 9
  33:test/Threads_CPP_API_test.cpp ****     }
 738              		.loc 1 33 20 is_stmt 0
 739 0010 93050000 		li	a1,0
 740 0014 97000000 		call	_ZN7WorkerB11workerBodyBEPv
 740      E7800000 
 741              	.LVL69:
  34:test/Threads_CPP_API_test.cpp **** };
 742              		.loc 1 34 5
 743 001c 83308100 		ld	ra,8(sp)
 744              		.cfi_restore 1
 745 0020 03340100 		ld	s0,0(sp)
 746              		.cfi_restore 8
 747              		.cfi_def_cfa 2, 16
 748 0024 13010101 		addi	sp,sp,16
 749              		.cfi_def_cfa_offset 0
 750 0028 67800000 		jr	ra
 751              		.cfi_endproc
 752              	.LFE27:
 754              		.section	.rodata.str1.8
 755 0035 000000   		.align	3
 756              	.LC5:
 757 0038 433A2069 		.string	"C: i="
 757      3D00
 758 003e 0000     		.align	3
 759              	.LC6:
 760 0040 433A2064 		.string	"C: dispatch\n"
 760      69737061 
 760      7463680A 
GAS LISTING /tmp/cc4yCDT2.s 			page 17


 760      00
 761 004d 000000   		.align	3
 762              	.LC7:
 763 0050 433A2074 		.string	"C: t1="
 763      313D00
 764 0057 00       		.align	3
 765              	.LC8:
 766 0058 433A2066 		.string	"C: fibonaci="
 766      69626F6E 
 766      6163693D 
 766      00
 767              		.text
 768              		.align	2
 769              		.globl	_ZN7WorkerC11workerBodyCEPv
 771              	_ZN7WorkerC11workerBodyCEPv:
 772              	.LFB38:
  83:test/Threads_CPP_API_test.cpp **** 
  84:test/Threads_CPP_API_test.cpp **** void WorkerC::workerBodyC(void *arg) {
 773              		.loc 1 84 38 is_stmt 1
 774              		.cfi_startproc
 775              	.LVL70:
 776 0214 130101FE 		addi	sp,sp,-32
 777              		.cfi_def_cfa_offset 32
 778 0218 233C1100 		sd	ra,24(sp)
 779 021c 23388100 		sd	s0,16(sp)
 780 0220 23349100 		sd	s1,8(sp)
 781 0224 23302101 		sd	s2,0(sp)
 782              		.cfi_offset 1, -8
 783              		.cfi_offset 8, -16
 784              		.cfi_offset 9, -24
 785              		.cfi_offset 18, -32
 786 0228 13040102 		addi	s0,sp,32
 787              		.cfi_def_cfa 8, 0
  85:test/Threads_CPP_API_test.cpp ****     uint8 i = 0;
 788              		.loc 1 85 5
 789              	.LVL71:
 790              		.loc 1 85 11 is_stmt 0
 791 022c 93040000 		li	s1,0
 792 0230 6F000004 		j	.L45
 793              	.LVL72:
 794              	.L49:
  86:test/Threads_CPP_API_test.cpp ****     for (; i < 3; i++) {
  87:test/Threads_CPP_API_test.cpp ****         printString("C: i="); printInt(i); printString("\n");
 795              		.loc 1 87 9 is_stmt 1 discriminator 1
 796              		.loc 1 87 20 is_stmt 0 discriminator 1
 797 0234 17050000 		lla	a0,.LC5
 797      13050500 
 798 023c 97000000 		call	_Z11printStringPKc@plt
 798      E7800000 
 799              	.LVL73:
 800              		.loc 1 87 31 is_stmt 1 discriminator 1
 801              		.loc 1 87 39 is_stmt 0 discriminator 1
 802 0244 13060000 		li	a2,0
 803 0248 9305A000 		li	a1,10
 804 024c 13850400 		mv	a0,s1
 805 0250 97000000 		call	_Z8printIntiii@plt
 805      E7800000 
GAS LISTING /tmp/cc4yCDT2.s 			page 18


 806              	.LVL74:
 807              		.loc 1 87 44 is_stmt 1 discriminator 1
 808              		.loc 1 87 55 is_stmt 0 discriminator 1
 809 0258 17050000 		lla	a0,.LC1
 809      13050500 
 810 0260 97000000 		call	_Z11printStringPKc@plt
 810      E7800000 
 811              	.LVL75:
  86:test/Threads_CPP_API_test.cpp ****     for (; i < 3; i++) {
 812              		.loc 1 86 5 is_stmt 1 discriminator 1
 813 0268 9B841400 		addiw	s1,s1,1
 814              	.LVL76:
 815 026c 93F4F40F 		andi	s1,s1,0xff
 816              	.LVL77:
 817              	.L45:
  86:test/Threads_CPP_API_test.cpp ****     for (; i < 3; i++) {
 818              		.loc 1 86 5 discriminator 2
  86:test/Threads_CPP_API_test.cpp ****     for (; i < 3; i++) {
 819              		.loc 1 86 14 discriminator 2
 820 0270 93072000 		li	a5,2
 821 0274 E3F097FC 		bleu	s1,a5,.L49
  88:test/Threads_CPP_API_test.cpp ****     }
  89:test/Threads_CPP_API_test.cpp **** 
  90:test/Threads_CPP_API_test.cpp ****     printString("C: dispatch\n");
 822              		.loc 1 90 5
 823              		.loc 1 90 16 is_stmt 0
 824 0278 17050000 		lla	a0,.LC6
 824      13050500 
 825 0280 97000000 		call	_Z11printStringPKc@plt
 825      E7800000 
 826              	.LVL78:
  91:test/Threads_CPP_API_test.cpp ****     __asm__ ("li t1, 7");
 827              		.loc 1 91 5 is_stmt 1
 828              		.loc 1 91 25 is_stmt 0
 829              	#APP
 830              	# 91 "test/Threads_CPP_API_test.cpp" 1
  92              	    thread_dispatch();
 831              		li t1, 7
 832              	# 0 "" 2
 833              		.loc 1 92 5 is_stmt 1
 834              		.loc 1 92 20 is_stmt 0
 835              	#NO_APP
 836 028c 97000000 		call	_Z15thread_dispatchv@plt
 836      E7800000 
 837              	.LVL79:
  93:test/Threads_CPP_API_test.cpp **** 
  94:test/Threads_CPP_API_test.cpp ****     uint64 t1 = 0;
 838              		.loc 1 94 5 is_stmt 1
  95:test/Threads_CPP_API_test.cpp ****     __asm__ ("mv %[t1], t1" : [t1] "=r"(t1));
 839              		.loc 1 95 5
 840              		.loc 1 95 45 is_stmt 0
 841              	#APP
 842              	# 95 "test/Threads_CPP_API_test.cpp" 1
  96              	
 843              		mv s2, t1
 844              	# 0 "" 2
 845              	.LVL80:
GAS LISTING /tmp/cc4yCDT2.s 			page 19


  97:test/Threads_CPP_API_test.cpp ****     printString("C: t1="); printInt(t1); printString("\n");
 846              		.loc 1 97 5 is_stmt 1
 847              		.loc 1 97 16 is_stmt 0
 848              	#NO_APP
 849 0298 17050000 		lla	a0,.LC7
 849      13050500 
 850 02a0 97000000 		call	_Z11printStringPKc@plt
 850      E7800000 
 851              	.LVL81:
 852              		.loc 1 97 28 is_stmt 1
 853              		.loc 1 97 36 is_stmt 0
 854 02a8 13060000 		li	a2,0
 855 02ac 9305A000 		li	a1,10
 856 02b0 1B050900 		sext.w	a0,s2
 857 02b4 97000000 		call	_Z8printIntiii@plt
 857      E7800000 
 858              	.LVL82:
 859              		.loc 1 97 42 is_stmt 1
 860              		.loc 1 97 53 is_stmt 0
 861 02bc 17050000 		lla	a0,.LC1
 861      13050500 
 862 02c4 97000000 		call	_Z11printStringPKc@plt
 862      E7800000 
 863              	.LVL83:
  98:test/Threads_CPP_API_test.cpp **** 
  99:test/Threads_CPP_API_test.cpp ****     uint64 result = fibonacci(12);
 864              		.loc 1 99 5 is_stmt 1
 865              		.loc 1 99 30 is_stmt 0
 866 02cc 1305C000 		li	a0,12
 867 02d0 97000000 		call	_ZL9fibonaccim
 867      E7800000 
 868              	.LVL84:
 869 02d8 13090500 		mv	s2,a0
 870              	.LVL85:
 100:test/Threads_CPP_API_test.cpp ****     printString("C: fibonaci="); printInt(result); printString("\n");
 871              		.loc 1 100 5 is_stmt 1
 872              		.loc 1 100 16 is_stmt 0
 873 02dc 17050000 		lla	a0,.LC8
 873      13050500 
 874              	.LVL86:
 875 02e4 97000000 		call	_Z11printStringPKc@plt
 875      E7800000 
 876              	.LVL87:
 877              		.loc 1 100 34 is_stmt 1
 878              		.loc 1 100 42 is_stmt 0
 879 02ec 13060000 		li	a2,0
 880 02f0 9305A000 		li	a1,10
 881 02f4 1B050900 		sext.w	a0,s2
 882 02f8 97000000 		call	_Z8printIntiii@plt
 882      E7800000 
 883              	.LVL88:
 884              		.loc 1 100 52 is_stmt 1
 885              		.loc 1 100 63 is_stmt 0
 886 0300 17050000 		lla	a0,.LC1
 886      13050500 
 887 0308 97000000 		call	_Z11printStringPKc@plt
 887      E7800000 
GAS LISTING /tmp/cc4yCDT2.s 			page 20


 888              	.LVL89:
 889 0310 6F000004 		j	.L47
 890              	.L50:
 101:test/Threads_CPP_API_test.cpp **** 
 102:test/Threads_CPP_API_test.cpp ****     for (; i < 6; i++) {
 103:test/Threads_CPP_API_test.cpp ****         printString("C: i="); printInt(i); printString("\n");
 891              		.loc 1 103 9 is_stmt 1 discriminator 1
 892              		.loc 1 103 20 is_stmt 0 discriminator 1
 893 0314 17050000 		lla	a0,.LC5
 893      13050500 
 894 031c 97000000 		call	_Z11printStringPKc@plt
 894      E7800000 
 895              	.LVL90:
 896              		.loc 1 103 31 is_stmt 1 discriminator 1
 897              		.loc 1 103 39 is_stmt 0 discriminator 1
 898 0324 13060000 		li	a2,0
 899 0328 9305A000 		li	a1,10
 900 032c 13850400 		mv	a0,s1
 901 0330 97000000 		call	_Z8printIntiii@plt
 901      E7800000 
 902              	.LVL91:
 903              		.loc 1 103 44 is_stmt 1 discriminator 1
 904              		.loc 1 103 55 is_stmt 0 discriminator 1
 905 0338 17050000 		lla	a0,.LC1
 905      13050500 
 906 0340 97000000 		call	_Z11printStringPKc@plt
 906      E7800000 
 907              	.LVL92:
 102:test/Threads_CPP_API_test.cpp ****         printString("C: i="); printInt(i); printString("\n");
 908              		.loc 1 102 5 is_stmt 1 discriminator 1
 909 0348 9B841400 		addiw	s1,s1,1
 910              	.LVL93:
 911 034c 93F4F40F 		andi	s1,s1,0xff
 912              	.LVL94:
 913              	.L47:
 102:test/Threads_CPP_API_test.cpp ****         printString("C: i="); printInt(i); printString("\n");
 914              		.loc 1 102 5 discriminator 2
 102:test/Threads_CPP_API_test.cpp ****         printString("C: i="); printInt(i); printString("\n");
 915              		.loc 1 102 14 discriminator 2
 916 0350 93075000 		li	a5,5
 917 0354 E3F097FC 		bleu	s1,a5,.L50
 104:test/Threads_CPP_API_test.cpp ****     }
 105:test/Threads_CPP_API_test.cpp ****     a->join();
 918              		.loc 1 105 5
 919              		.loc 1 105 12 is_stmt 0
 920 0358 97040000 		lla	s1,.LANCHOR0
 920      93840400 
 921              	.LVL95:
 922 0360 03B58400 		ld	a0,8(s1)
 923 0364 97000000 		call	_ZN6Thread4joinEv@plt
 923      E7800000 
 924              	.LVL96:
 106:test/Threads_CPP_API_test.cpp ****     printString("A finished!\n");
 925              		.loc 1 106 5 is_stmt 1
 926              		.loc 1 106 16 is_stmt 0
 927 036c 17050000 		lla	a0,.LC2
 927      13050500 
GAS LISTING /tmp/cc4yCDT2.s 			page 21


 928 0374 97000000 		call	_Z11printStringPKc@plt
 928      E7800000 
 929              	.LVL97:
 107:test/Threads_CPP_API_test.cpp ****     finishedC = true;
 930              		.loc 1 107 5 is_stmt 1
 931              		.loc 1 107 15 is_stmt 0
 932 037c 93071000 		li	a5,1
 933 0380 2388F400 		sb	a5,16(s1)
 108:test/Threads_CPP_API_test.cpp ****     thread_dispatch();
 934              		.loc 1 108 5 is_stmt 1
 935              		.loc 1 108 20 is_stmt 0
 936 0384 97000000 		call	_Z15thread_dispatchv@plt
 936      E7800000 
 937              	.LVL98:
 109:test/Threads_CPP_API_test.cpp **** }
 938              		.loc 1 109 1
 939 038c 83308101 		ld	ra,24(sp)
 940              		.cfi_restore 1
 941 0390 03340101 		ld	s0,16(sp)
 942              		.cfi_restore 8
 943              		.cfi_def_cfa 2, 32
 944 0394 83348100 		ld	s1,8(sp)
 945              		.cfi_restore 9
 946 0398 03390100 		ld	s2,0(sp)
 947              		.cfi_restore 18
 948              	.LVL99:
 949 039c 13010102 		addi	sp,sp,32
 950              		.cfi_def_cfa_offset 0
 951 03a0 67800000 		jr	ra
 952              		.cfi_endproc
 953              	.LFE38:
 955              		.section	.text._ZN7WorkerC3runEv,"axG",@progbits,_ZN7WorkerC3runEv,comdat
 956              		.align	2
 957              		.weak	_ZN7WorkerC3runEv
 959              	_ZN7WorkerC3runEv:
 960              	.LFB31:
  42:test/Threads_CPP_API_test.cpp ****         workerBodyC(nullptr);
 961              		.loc 1 42 10 is_stmt 1
 962              		.cfi_startproc
 963              	.LVL100:
 964 0000 130101FF 		addi	sp,sp,-16
 965              		.cfi_def_cfa_offset 16
 966 0004 23341100 		sd	ra,8(sp)
 967 0008 23308100 		sd	s0,0(sp)
 968              		.cfi_offset 1, -8
 969              		.cfi_offset 8, -16
 970 000c 13040101 		addi	s0,sp,16
 971              		.cfi_def_cfa 8, 0
  43:test/Threads_CPP_API_test.cpp ****     }
 972              		.loc 1 43 9
  43:test/Threads_CPP_API_test.cpp ****     }
 973              		.loc 1 43 20 is_stmt 0
 974 0010 93050000 		li	a1,0
 975 0014 97000000 		call	_ZN7WorkerC11workerBodyCEPv
 975      E7800000 
 976              	.LVL101:
  44:test/Threads_CPP_API_test.cpp **** };
GAS LISTING /tmp/cc4yCDT2.s 			page 22


 977              		.loc 1 44 5
 978 001c 83308100 		ld	ra,8(sp)
 979              		.cfi_restore 1
 980 0020 03340100 		ld	s0,0(sp)
 981              		.cfi_restore 8
 982              		.cfi_def_cfa 2, 16
 983 0024 13010101 		addi	sp,sp,16
 984              		.cfi_def_cfa_offset 0
 985 0028 67800000 		jr	ra
 986              		.cfi_endproc
 987              	.LFE31:
 989              		.section	.rodata.str1.8
 990 0065 000000   		.align	3
 991              	.LC9:
 992 0068 443A2069 		.string	"D: i="
 992      3D00
 993 006e 0000     		.align	3
 994              	.LC10:
 995 0070 443A2064 		.string	"D: dispatch\n"
 995      69737061 
 995      7463680A 
 995      00
 996 007d 000000   		.align	3
 997              	.LC11:
 998 0080 443A2066 		.string	"D: fibonaci="
 998      69626F6E 
 998      6163693D 
 998      00
 999 008d 000000   		.align	3
 1000              	.LC12:
 1001 0090 44206669 		.string	"D finished!\n"
 1001      6E697368 
 1001      6564210A 
 1001      00
 1002              		.text
 1003              		.align	2
 1004              		.globl	_ZN7WorkerD11workerBodyDEPv
 1006              	_ZN7WorkerD11workerBodyDEPv:
 1007              	.LFB39:
 110:test/Threads_CPP_API_test.cpp **** 
 111:test/Threads_CPP_API_test.cpp **** void WorkerD::workerBodyD(void* arg) {
 1008              		.loc 1 111 38 is_stmt 1
 1009              		.cfi_startproc
 1010              	.LVL102:
 1011 03a4 130101FE 		addi	sp,sp,-32
 1012              		.cfi_def_cfa_offset 32
 1013 03a8 233C1100 		sd	ra,24(sp)
 1014 03ac 23388100 		sd	s0,16(sp)
 1015 03b0 23349100 		sd	s1,8(sp)
 1016 03b4 23302101 		sd	s2,0(sp)
 1017              		.cfi_offset 1, -8
 1018              		.cfi_offset 8, -16
 1019              		.cfi_offset 9, -24
 1020              		.cfi_offset 18, -32
 1021 03b8 13040102 		addi	s0,sp,32
 1022              		.cfi_def_cfa 8, 0
 112:test/Threads_CPP_API_test.cpp ****     uint8 i = 10;
GAS LISTING /tmp/cc4yCDT2.s 			page 23


 1023              		.loc 1 112 5
 1024              	.LVL103:
 1025              		.loc 1 112 11 is_stmt 0
 1026 03bc 9304A000 		li	s1,10
 1027 03c0 6F000004 		j	.L55
 1028              	.LVL104:
 1029              	.L59:
 113:test/Threads_CPP_API_test.cpp ****     for (; i < 13; i++) {
 114:test/Threads_CPP_API_test.cpp ****         printString("D: i="); printInt(i); printString("\n");
 1030              		.loc 1 114 9 is_stmt 1 discriminator 1
 1031              		.loc 1 114 20 is_stmt 0 discriminator 1
 1032 03c4 17050000 		lla	a0,.LC9
 1032      13050500 
 1033 03cc 97000000 		call	_Z11printStringPKc@plt
 1033      E7800000 
 1034              	.LVL105:
 1035              		.loc 1 114 31 is_stmt 1 discriminator 1
 1036              		.loc 1 114 39 is_stmt 0 discriminator 1
 1037 03d4 13060000 		li	a2,0
 1038 03d8 9305A000 		li	a1,10
 1039 03dc 13850400 		mv	a0,s1
 1040 03e0 97000000 		call	_Z8printIntiii@plt
 1040      E7800000 
 1041              	.LVL106:
 1042              		.loc 1 114 44 is_stmt 1 discriminator 1
 1043              		.loc 1 114 55 is_stmt 0 discriminator 1
 1044 03e8 17050000 		lla	a0,.LC1
 1044      13050500 
 1045 03f0 97000000 		call	_Z11printStringPKc@plt
 1045      E7800000 
 1046              	.LVL107:
 113:test/Threads_CPP_API_test.cpp ****     for (; i < 13; i++) {
 1047              		.loc 1 113 5 is_stmt 1 discriminator 1
 1048 03f8 9B841400 		addiw	s1,s1,1
 1049              	.LVL108:
 1050 03fc 93F4F40F 		andi	s1,s1,0xff
 1051              	.LVL109:
 1052              	.L55:
 113:test/Threads_CPP_API_test.cpp ****     for (; i < 13; i++) {
 1053              		.loc 1 113 5 discriminator 2
 113:test/Threads_CPP_API_test.cpp ****     for (; i < 13; i++) {
 1054              		.loc 1 113 14 discriminator 2
 1055 0400 9307C000 		li	a5,12
 1056 0404 E3F097FC 		bleu	s1,a5,.L59
 115:test/Threads_CPP_API_test.cpp ****     }
 116:test/Threads_CPP_API_test.cpp **** 
 117:test/Threads_CPP_API_test.cpp ****     printString("D: dispatch\n");
 1057              		.loc 1 117 5
 1058              		.loc 1 117 16 is_stmt 0
 1059 0408 17050000 		lla	a0,.LC10
 1059      13050500 
 1060 0410 97000000 		call	_Z11printStringPKc@plt
 1060      E7800000 
 1061              	.LVL110:
 118:test/Threads_CPP_API_test.cpp ****     __asm__ ("li t1, 5");
 1062              		.loc 1 118 5 is_stmt 1
 1063              		.loc 1 118 25 is_stmt 0
GAS LISTING /tmp/cc4yCDT2.s 			page 24


 1064              	#APP
 1065              	# 118 "test/Threads_CPP_API_test.cpp" 1
 119              	    thread_dispatch();
 1066              		li t1, 5
 1067              	# 0 "" 2
 1068              		.loc 1 119 5 is_stmt 1
 1069              		.loc 1 119 20 is_stmt 0
 1070              	#NO_APP
 1071 041c 97000000 		call	_Z15thread_dispatchv@plt
 1071      E7800000 
 1072              	.LVL111:
 120:test/Threads_CPP_API_test.cpp **** 
 121:test/Threads_CPP_API_test.cpp ****     uint64 result = fibonacci(16);
 1073              		.loc 1 121 5 is_stmt 1
 1074              		.loc 1 121 30 is_stmt 0
 1075 0424 13050001 		li	a0,16
 1076 0428 97000000 		call	_ZL9fibonaccim
 1076      E7800000 
 1077              	.LVL112:
 1078 0430 13090500 		mv	s2,a0
 1079              	.LVL113:
 122:test/Threads_CPP_API_test.cpp ****     printString("D: fibonaci="); printInt(result); printString("\n");
 1080              		.loc 1 122 5 is_stmt 1
 1081              		.loc 1 122 16 is_stmt 0
 1082 0434 17050000 		lla	a0,.LC11
 1082      13050500 
 1083              	.LVL114:
 1084 043c 97000000 		call	_Z11printStringPKc@plt
 1084      E7800000 
 1085              	.LVL115:
 1086              		.loc 1 122 34 is_stmt 1
 1087              		.loc 1 122 42 is_stmt 0
 1088 0444 13060000 		li	a2,0
 1089 0448 9305A000 		li	a1,10
 1090 044c 1B050900 		sext.w	a0,s2
 1091 0450 97000000 		call	_Z8printIntiii@plt
 1091      E7800000 
 1092              	.LVL116:
 1093              		.loc 1 122 52 is_stmt 1
 1094              		.loc 1 122 63 is_stmt 0
 1095 0458 17050000 		lla	a0,.LC1
 1095      13050500 
 1096 0460 97000000 		call	_Z11printStringPKc@plt
 1096      E7800000 
 1097              	.LVL117:
 1098 0468 6F000004 		j	.L57
 1099              	.L60:
 123:test/Threads_CPP_API_test.cpp **** 
 124:test/Threads_CPP_API_test.cpp ****     for (; i < 16; i++) {
 125:test/Threads_CPP_API_test.cpp ****         printString("D: i="); printInt(i); printString("\n");
 1100              		.loc 1 125 9 is_stmt 1 discriminator 1
 1101              		.loc 1 125 20 is_stmt 0 discriminator 1
 1102 046c 17050000 		lla	a0,.LC9
 1102      13050500 
 1103 0474 97000000 		call	_Z11printStringPKc@plt
 1103      E7800000 
 1104              	.LVL118:
GAS LISTING /tmp/cc4yCDT2.s 			page 25


 1105              		.loc 1 125 31 is_stmt 1 discriminator 1
 1106              		.loc 1 125 39 is_stmt 0 discriminator 1
 1107 047c 13060000 		li	a2,0
 1108 0480 9305A000 		li	a1,10
 1109 0484 13850400 		mv	a0,s1
 1110 0488 97000000 		call	_Z8printIntiii@plt
 1110      E7800000 
 1111              	.LVL119:
 1112              		.loc 1 125 44 is_stmt 1 discriminator 1
 1113              		.loc 1 125 55 is_stmt 0 discriminator 1
 1114 0490 17050000 		lla	a0,.LC1
 1114      13050500 
 1115 0498 97000000 		call	_Z11printStringPKc@plt
 1115      E7800000 
 1116              	.LVL120:
 124:test/Threads_CPP_API_test.cpp ****         printString("D: i="); printInt(i); printString("\n");
 1117              		.loc 1 124 5 is_stmt 1 discriminator 1
 1118 04a0 9B841400 		addiw	s1,s1,1
 1119              	.LVL121:
 1120 04a4 93F4F40F 		andi	s1,s1,0xff
 1121              	.LVL122:
 1122              	.L57:
 124:test/Threads_CPP_API_test.cpp ****         printString("D: i="); printInt(i); printString("\n");
 1123              		.loc 1 124 5 discriminator 2
 124:test/Threads_CPP_API_test.cpp ****         printString("D: i="); printInt(i); printString("\n");
 1124              		.loc 1 124 14 discriminator 2
 1125 04a8 9307F000 		li	a5,15
 1126 04ac E3F097FC 		bleu	s1,a5,.L60
 126:test/Threads_CPP_API_test.cpp ****     }
 127:test/Threads_CPP_API_test.cpp ****     a->join();
 1127              		.loc 1 127 5
 1128              		.loc 1 127 12 is_stmt 0
 1129 04b0 97040000 		lla	s1,.LANCHOR0
 1129      93840400 
 1130              	.LVL123:
 1131 04b8 03B58400 		ld	a0,8(s1)
 1132 04bc 97000000 		call	_ZN6Thread4joinEv@plt
 1132      E7800000 
 1133              	.LVL124:
 128:test/Threads_CPP_API_test.cpp ****     printString("D finished!\n");
 1134              		.loc 1 128 5 is_stmt 1
 1135              		.loc 1 128 16 is_stmt 0
 1136 04c4 17050000 		lla	a0,.LC12
 1136      13050500 
 1137 04cc 97000000 		call	_Z11printStringPKc@plt
 1137      E7800000 
 1138              	.LVL125:
 129:test/Threads_CPP_API_test.cpp ****     finishedD = true;
 1139              		.loc 1 129 5 is_stmt 1
 1140              		.loc 1 129 15 is_stmt 0
 1141 04d4 93071000 		li	a5,1
 1142 04d8 A388F400 		sb	a5,17(s1)
 130:test/Threads_CPP_API_test.cpp ****     thread_dispatch();
 1143              		.loc 1 130 5 is_stmt 1
 1144              		.loc 1 130 20 is_stmt 0
 1145 04dc 97000000 		call	_Z15thread_dispatchv@plt
 1145      E7800000 
GAS LISTING /tmp/cc4yCDT2.s 			page 26


 1146              	.LVL126:
 131:test/Threads_CPP_API_test.cpp **** }
 1147              		.loc 1 131 1
 1148 04e4 83308101 		ld	ra,24(sp)
 1149              		.cfi_restore 1
 1150 04e8 03340101 		ld	s0,16(sp)
 1151              		.cfi_restore 8
 1152              		.cfi_def_cfa 2, 32
 1153 04ec 83348100 		ld	s1,8(sp)
 1154              		.cfi_restore 9
 1155 04f0 03390100 		ld	s2,0(sp)
 1156              		.cfi_restore 18
 1157              	.LVL127:
 1158 04f4 13010102 		addi	sp,sp,32
 1159              		.cfi_def_cfa_offset 0
 1160 04f8 67800000 		jr	ra
 1161              		.cfi_endproc
 1162              	.LFE39:
 1164              		.section	.text._ZN7WorkerD3runEv,"axG",@progbits,_ZN7WorkerD3runEv,comdat
 1165              		.align	2
 1166              		.weak	_ZN7WorkerD3runEv
 1168              	_ZN7WorkerD3runEv:
 1169              	.LFB35:
  52:test/Threads_CPP_API_test.cpp ****         workerBodyD(nullptr);
 1170              		.loc 1 52 10 is_stmt 1
 1171              		.cfi_startproc
 1172              	.LVL128:
 1173 0000 130101FF 		addi	sp,sp,-16
 1174              		.cfi_def_cfa_offset 16
 1175 0004 23341100 		sd	ra,8(sp)
 1176 0008 23308100 		sd	s0,0(sp)
 1177              		.cfi_offset 1, -8
 1178              		.cfi_offset 8, -16
 1179 000c 13040101 		addi	s0,sp,16
 1180              		.cfi_def_cfa 8, 0
  53:test/Threads_CPP_API_test.cpp ****     }
 1181              		.loc 1 53 9
  53:test/Threads_CPP_API_test.cpp ****     }
 1182              		.loc 1 53 20 is_stmt 0
 1183 0010 93050000 		li	a1,0
 1184 0014 97000000 		call	_ZN7WorkerD11workerBodyDEPv
 1184      E7800000 
 1185              	.LVL129:
  54:test/Threads_CPP_API_test.cpp **** };
 1186              		.loc 1 54 5
 1187 001c 83308100 		ld	ra,8(sp)
 1188              		.cfi_restore 1
 1189 0020 03340100 		ld	s0,0(sp)
 1190              		.cfi_restore 8
 1191              		.cfi_def_cfa 2, 16
 1192 0024 13010101 		addi	sp,sp,16
 1193              		.cfi_def_cfa_offset 0
 1194 0028 67800000 		jr	ra
 1195              		.cfi_endproc
 1196              	.LFE35:
 1198              		.section	.rodata.str1.8
 1199 009d 000000   		.align	3
GAS LISTING /tmp/cc4yCDT2.s 			page 27


 1200              	.LC13:
 1201 00a0 54687265 		.string	"ThreadA created\n"
 1201      61644120 
 1201      63726561 
 1201      7465640A 
 1201      00
 1202 00b1 00000000 		.align	3
 1202      000000
 1203              	.LC14:
 1204 00b8 54687265 		.string	"ThreadB created\n"
 1204      61644220 
 1204      63726561 
 1204      7465640A 
 1204      00
 1205 00c9 00000000 		.align	3
 1205      000000
 1206              	.LC15:
 1207 00d0 54687265 		.string	"ThreadC created\n"
 1207      61644320 
 1207      63726561 
 1207      7465640A 
 1207      00
 1208 00e1 00000000 		.align	3
 1208      000000
 1209              	.LC16:
 1210 00e8 54687265 		.string	"ThreadD created\n"
 1210      61644420 
 1210      63726561 
 1210      7465640A 
 1210      00
 1211              		.text
 1212              		.align	2
 1213              		.globl	_Z20Threads_CPP_API_testv
 1215              	_Z20Threads_CPP_API_testv:
 1216              	.LFB40:
 132:test/Threads_CPP_API_test.cpp **** 
 133:test/Threads_CPP_API_test.cpp **** 
 134:test/Threads_CPP_API_test.cpp **** void Threads_CPP_API_test() {
 1217              		.loc 1 134 29 is_stmt 1
 1218              		.cfi_startproc
 1219              		.cfi_personality 0x9b,DW.ref.__gxx_personality_v0
 1220              		.cfi_lsda 0x1b,.LLSDA40
 1221 04fc 130101FC 		addi	sp,sp,-64
 1222              		.cfi_def_cfa_offset 64
 1223 0500 233C1102 		sd	ra,56(sp)
 1224 0504 23388102 		sd	s0,48(sp)
 1225 0508 23349102 		sd	s1,40(sp)
 1226 050c 23302103 		sd	s2,32(sp)
 1227              		.cfi_offset 1, -8
 1228              		.cfi_offset 8, -16
 1229              		.cfi_offset 9, -24
 1230              		.cfi_offset 18, -32
 1231 0510 13040104 		addi	s0,sp,64
 1232              		.cfi_def_cfa 8, 0
 135:test/Threads_CPP_API_test.cpp ****     Thread* threads[4];
 1233              		.loc 1 135 5
 136:test/Threads_CPP_API_test.cpp **** 
GAS LISTING /tmp/cc4yCDT2.s 			page 28


 137:test/Threads_CPP_API_test.cpp ****     threads[0] = new WorkerA();
 1234              		.loc 1 137 5
 1235              		.loc 1 137 30 is_stmt 0
 1236 0514 13050002 		li	a0,32
 1237              	.LEHB0:
 1238 0518 97000000 		call	_Znwm@plt
 1238      E7800000 
 1239              	.LVL130:
 1240              	.LEHE0:
 1241 0520 93040500 		mv	s1,a0
 1242              	.LVL131:
 1243              	.LEHB1:
 1244              	.LBB56:
 1245              	.LBB57:
  20:test/Threads_CPP_API_test.cpp **** 
 1246              		.loc 1 20 22
 1247 0524 97000000 		call	_ZN6ThreadC2Ev@plt
 1247      E7800000 
 1248              	.LVL132:
 1249              	.LEHE1:
 1250 052c 97070000 		lla	a5,_ZTV7WorkerA+16
 1250      93870700 
 1251 0534 23B0F400 		sd	a5,0(s1)
 1252              	.LVL133:
 1253              	.LBE57:
 1254              	.LBE56:
 1255              		.loc 1 137 16
 1256 0538 233094FC 		sd	s1,-64(s0)
 138:test/Threads_CPP_API_test.cpp ****     printString("ThreadA created\n");
 1257              		.loc 1 138 5 is_stmt 1
 1258              		.loc 1 138 16 is_stmt 0
 1259 053c 17050000 		lla	a0,.LC13
 1259      13050500 
 1260              	.LEHB2:
 1261 0544 97000000 		call	_Z11printStringPKc@plt
 1261      E7800000 
 1262              	.LVL134:
 139:test/Threads_CPP_API_test.cpp ****     a = threads[0];
 1263              		.loc 1 139 5 is_stmt 1
 1264              		.loc 1 139 7 is_stmt 0
 1265 054c 833704FC 		ld	a5,-64(s0)
 1266 0550 17070000 		sd	a5,.LANCHOR0+8,a4
 1266      2330F700 
 140:test/Threads_CPP_API_test.cpp **** 
 141:test/Threads_CPP_API_test.cpp ****     threads[1] = new WorkerB();
 1267              		.loc 1 141 5 is_stmt 1
 1268              		.loc 1 141 30 is_stmt 0
 1269 0558 13050002 		li	a0,32
 1270 055c 97000000 		call	_Znwm@plt
 1270      E7800000 
 1271              	.LVL135:
 1272              	.LEHE2:
 1273 0564 93040500 		mv	s1,a0
 1274              	.LVL136:
 1275              	.LEHB3:
 1276              	.LBB58:
 1277              	.LBB59:
GAS LISTING /tmp/cc4yCDT2.s 			page 29


  30:test/Threads_CPP_API_test.cpp **** 
 1278              		.loc 1 30 22
 1279 0568 97000000 		call	_ZN6ThreadC2Ev@plt
 1279      E7800000 
 1280              	.LVL137:
 1281              	.LEHE3:
 1282 0570 97070000 		lla	a5,_ZTV7WorkerB+16
 1282      93870700 
 1283 0578 23B0F400 		sd	a5,0(s1)
 1284              	.LVL138:
 1285              	.LBE59:
 1286              	.LBE58:
 1287              		.loc 1 141 16
 1288 057c 233494FC 		sd	s1,-56(s0)
 142:test/Threads_CPP_API_test.cpp ****     printString("ThreadB created\n");
 1289              		.loc 1 142 5 is_stmt 1
 1290              		.loc 1 142 16 is_stmt 0
 1291 0580 17050000 		lla	a0,.LC14
 1291      13050500 
 1292              	.LEHB4:
 1293 0588 97000000 		call	_Z11printStringPKc@plt
 1293      E7800000 
 1294              	.LVL139:
 143:test/Threads_CPP_API_test.cpp **** 
 144:test/Threads_CPP_API_test.cpp ****     threads[2] = new WorkerC();
 1295              		.loc 1 144 5 is_stmt 1
 1296              		.loc 1 144 30 is_stmt 0
 1297 0590 13050002 		li	a0,32
 1298 0594 97000000 		call	_Znwm@plt
 1298      E7800000 
 1299              	.LVL140:
 1300              	.LEHE4:
 1301 059c 93040500 		mv	s1,a0
 1302              	.LVL141:
 1303              	.LEHB5:
 1304              	.LBB60:
 1305              	.LBB61:
  40:test/Threads_CPP_API_test.cpp **** 
 1306              		.loc 1 40 22
 1307 05a0 97000000 		call	_ZN6ThreadC2Ev@plt
 1307      E7800000 
 1308              	.LVL142:
 1309              	.LEHE5:
 1310 05a8 97070000 		lla	a5,_ZTV7WorkerC+16
 1310      93870700 
 1311 05b0 23B0F400 		sd	a5,0(s1)
 1312              	.LVL143:
 1313              	.LBE61:
 1314              	.LBE60:
 1315              		.loc 1 144 16
 1316 05b4 233894FC 		sd	s1,-48(s0)
 145:test/Threads_CPP_API_test.cpp ****     printString("ThreadC created\n");
 1317              		.loc 1 145 5 is_stmt 1
 1318              		.loc 1 145 16 is_stmt 0
 1319 05b8 17050000 		lla	a0,.LC15
 1319      13050500 
 1320              	.LEHB6:
GAS LISTING /tmp/cc4yCDT2.s 			page 30


 1321 05c0 97000000 		call	_Z11printStringPKc@plt
 1321      E7800000 
 1322              	.LVL144:
 146:test/Threads_CPP_API_test.cpp **** 
 147:test/Threads_CPP_API_test.cpp ****     threads[3] = new WorkerD();
 1323              		.loc 1 147 5 is_stmt 1
 1324              		.loc 1 147 30 is_stmt 0
 1325 05c8 13050002 		li	a0,32
 1326 05cc 97000000 		call	_Znwm@plt
 1326      E7800000 
 1327              	.LVL145:
 1328              	.LEHE6:
 1329 05d4 93040500 		mv	s1,a0
 1330              	.LVL146:
 1331              	.LEHB7:
 1332              	.LBB62:
 1333              	.LBB63:
  50:test/Threads_CPP_API_test.cpp **** 
 1334              		.loc 1 50 22
 1335 05d8 97000000 		call	_ZN6ThreadC2Ev@plt
 1335      E7800000 
 1336              	.LVL147:
 1337              	.LEHE7:
 1338 05e0 97070000 		lla	a5,_ZTV7WorkerD+16
 1338      93870700 
 1339 05e8 23B0F400 		sd	a5,0(s1)
 1340              	.LVL148:
 1341              	.LBE63:
 1342              	.LBE62:
 1343              		.loc 1 147 16
 1344 05ec 233C94FC 		sd	s1,-40(s0)
 148:test/Threads_CPP_API_test.cpp ****     printString("ThreadD created\n");
 1345              		.loc 1 148 5 is_stmt 1
 1346              		.loc 1 148 16 is_stmt 0
 1347 05f0 17050000 		lla	a0,.LC16
 1347      13050500 
 1348              	.LEHB8:
 1349 05f8 97000000 		call	_Z11printStringPKc@plt
 1349      E7800000 
 1350              	.LVL149:
 1351              	.LBB64:
 149:test/Threads_CPP_API_test.cpp **** 
 150:test/Threads_CPP_API_test.cpp ****     for(int i=0; i<4; i++) {
 1352              		.loc 1 150 13
 1353 0600 93040000 		li	s1,0
 1354              	.L65:
 1355              	.LVL150:
 1356              		.loc 1 150 19 is_stmt 1 discriminator 1
 1357 0604 93073000 		li	a5,3
 1358 0608 63C69702 		bgt	s1,a5,.L64
 151:test/Threads_CPP_API_test.cpp ****         threads[i]->start();
 1359              		.loc 1 151 9
 1360              		.loc 1 151 18 is_stmt 0
 1361 060c 93973400 		slli	a5,s1,3
 1362 0610 130704FE 		addi	a4,s0,-32
 1363 0614 B307F700 		add	a5,a4,a5
 1364              		.loc 1 151 26
GAS LISTING /tmp/cc4yCDT2.s 			page 31


 1365 0618 03B507FE 		ld	a0,-32(a5)
 1366 061c 97000000 		call	_ZN6Thread5startEv@plt
 1366      E7800000 
 1367              	.LVL151:
 150:test/Threads_CPP_API_test.cpp ****         threads[i]->start();
 1368              		.loc 1 150 5 is_stmt 1
 1369 0624 9B841400 		addiw	s1,s1,1
 1370              	.LVL152:
 1371 0628 6FF0DFFD 		j	.L65
 1372              	.LVL153:
 1373              	.L66:
 1374              	.LBE64:
 152:test/Threads_CPP_API_test.cpp ****     }
 153:test/Threads_CPP_API_test.cpp **** 
 154:test/Threads_CPP_API_test.cpp ****     while (!(finishedA && finishedB && finishedC && finishedD)) {
 155:test/Threads_CPP_API_test.cpp ****         Thread::dispatch();
 1375              		.loc 1 155 9
 1376              		.loc 1 155 25 is_stmt 0
 1377 062c 97000000 		call	_ZN6Thread8dispatchEv@plt
 1377      E7800000 
 1378              	.LVL154:
 1379              	.L64:
 154:test/Threads_CPP_API_test.cpp ****         Thread::dispatch();
 1380              		.loc 1 154 5 is_stmt 1
 154:test/Threads_CPP_API_test.cpp ****         Thread::dispatch();
 1381              		.loc 1 154 12
 154:test/Threads_CPP_API_test.cpp ****         Thread::dispatch();
 1382              		.loc 1 154 14 is_stmt 0
 1383 0634 97070000 		lbu	a5,.LANCHOR0
 1383      83C70700 
 154:test/Threads_CPP_API_test.cpp ****         Thread::dispatch();
 1384              		.loc 1 154 12
 1385 063c E38807FE 		beqz	a5,.L66
 154:test/Threads_CPP_API_test.cpp ****         Thread::dispatch();
 1386              		.loc 1 154 27 discriminator 2
 1387 0640 97070000 		lbu	a5,.LANCHOR0+1
 1387      83C70700 
 154:test/Threads_CPP_API_test.cpp ****         Thread::dispatch();
 1388              		.loc 1 154 24 discriminator 2
 1389 0648 E38207FE 		beqz	a5,.L66
 154:test/Threads_CPP_API_test.cpp ****         Thread::dispatch();
 1390              		.loc 1 154 40 discriminator 4
 1391 064c 97070000 		lbu	a5,.LANCHOR0+16
 1391      83C70700 
 154:test/Threads_CPP_API_test.cpp ****         Thread::dispatch();
 1392              		.loc 1 154 37 discriminator 4
 1393 0654 E38C07FC 		beqz	a5,.L66
 154:test/Threads_CPP_API_test.cpp ****         Thread::dispatch();
 1394              		.loc 1 154 53 discriminator 6
 1395 0658 97070000 		lbu	a5,.LANCHOR0+17
 1395      83C70700 
 154:test/Threads_CPP_API_test.cpp ****         Thread::dispatch();
 1396              		.loc 1 154 12 discriminator 6
 1397 0660 E38607FC 		beqz	a5,.L66
 1398 0664 930404FC 		addi	s1,s0,-64
 1399              	.LVL155:
 1400 0668 6F008000 		j	.L67
GAS LISTING /tmp/cc4yCDT2.s 			page 32


 1401              	.LVL156:
 1402              	.L69:
 1403              	.LBB65:
 156:test/Threads_CPP_API_test.cpp ****     }
 157:test/Threads_CPP_API_test.cpp **** 
 158:test/Threads_CPP_API_test.cpp ****     for (auto thread: threads) { delete thread; }
 1404              		.loc 1 158 5 is_stmt 1 discriminator 5
 1405 066c 93848400 		addi	s1,s1,8
 1406              	.LVL157:
 1407              	.L67:
 1408              		.loc 1 158 23 discriminator 6
 1409 0670 930704FE 		addi	a5,s0,-32
 1410 0674 6386F408 		beq	s1,a5,.L63
 1411              		.loc 1 158 15 is_stmt 0 discriminator 2
 1412 0678 03B50400 		ld	a0,0(s1)
 1413              	.LVL158:
 1414              		.loc 1 158 34 is_stmt 1 discriminator 2
 1415              		.loc 1 158 47 is_stmt 0 discriminator 2
 1416 067c E30805FE 		beqz	a0,.L69
 1417              		.loc 1 158 41 discriminator 3
 1418 0680 83370500 		ld	a5,0(a0)
 1419 0684 83B78700 		ld	a5,8(a5)
 1420 0688 E7800700 		jalr	a5
 1421              	.LVL159:
 1422 068c 6FF01FFE 		j	.L69
 1423              	.LVL160:
 1424              	.L75:
 1425 0690 13090500 		mv	s2,a0
 1426              	.LBE65:
 137:test/Threads_CPP_API_test.cpp ****     printString("ThreadA created\n");
 1427              		.loc 1 137 30
 1428 0694 13850400 		mv	a0,s1
 1429 0698 97000000 		call	_ZdlPv@plt
 1429      E7800000 
 1430              	.LVL161:
 1431 06a0 13050900 		mv	a0,s2
 1432 06a4 97000000 		call	_Unwind_Resume@plt
 1432      E7800000 
 1433              	.LVL162:
 1434              	.L76:
 1435 06ac 13090500 		mv	s2,a0
 141:test/Threads_CPP_API_test.cpp ****     printString("ThreadB created\n");
 1436              		.loc 1 141 30
 1437 06b0 13850400 		mv	a0,s1
 1438 06b4 97000000 		call	_ZdlPv@plt
 1438      E7800000 
 1439              	.LVL163:
 1440 06bc 13050900 		mv	a0,s2
 1441 06c0 97000000 		call	_Unwind_Resume@plt
 1441      E7800000 
 1442              	.LVL164:
 1443              	.L77:
 1444 06c8 13090500 		mv	s2,a0
 144:test/Threads_CPP_API_test.cpp ****     printString("ThreadC created\n");
 1445              		.loc 1 144 30
 1446 06cc 13850400 		mv	a0,s1
 1447 06d0 97000000 		call	_ZdlPv@plt
GAS LISTING /tmp/cc4yCDT2.s 			page 33


 1447      E7800000 
 1448              	.LVL165:
 1449 06d8 13050900 		mv	a0,s2
 1450 06dc 97000000 		call	_Unwind_Resume@plt
 1450      E7800000 
 1451              	.LVL166:
 1452              	.L78:
 1453 06e4 13090500 		mv	s2,a0
 147:test/Threads_CPP_API_test.cpp ****     printString("ThreadD created\n");
 1454              		.loc 1 147 30
 1455 06e8 13850400 		mv	a0,s1
 1456 06ec 97000000 		call	_ZdlPv@plt
 1456      E7800000 
 1457              	.LVL167:
 1458 06f4 13050900 		mv	a0,s2
 1459 06f8 97000000 		call	_Unwind_Resume@plt
 1459      E7800000 
 1460              	.LVL168:
 1461              	.LEHE8:
 1462              	.L63:
 159:test/Threads_CPP_API_test.cpp **** }
 1463              		.loc 1 159 1
 1464 0700 83308103 		ld	ra,56(sp)
 1465              		.cfi_restore 1
 1466 0704 03340103 		ld	s0,48(sp)
 1467              		.cfi_restore 8
 1468              		.cfi_def_cfa 2, 64
 1469 0708 83348102 		ld	s1,40(sp)
 1470              		.cfi_restore 9
 1471              	.LVL169:
 1472 070c 03390102 		ld	s2,32(sp)
 1473              		.cfi_restore 18
 1474 0710 13010104 		addi	sp,sp,64
 1475              		.cfi_def_cfa_offset 0
 1476 0714 67800000 		jr	ra
 1477              		.cfi_endproc
 1478              	.LFE40:
 1479              		.globl	__gxx_personality_v0
 1480              		.section	.gcc_except_table,"a",@progbits
 1481              	.LLSDA40:
 1482 0000 FF       		.byte	0xff
 1483 0001 FF       		.byte	0xff
 1484 0002 03       		.byte	0x3
 1485 0003 75       		.byte	0x75
 1486 0004 00000000 		.4byte	.LEHB0-.LFB40
 1487 0008 00000000 		.4byte	.LEHE0-.LEHB0
 1488 000c 00000000 		.4byte	0
 1489 0010 00       		.byte	0
 1490 0011 00000000 		.4byte	.LEHB1-.LFB40
 1491 0015 00000000 		.4byte	.LEHE1-.LEHB1
 1492 0019 00000000 		.4byte	.L75-.LFB40
 1493 001d 00       		.byte	0
 1494 001e 00000000 		.4byte	.LEHB2-.LFB40
 1495 0022 00000000 		.4byte	.LEHE2-.LEHB2
 1496 0026 00000000 		.4byte	0
 1497 002a 00       		.byte	0
 1498 002b 00000000 		.4byte	.LEHB3-.LFB40
GAS LISTING /tmp/cc4yCDT2.s 			page 34


 1499 002f 00000000 		.4byte	.LEHE3-.LEHB3
 1500 0033 00000000 		.4byte	.L76-.LFB40
 1501 0037 00       		.byte	0
 1502 0038 00000000 		.4byte	.LEHB4-.LFB40
 1503 003c 00000000 		.4byte	.LEHE4-.LEHB4
 1504 0040 00000000 		.4byte	0
 1505 0044 00       		.byte	0
 1506 0045 00000000 		.4byte	.LEHB5-.LFB40
 1507 0049 00000000 		.4byte	.LEHE5-.LEHB5
 1508 004d 00000000 		.4byte	.L77-.LFB40
 1509 0051 00       		.byte	0
 1510 0052 00000000 		.4byte	.LEHB6-.LFB40
 1511 0056 00000000 		.4byte	.LEHE6-.LEHB6
 1512 005a 00000000 		.4byte	0
 1513 005e 00       		.byte	0
 1514 005f 00000000 		.4byte	.LEHB7-.LFB40
 1515 0063 00000000 		.4byte	.LEHE7-.LEHB7
 1516 0067 00000000 		.4byte	.L78-.LFB40
 1517 006b 00       		.byte	0
 1518 006c 00000000 		.4byte	.LEHB8-.LFB40
 1519 0070 00000000 		.4byte	.LEHE8-.LEHB8
 1520 0074 00000000 		.4byte	0
 1521 0078 00       		.byte	0
 1522              		.text
 1524              		.weak	_ZTV7WorkerA
 1525              		.section	.data.rel.ro.local._ZTV7WorkerA,"awG",@progbits,_ZTV7WorkerA,comdat
 1526              		.align	3
 1529              	_ZTV7WorkerA:
 1530 0000 00000000 		.dword	0
 1530      00000000 
 1531 0008 00000000 		.dword	0
 1531      00000000 
 1532 0010 00000000 		.dword	_ZN7WorkerAD1Ev
 1532      00000000 
 1533 0018 00000000 		.dword	_ZN7WorkerAD0Ev
 1533      00000000 
 1534 0020 00000000 		.dword	_ZN7WorkerA3runEv
 1534      00000000 
 1535              		.weak	_ZTV7WorkerB
 1536              		.section	.data.rel.ro.local._ZTV7WorkerB,"awG",@progbits,_ZTV7WorkerB,comdat
 1537              		.align	3
 1540              	_ZTV7WorkerB:
 1541 0000 00000000 		.dword	0
 1541      00000000 
 1542 0008 00000000 		.dword	0
 1542      00000000 
 1543 0010 00000000 		.dword	_ZN7WorkerBD1Ev
 1543      00000000 
 1544 0018 00000000 		.dword	_ZN7WorkerBD0Ev
 1544      00000000 
 1545 0020 00000000 		.dword	_ZN7WorkerB3runEv
 1545      00000000 
 1546              		.weak	_ZTV7WorkerC
 1547              		.section	.data.rel.ro.local._ZTV7WorkerC,"awG",@progbits,_ZTV7WorkerC,comdat
 1548              		.align	3
 1551              	_ZTV7WorkerC:
 1552 0000 00000000 		.dword	0
GAS LISTING /tmp/cc4yCDT2.s 			page 35


 1552      00000000 
 1553 0008 00000000 		.dword	0
 1553      00000000 
 1554 0010 00000000 		.dword	_ZN7WorkerCD1Ev
 1554      00000000 
 1555 0018 00000000 		.dword	_ZN7WorkerCD0Ev
 1555      00000000 
 1556 0020 00000000 		.dword	_ZN7WorkerC3runEv
 1556      00000000 
 1557              		.weak	_ZTV7WorkerD
 1558              		.section	.data.rel.ro.local._ZTV7WorkerD,"awG",@progbits,_ZTV7WorkerD,comdat
 1559              		.align	3
 1562              	_ZTV7WorkerD:
 1563 0000 00000000 		.dword	0
 1563      00000000 
 1564 0008 00000000 		.dword	0
 1564      00000000 
 1565 0010 00000000 		.dword	_ZN7WorkerDD1Ev
 1565      00000000 
 1566 0018 00000000 		.dword	_ZN7WorkerDD0Ev
 1566      00000000 
 1567 0020 00000000 		.dword	_ZN7WorkerD3runEv
 1567      00000000 
 1568              		.bss
 1569              		.align	3
 1570              		.set	.LANCHOR0,. + 0
 1573              	_ZL9finishedA:
 1574 0000 00       		.zero	1
 1577              	_ZL9finishedB:
 1578 0001 00       		.zero	1
 1579 0002 00000000 		.zero	6
 1579      0000
 1582              	_ZL1a:
 1583 0008 00000000 		.zero	8
 1583      00000000 
 1586              	_ZL9finishedC:
 1587 0010 00       		.zero	1
 1590              	_ZL9finishedD:
 1591 0011 00       		.zero	1
 1592              		.text
 1593              	.Letext0:
 1594              		.file 2 "test/../h/../lib/hw.h"
 1595              		.file 3 "test/../h/syscall_cpp.hpp"
 1596              		.file 4 "test/printing.hpp"
 1597              		.file 5 "test/../h/syscall_c.h"
 5463              		.align	3
 5466              	DW.ref.__gxx_personality_v0:
 5467 0000 00000000 		.dword	__gxx_personality_v0
 5467      00000000 
 5468              		.ident	"GCC: (Ubuntu 9.4.0-1ubuntu1~20.04) 9.4.0"
 5469              		.section	.note.GNU-stack,"",@progbits
GAS LISTING /tmp/cc4yCDT2.s 			page 36


DEFINED SYMBOLS
                            *ABS*:0000000000000000 Threads_CPP_API_test.cpp
     /tmp/cc4yCDT2.s:8      .text:0000000000000000 _ZL9fibonaccim
     /tmp/cc4yCDT2.s:12     .text:0000000000000000 .L0 
     /tmp/cc4yCDT2.s:14     .text:0000000000000000 .L0 
     /tmp/cc4yCDT2.s:15     .text:0000000000000004 .L0 
     /tmp/cc4yCDT2.s:20     .text:0000000000000014 .L0 
     /tmp/cc4yCDT2.s:21     .text:0000000000000014 .L0 
     /tmp/cc4yCDT2.s:22     .text:0000000000000014 .L0 
     /tmp/cc4yCDT2.s:23     .text:0000000000000014 .L0 
     /tmp/cc4yCDT2.s:25     .text:0000000000000018 .L0 
     /tmp/cc4yCDT2.s:28     .text:000000000000001c .L0 
     /tmp/cc4yCDT2.s:31     .text:0000000000000024 .L0 
     /tmp/cc4yCDT2.s:32     .text:0000000000000024 .L0 
     /tmp/cc4yCDT2.s:35     .text:000000000000002c .L0 
     /tmp/cc4yCDT2.s:39     .text:0000000000000030 .L0 
     /tmp/cc4yCDT2.s:40     .text:0000000000000030 .L0 
     /tmp/cc4yCDT2.s:45     .text:0000000000000040 .L0 
     /tmp/cc4yCDT2.s:49     .text:000000000000004c .L0 
     /tmp/cc4yCDT2.s:52     .text:0000000000000050 .L0 
     /tmp/cc4yCDT2.s:53     .text:0000000000000054 .L0 
     /tmp/cc4yCDT2.s:54     .text:0000000000000054 .L0 
     /tmp/cc4yCDT2.s:56     .text:0000000000000058 .L0 
     /tmp/cc4yCDT2.s:57     .text:0000000000000058 .L0 
     /tmp/cc4yCDT2.s:59     .text:000000000000005c .L0 
     /tmp/cc4yCDT2.s:62     .text:0000000000000060 .L0 
     /tmp/cc4yCDT2.s:64     .text:0000000000000064 .L0 
     /tmp/cc4yCDT2.s:68     .text:0000000000000068 .L0 
     /tmp/cc4yCDT2.s:70     .text:0000000000000068 .L0 
     /tmp/cc4yCDT2.s:71     .text:0000000000000068 .L0 
     /tmp/cc4yCDT2.s:74     .text:0000000000000074 .L0 
     /tmp/cc4yCDT2.s:81     .text._ZN7WorkerAD2Ev:0000000000000000 _ZN7WorkerAD2Ev
     /tmp/cc4yCDT2.s:84     .text._ZN7WorkerAD2Ev:0000000000000000 .L0 
     /tmp/cc4yCDT2.s:86     .text._ZN7WorkerAD2Ev:0000000000000000 .L0 
     /tmp/cc4yCDT2.s:87     .text._ZN7WorkerAD2Ev:0000000000000004 .L0 
     /tmp/cc4yCDT2.s:90     .text._ZN7WorkerAD2Ev:000000000000000c .L0 
     /tmp/cc4yCDT2.s:91     .text._ZN7WorkerAD2Ev:000000000000000c .L0 
     /tmp/cc4yCDT2.s:93     .text._ZN7WorkerAD2Ev:0000000000000010 .L0 
     /tmp/cc4yCDT2.s:1529   .data.rel.ro.local._ZTV7WorkerA:0000000000000000 _ZTV7WorkerA
     /tmp/cc4yCDT2.s:96     .text._ZN7WorkerAD2Ev:0000000000000010 .L0 
     /tmp/cc4yCDT2.s:102    .text._ZN7WorkerAD2Ev:0000000000000028 .L0 
     /tmp/cc4yCDT2.s:104    .text._ZN7WorkerAD2Ev:000000000000002c .L0 
     /tmp/cc4yCDT2.s:105    .text._ZN7WorkerAD2Ev:000000000000002c .L0 
     /tmp/cc4yCDT2.s:107    .text._ZN7WorkerAD2Ev:0000000000000030 .L0 
     /tmp/cc4yCDT2.s:109    .text._ZN7WorkerAD2Ev:0000000000000034 .L0 
     /tmp/cc4yCDT2.s:81     .text._ZN7WorkerAD2Ev:0000000000000000 _ZN7WorkerAD1Ev
     /tmp/cc4yCDT2.s:118    .text._ZN7WorkerAD0Ev:0000000000000000 _ZN7WorkerAD0Ev
     /tmp/cc4yCDT2.s:121    .text._ZN7WorkerAD0Ev:0000000000000000 .L0 
     /tmp/cc4yCDT2.s:123    .text._ZN7WorkerAD0Ev:0000000000000000 .L0 
     /tmp/cc4yCDT2.s:124    .text._ZN7WorkerAD0Ev:0000000000000004 .L0 
     /tmp/cc4yCDT2.s:128    .text._ZN7WorkerAD0Ev:0000000000000010 .L0 
     /tmp/cc4yCDT2.s:129    .text._ZN7WorkerAD0Ev:0000000000000010 .L0 
     /tmp/cc4yCDT2.s:130    .text._ZN7WorkerAD0Ev:0000000000000010 .L0 
     /tmp/cc4yCDT2.s:132    .text._ZN7WorkerAD0Ev:0000000000000014 .L0 
     /tmp/cc4yCDT2.s:138    .text._ZN7WorkerAD0Ev:0000000000000018 .L0 
     /tmp/cc4yCDT2.s:148    .text._ZN7WorkerAD0Ev:000000000000003c .L0 
     /tmp/cc4yCDT2.s:150    .text._ZN7WorkerAD0Ev:0000000000000040 .L0 
GAS LISTING /tmp/cc4yCDT2.s 			page 37


     /tmp/cc4yCDT2.s:151    .text._ZN7WorkerAD0Ev:0000000000000040 .L0 
     /tmp/cc4yCDT2.s:153    .text._ZN7WorkerAD0Ev:0000000000000044 .L0 
     /tmp/cc4yCDT2.s:156    .text._ZN7WorkerAD0Ev:0000000000000048 .L0 
     /tmp/cc4yCDT2.s:158    .text._ZN7WorkerAD0Ev:000000000000004c .L0 
     /tmp/cc4yCDT2.s:165    .text._ZN7WorkerBD2Ev:0000000000000000 _ZN7WorkerBD2Ev
     /tmp/cc4yCDT2.s:168    .text._ZN7WorkerBD2Ev:0000000000000000 .L0 
     /tmp/cc4yCDT2.s:170    .text._ZN7WorkerBD2Ev:0000000000000000 .L0 
     /tmp/cc4yCDT2.s:171    .text._ZN7WorkerBD2Ev:0000000000000004 .L0 
     /tmp/cc4yCDT2.s:174    .text._ZN7WorkerBD2Ev:000000000000000c .L0 
     /tmp/cc4yCDT2.s:175    .text._ZN7WorkerBD2Ev:000000000000000c .L0 
     /tmp/cc4yCDT2.s:177    .text._ZN7WorkerBD2Ev:0000000000000010 .L0 
     /tmp/cc4yCDT2.s:1540   .data.rel.ro.local._ZTV7WorkerB:0000000000000000 _ZTV7WorkerB
     /tmp/cc4yCDT2.s:180    .text._ZN7WorkerBD2Ev:0000000000000010 .L0 
     /tmp/cc4yCDT2.s:186    .text._ZN7WorkerBD2Ev:0000000000000028 .L0 
     /tmp/cc4yCDT2.s:188    .text._ZN7WorkerBD2Ev:000000000000002c .L0 
     /tmp/cc4yCDT2.s:189    .text._ZN7WorkerBD2Ev:000000000000002c .L0 
     /tmp/cc4yCDT2.s:191    .text._ZN7WorkerBD2Ev:0000000000000030 .L0 
     /tmp/cc4yCDT2.s:193    .text._ZN7WorkerBD2Ev:0000000000000034 .L0 
     /tmp/cc4yCDT2.s:165    .text._ZN7WorkerBD2Ev:0000000000000000 _ZN7WorkerBD1Ev
     /tmp/cc4yCDT2.s:202    .text._ZN7WorkerBD0Ev:0000000000000000 _ZN7WorkerBD0Ev
     /tmp/cc4yCDT2.s:205    .text._ZN7WorkerBD0Ev:0000000000000000 .L0 
     /tmp/cc4yCDT2.s:207    .text._ZN7WorkerBD0Ev:0000000000000000 .L0 
     /tmp/cc4yCDT2.s:208    .text._ZN7WorkerBD0Ev:0000000000000004 .L0 
     /tmp/cc4yCDT2.s:212    .text._ZN7WorkerBD0Ev:0000000000000010 .L0 
     /tmp/cc4yCDT2.s:213    .text._ZN7WorkerBD0Ev:0000000000000010 .L0 
     /tmp/cc4yCDT2.s:214    .text._ZN7WorkerBD0Ev:0000000000000010 .L0 
     /tmp/cc4yCDT2.s:216    .text._ZN7WorkerBD0Ev:0000000000000014 .L0 
     /tmp/cc4yCDT2.s:222    .text._ZN7WorkerBD0Ev:0000000000000018 .L0 
     /tmp/cc4yCDT2.s:232    .text._ZN7WorkerBD0Ev:000000000000003c .L0 
     /tmp/cc4yCDT2.s:234    .text._ZN7WorkerBD0Ev:0000000000000040 .L0 
     /tmp/cc4yCDT2.s:235    .text._ZN7WorkerBD0Ev:0000000000000040 .L0 
     /tmp/cc4yCDT2.s:237    .text._ZN7WorkerBD0Ev:0000000000000044 .L0 
     /tmp/cc4yCDT2.s:240    .text._ZN7WorkerBD0Ev:0000000000000048 .L0 
     /tmp/cc4yCDT2.s:242    .text._ZN7WorkerBD0Ev:000000000000004c .L0 
     /tmp/cc4yCDT2.s:249    .text._ZN7WorkerCD2Ev:0000000000000000 _ZN7WorkerCD2Ev
     /tmp/cc4yCDT2.s:252    .text._ZN7WorkerCD2Ev:0000000000000000 .L0 
     /tmp/cc4yCDT2.s:254    .text._ZN7WorkerCD2Ev:0000000000000000 .L0 
     /tmp/cc4yCDT2.s:255    .text._ZN7WorkerCD2Ev:0000000000000004 .L0 
     /tmp/cc4yCDT2.s:258    .text._ZN7WorkerCD2Ev:000000000000000c .L0 
     /tmp/cc4yCDT2.s:259    .text._ZN7WorkerCD2Ev:000000000000000c .L0 
     /tmp/cc4yCDT2.s:261    .text._ZN7WorkerCD2Ev:0000000000000010 .L0 
     /tmp/cc4yCDT2.s:1551   .data.rel.ro.local._ZTV7WorkerC:0000000000000000 _ZTV7WorkerC
     /tmp/cc4yCDT2.s:264    .text._ZN7WorkerCD2Ev:0000000000000010 .L0 
     /tmp/cc4yCDT2.s:270    .text._ZN7WorkerCD2Ev:0000000000000028 .L0 
     /tmp/cc4yCDT2.s:272    .text._ZN7WorkerCD2Ev:000000000000002c .L0 
     /tmp/cc4yCDT2.s:273    .text._ZN7WorkerCD2Ev:000000000000002c .L0 
     /tmp/cc4yCDT2.s:275    .text._ZN7WorkerCD2Ev:0000000000000030 .L0 
     /tmp/cc4yCDT2.s:277    .text._ZN7WorkerCD2Ev:0000000000000034 .L0 
     /tmp/cc4yCDT2.s:249    .text._ZN7WorkerCD2Ev:0000000000000000 _ZN7WorkerCD1Ev
     /tmp/cc4yCDT2.s:286    .text._ZN7WorkerCD0Ev:0000000000000000 _ZN7WorkerCD0Ev
     /tmp/cc4yCDT2.s:289    .text._ZN7WorkerCD0Ev:0000000000000000 .L0 
     /tmp/cc4yCDT2.s:291    .text._ZN7WorkerCD0Ev:0000000000000000 .L0 
     /tmp/cc4yCDT2.s:292    .text._ZN7WorkerCD0Ev:0000000000000004 .L0 
     /tmp/cc4yCDT2.s:296    .text._ZN7WorkerCD0Ev:0000000000000010 .L0 
     /tmp/cc4yCDT2.s:297    .text._ZN7WorkerCD0Ev:0000000000000010 .L0 
     /tmp/cc4yCDT2.s:298    .text._ZN7WorkerCD0Ev:0000000000000010 .L0 
     /tmp/cc4yCDT2.s:300    .text._ZN7WorkerCD0Ev:0000000000000014 .L0 
GAS LISTING /tmp/cc4yCDT2.s 			page 38


     /tmp/cc4yCDT2.s:306    .text._ZN7WorkerCD0Ev:0000000000000018 .L0 
     /tmp/cc4yCDT2.s:316    .text._ZN7WorkerCD0Ev:000000000000003c .L0 
     /tmp/cc4yCDT2.s:318    .text._ZN7WorkerCD0Ev:0000000000000040 .L0 
     /tmp/cc4yCDT2.s:319    .text._ZN7WorkerCD0Ev:0000000000000040 .L0 
     /tmp/cc4yCDT2.s:321    .text._ZN7WorkerCD0Ev:0000000000000044 .L0 
     /tmp/cc4yCDT2.s:324    .text._ZN7WorkerCD0Ev:0000000000000048 .L0 
     /tmp/cc4yCDT2.s:326    .text._ZN7WorkerCD0Ev:000000000000004c .L0 
     /tmp/cc4yCDT2.s:333    .text._ZN7WorkerDD2Ev:0000000000000000 _ZN7WorkerDD2Ev
     /tmp/cc4yCDT2.s:336    .text._ZN7WorkerDD2Ev:0000000000000000 .L0 
     /tmp/cc4yCDT2.s:338    .text._ZN7WorkerDD2Ev:0000000000000000 .L0 
     /tmp/cc4yCDT2.s:339    .text._ZN7WorkerDD2Ev:0000000000000004 .L0 
     /tmp/cc4yCDT2.s:342    .text._ZN7WorkerDD2Ev:000000000000000c .L0 
     /tmp/cc4yCDT2.s:343    .text._ZN7WorkerDD2Ev:000000000000000c .L0 
     /tmp/cc4yCDT2.s:345    .text._ZN7WorkerDD2Ev:0000000000000010 .L0 
     /tmp/cc4yCDT2.s:1562   .data.rel.ro.local._ZTV7WorkerD:0000000000000000 _ZTV7WorkerD
     /tmp/cc4yCDT2.s:348    .text._ZN7WorkerDD2Ev:0000000000000010 .L0 
     /tmp/cc4yCDT2.s:354    .text._ZN7WorkerDD2Ev:0000000000000028 .L0 
     /tmp/cc4yCDT2.s:356    .text._ZN7WorkerDD2Ev:000000000000002c .L0 
     /tmp/cc4yCDT2.s:357    .text._ZN7WorkerDD2Ev:000000000000002c .L0 
     /tmp/cc4yCDT2.s:359    .text._ZN7WorkerDD2Ev:0000000000000030 .L0 
     /tmp/cc4yCDT2.s:361    .text._ZN7WorkerDD2Ev:0000000000000034 .L0 
     /tmp/cc4yCDT2.s:333    .text._ZN7WorkerDD2Ev:0000000000000000 _ZN7WorkerDD1Ev
     /tmp/cc4yCDT2.s:370    .text._ZN7WorkerDD0Ev:0000000000000000 _ZN7WorkerDD0Ev
     /tmp/cc4yCDT2.s:373    .text._ZN7WorkerDD0Ev:0000000000000000 .L0 
     /tmp/cc4yCDT2.s:375    .text._ZN7WorkerDD0Ev:0000000000000000 .L0 
     /tmp/cc4yCDT2.s:376    .text._ZN7WorkerDD0Ev:0000000000000004 .L0 
     /tmp/cc4yCDT2.s:380    .text._ZN7WorkerDD0Ev:0000000000000010 .L0 
     /tmp/cc4yCDT2.s:381    .text._ZN7WorkerDD0Ev:0000000000000010 .L0 
     /tmp/cc4yCDT2.s:382    .text._ZN7WorkerDD0Ev:0000000000000010 .L0 
     /tmp/cc4yCDT2.s:384    .text._ZN7WorkerDD0Ev:0000000000000014 .L0 
     /tmp/cc4yCDT2.s:390    .text._ZN7WorkerDD0Ev:0000000000000018 .L0 
     /tmp/cc4yCDT2.s:400    .text._ZN7WorkerDD0Ev:000000000000003c .L0 
     /tmp/cc4yCDT2.s:402    .text._ZN7WorkerDD0Ev:0000000000000040 .L0 
     /tmp/cc4yCDT2.s:403    .text._ZN7WorkerDD0Ev:0000000000000040 .L0 
     /tmp/cc4yCDT2.s:405    .text._ZN7WorkerDD0Ev:0000000000000044 .L0 
     /tmp/cc4yCDT2.s:408    .text._ZN7WorkerDD0Ev:0000000000000048 .L0 
     /tmp/cc4yCDT2.s:410    .text._ZN7WorkerDD0Ev:000000000000004c .L0 
     /tmp/cc4yCDT2.s:427    .text:0000000000000074 _ZN7WorkerA11workerBodyAEPv
     /tmp/cc4yCDT2.s:430    .text:0000000000000074 .L0 
     /tmp/cc4yCDT2.s:432    .text:0000000000000074 .L0 
     /tmp/cc4yCDT2.s:433    .text:0000000000000078 .L0 
     /tmp/cc4yCDT2.s:438    .text:0000000000000088 .L0 
     /tmp/cc4yCDT2.s:439    .text:0000000000000088 .L0 
     /tmp/cc4yCDT2.s:440    .text:0000000000000088 .L0 
     /tmp/cc4yCDT2.s:441    .text:0000000000000088 .L0 
     /tmp/cc4yCDT2.s:443    .text:000000000000008c .L0 
     /tmp/cc4yCDT2.s:447    .text:000000000000008c .L0 
     /tmp/cc4yCDT2.s:448    .text:000000000000008c .L0 
     /tmp/cc4yCDT2.s:456    .text:0000000000000094 .L0 
     /tmp/cc4yCDT2.s:457    .text:0000000000000094 .L0 
     /tmp/cc4yCDT2.s:461    .text:000000000000009c .L0 
     /tmp/cc4yCDT2.s:465    .text:00000000000000a0 .L0 
     /tmp/cc4yCDT2.s:471    .text:00000000000000ac .L0 
     /tmp/cc4yCDT2.s:475    .text:00000000000000b0 .L0 
     /tmp/cc4yCDT2.s:479    .text:00000000000000bc .L0 
     /tmp/cc4yCDT2.s:489    .text:00000000000000c4 .L0 
     /tmp/cc4yCDT2.s:493    .text:00000000000000c8 .L0 
GAS LISTING /tmp/cc4yCDT2.s 			page 39


     /tmp/cc4yCDT2.s:497    .text:00000000000000d0 .L0 
     /tmp/cc4yCDT2.s:498    .text:00000000000000d0 .L0 
     /tmp/cc4yCDT2.s:502    .text:00000000000000e0 .L0 
     /tmp/cc4yCDT2.s:503    .text:00000000000000e0 .L0 
     /tmp/cc4yCDT2.s:509    .text:00000000000000f4 .L0 
     /tmp/cc4yCDT2.s:510    .text:00000000000000f4 .L0 
     /tmp/cc4yCDT2.s:515    .text:0000000000000104 .L0 
     /tmp/cc4yCDT2.s:516    .text:0000000000000104 .L0 
     /tmp/cc4yCDT2.s:524    .text:000000000000010c .L0 
     /tmp/cc4yCDT2.s:525    .text:000000000000010c .L0 
     /tmp/cc4yCDT2.s:529    .text:000000000000011c .L0 
     /tmp/cc4yCDT2.s:530    .text:000000000000011c .L0 
     /tmp/cc4yCDT2.s:533    .text:0000000000000128 .L0 
     /tmp/cc4yCDT2.s:534    .text:000000000000012c .L0 
     /tmp/cc4yCDT2.s:536    .text:0000000000000130 .L0 
     /tmp/cc4yCDT2.s:537    .text:0000000000000130 .L0 
     /tmp/cc4yCDT2.s:539    .text:0000000000000134 .L0 
     /tmp/cc4yCDT2.s:541    .text:0000000000000138 .L0 
     /tmp/cc4yCDT2.s:544    .text:000000000000013c .L0 
     /tmp/cc4yCDT2.s:546    .text:0000000000000140 .L0 
     /tmp/cc4yCDT2.s:553    .text._ZN7WorkerA3runEv:0000000000000000 _ZN7WorkerA3runEv
     /tmp/cc4yCDT2.s:556    .text._ZN7WorkerA3runEv:0000000000000000 .L0 
     /tmp/cc4yCDT2.s:558    .text._ZN7WorkerA3runEv:0000000000000000 .L0 
     /tmp/cc4yCDT2.s:559    .text._ZN7WorkerA3runEv:0000000000000004 .L0 
     /tmp/cc4yCDT2.s:562    .text._ZN7WorkerA3runEv:000000000000000c .L0 
     /tmp/cc4yCDT2.s:563    .text._ZN7WorkerA3runEv:000000000000000c .L0 
     /tmp/cc4yCDT2.s:565    .text._ZN7WorkerA3runEv:0000000000000010 .L0 
     /tmp/cc4yCDT2.s:567    .text._ZN7WorkerA3runEv:0000000000000010 .L0 
     /tmp/cc4yCDT2.s:568    .text._ZN7WorkerA3runEv:0000000000000010 .L0 
     /tmp/cc4yCDT2.s:572    .text._ZN7WorkerA3runEv:000000000000001c .L0 
     /tmp/cc4yCDT2.s:573    .text._ZN7WorkerA3runEv:0000000000000020 .L0 
     /tmp/cc4yCDT2.s:575    .text._ZN7WorkerA3runEv:0000000000000024 .L0 
     /tmp/cc4yCDT2.s:576    .text._ZN7WorkerA3runEv:0000000000000024 .L0 
     /tmp/cc4yCDT2.s:578    .text._ZN7WorkerA3runEv:0000000000000028 .L0 
     /tmp/cc4yCDT2.s:580    .text._ZN7WorkerA3runEv:000000000000002c .L0 
     /tmp/cc4yCDT2.s:594    .text:0000000000000140 _ZN7WorkerB11workerBodyBEPv
     /tmp/cc4yCDT2.s:597    .text:0000000000000140 .L0 
     /tmp/cc4yCDT2.s:599    .text:0000000000000140 .L0 
     /tmp/cc4yCDT2.s:600    .text:0000000000000144 .L0 
     /tmp/cc4yCDT2.s:605    .text:0000000000000154 .L0 
     /tmp/cc4yCDT2.s:606    .text:0000000000000154 .L0 
     /tmp/cc4yCDT2.s:607    .text:0000000000000154 .L0 
     /tmp/cc4yCDT2.s:608    .text:0000000000000154 .L0 
     /tmp/cc4yCDT2.s:610    .text:0000000000000158 .L0 
     /tmp/cc4yCDT2.s:614    .text:0000000000000158 .L0 
     /tmp/cc4yCDT2.s:615    .text:0000000000000158 .L0 
     /tmp/cc4yCDT2.s:623    .text:0000000000000160 .L0 
     /tmp/cc4yCDT2.s:624    .text:0000000000000160 .L0 
     /tmp/cc4yCDT2.s:628    .text:0000000000000168 .L0 
     /tmp/cc4yCDT2.s:632    .text:000000000000016c .L0 
     /tmp/cc4yCDT2.s:638    .text:0000000000000178 .L0 
     /tmp/cc4yCDT2.s:642    .text:000000000000017c .L0 
     /tmp/cc4yCDT2.s:646    .text:0000000000000188 .L0 
     /tmp/cc4yCDT2.s:656    .text:0000000000000190 .L0 
     /tmp/cc4yCDT2.s:660    .text:0000000000000194 .L0 
     /tmp/cc4yCDT2.s:664    .text:000000000000019c .L0 
     /tmp/cc4yCDT2.s:665    .text:000000000000019c .L0 
GAS LISTING /tmp/cc4yCDT2.s 			page 40


     /tmp/cc4yCDT2.s:669    .text:00000000000001ac .L0 
     /tmp/cc4yCDT2.s:670    .text:00000000000001ac .L0 
     /tmp/cc4yCDT2.s:676    .text:00000000000001c0 .L0 
     /tmp/cc4yCDT2.s:677    .text:00000000000001c0 .L0 
     /tmp/cc4yCDT2.s:682    .text:00000000000001d0 .L0 
     /tmp/cc4yCDT2.s:683    .text:00000000000001d0 .L0 
     /tmp/cc4yCDT2.s:691    .text:00000000000001d8 .L0 
     /tmp/cc4yCDT2.s:692    .text:00000000000001d8 .L0 
     /tmp/cc4yCDT2.s:696    .text:00000000000001e8 .L0 
     /tmp/cc4yCDT2.s:697    .text:00000000000001e8 .L0 
     /tmp/cc4yCDT2.s:700    .text:00000000000001f4 .L0 
     /tmp/cc4yCDT2.s:701    .text:00000000000001f4 .L0 
     /tmp/cc4yCDT2.s:704    .text:00000000000001fc .L0 
     /tmp/cc4yCDT2.s:705    .text:0000000000000200 .L0 
     /tmp/cc4yCDT2.s:707    .text:0000000000000204 .L0 
     /tmp/cc4yCDT2.s:708    .text:0000000000000204 .L0 
     /tmp/cc4yCDT2.s:710    .text:0000000000000208 .L0 
     /tmp/cc4yCDT2.s:712    .text:000000000000020c .L0 
     /tmp/cc4yCDT2.s:715    .text:0000000000000210 .L0 
     /tmp/cc4yCDT2.s:717    .text:0000000000000214 .L0 
     /tmp/cc4yCDT2.s:724    .text._ZN7WorkerB3runEv:0000000000000000 _ZN7WorkerB3runEv
     /tmp/cc4yCDT2.s:727    .text._ZN7WorkerB3runEv:0000000000000000 .L0 
     /tmp/cc4yCDT2.s:729    .text._ZN7WorkerB3runEv:0000000000000000 .L0 
     /tmp/cc4yCDT2.s:730    .text._ZN7WorkerB3runEv:0000000000000004 .L0 
     /tmp/cc4yCDT2.s:733    .text._ZN7WorkerB3runEv:000000000000000c .L0 
     /tmp/cc4yCDT2.s:734    .text._ZN7WorkerB3runEv:000000000000000c .L0 
     /tmp/cc4yCDT2.s:736    .text._ZN7WorkerB3runEv:0000000000000010 .L0 
     /tmp/cc4yCDT2.s:738    .text._ZN7WorkerB3runEv:0000000000000010 .L0 
     /tmp/cc4yCDT2.s:739    .text._ZN7WorkerB3runEv:0000000000000010 .L0 
     /tmp/cc4yCDT2.s:743    .text._ZN7WorkerB3runEv:000000000000001c .L0 
     /tmp/cc4yCDT2.s:744    .text._ZN7WorkerB3runEv:0000000000000020 .L0 
     /tmp/cc4yCDT2.s:746    .text._ZN7WorkerB3runEv:0000000000000024 .L0 
     /tmp/cc4yCDT2.s:747    .text._ZN7WorkerB3runEv:0000000000000024 .L0 
     /tmp/cc4yCDT2.s:749    .text._ZN7WorkerB3runEv:0000000000000028 .L0 
     /tmp/cc4yCDT2.s:751    .text._ZN7WorkerB3runEv:000000000000002c .L0 
     /tmp/cc4yCDT2.s:771    .text:0000000000000214 _ZN7WorkerC11workerBodyCEPv
     /tmp/cc4yCDT2.s:774    .text:0000000000000214 .L0 
     /tmp/cc4yCDT2.s:776    .text:0000000000000214 .L0 
     /tmp/cc4yCDT2.s:777    .text:0000000000000218 .L0 
     /tmp/cc4yCDT2.s:782    .text:0000000000000228 .L0 
     /tmp/cc4yCDT2.s:783    .text:0000000000000228 .L0 
     /tmp/cc4yCDT2.s:784    .text:0000000000000228 .L0 
     /tmp/cc4yCDT2.s:785    .text:0000000000000228 .L0 
     /tmp/cc4yCDT2.s:787    .text:000000000000022c .L0 
     /tmp/cc4yCDT2.s:790    .text:000000000000022c .L0 
     /tmp/cc4yCDT2.s:791    .text:000000000000022c .L0 
     /tmp/cc4yCDT2.s:796    .text:0000000000000234 .L0 
     /tmp/cc4yCDT2.s:797    .text:0000000000000234 .L0 
     /tmp/cc4yCDT2.s:801    .text:0000000000000244 .L0 
     /tmp/cc4yCDT2.s:802    .text:0000000000000244 .L0 
     /tmp/cc4yCDT2.s:808    .text:0000000000000258 .L0 
     /tmp/cc4yCDT2.s:809    .text:0000000000000258 .L0 
     /tmp/cc4yCDT2.s:813    .text:0000000000000268 .L0 
     /tmp/cc4yCDT2.s:819    .text:0000000000000270 .L0 
     /tmp/cc4yCDT2.s:820    .text:0000000000000270 .L0 
     /tmp/cc4yCDT2.s:823    .text:0000000000000278 .L0 
     /tmp/cc4yCDT2.s:824    .text:0000000000000278 .L0 
GAS LISTING /tmp/cc4yCDT2.s 			page 41


     /tmp/cc4yCDT2.s:828    .text:0000000000000288 .L0 
test/Threads_CPP_API_test.cpp:91     .text:0000000000000288 .L0 
     /tmp/cc4yCDT2.s:834    .text:000000000000028c .L0 
     /tmp/cc4yCDT2.s:836    .text:000000000000028c .L0 
     /tmp/cc4yCDT2.s:839    .text:0000000000000294 .L0 
     /tmp/cc4yCDT2.s:840    .text:0000000000000294 .L0 
test/Threads_CPP_API_test.cpp:95     .text:0000000000000294 .L0 
     /tmp/cc4yCDT2.s:847    .text:0000000000000298 .L0 
     /tmp/cc4yCDT2.s:849    .text:0000000000000298 .L0 
     /tmp/cc4yCDT2.s:853    .text:00000000000002a8 .L0 
     /tmp/cc4yCDT2.s:854    .text:00000000000002a8 .L0 
     /tmp/cc4yCDT2.s:860    .text:00000000000002bc .L0 
     /tmp/cc4yCDT2.s:861    .text:00000000000002bc .L0 
     /tmp/cc4yCDT2.s:865    .text:00000000000002cc .L0 
     /tmp/cc4yCDT2.s:866    .text:00000000000002cc .L0 
     /tmp/cc4yCDT2.s:872    .text:00000000000002dc .L0 
     /tmp/cc4yCDT2.s:873    .text:00000000000002dc .L0 
     /tmp/cc4yCDT2.s:878    .text:00000000000002ec .L0 
     /tmp/cc4yCDT2.s:879    .text:00000000000002ec .L0 
     /tmp/cc4yCDT2.s:885    .text:0000000000000300 .L0 
     /tmp/cc4yCDT2.s:886    .text:0000000000000300 .L0 
     /tmp/cc4yCDT2.s:892    .text:0000000000000314 .L0 
     /tmp/cc4yCDT2.s:893    .text:0000000000000314 .L0 
     /tmp/cc4yCDT2.s:897    .text:0000000000000324 .L0 
     /tmp/cc4yCDT2.s:898    .text:0000000000000324 .L0 
     /tmp/cc4yCDT2.s:904    .text:0000000000000338 .L0 
     /tmp/cc4yCDT2.s:905    .text:0000000000000338 .L0 
     /tmp/cc4yCDT2.s:909    .text:0000000000000348 .L0 
     /tmp/cc4yCDT2.s:915    .text:0000000000000350 .L0 
     /tmp/cc4yCDT2.s:916    .text:0000000000000350 .L0 
     /tmp/cc4yCDT2.s:919    .text:0000000000000358 .L0 
     /tmp/cc4yCDT2.s:920    .text:0000000000000358 .L0 
     /tmp/cc4yCDT2.s:926    .text:000000000000036c .L0 
     /tmp/cc4yCDT2.s:927    .text:000000000000036c .L0 
     /tmp/cc4yCDT2.s:931    .text:000000000000037c .L0 
     /tmp/cc4yCDT2.s:932    .text:000000000000037c .L0 
     /tmp/cc4yCDT2.s:935    .text:0000000000000384 .L0 
     /tmp/cc4yCDT2.s:936    .text:0000000000000384 .L0 
     /tmp/cc4yCDT2.s:939    .text:000000000000038c .L0 
     /tmp/cc4yCDT2.s:940    .text:0000000000000390 .L0 
     /tmp/cc4yCDT2.s:942    .text:0000000000000394 .L0 
     /tmp/cc4yCDT2.s:943    .text:0000000000000394 .L0 
     /tmp/cc4yCDT2.s:945    .text:0000000000000398 .L0 
     /tmp/cc4yCDT2.s:947    .text:000000000000039c .L0 
     /tmp/cc4yCDT2.s:950    .text:00000000000003a0 .L0 
     /tmp/cc4yCDT2.s:952    .text:00000000000003a4 .L0 
     /tmp/cc4yCDT2.s:959    .text._ZN7WorkerC3runEv:0000000000000000 _ZN7WorkerC3runEv
     /tmp/cc4yCDT2.s:962    .text._ZN7WorkerC3runEv:0000000000000000 .L0 
     /tmp/cc4yCDT2.s:964    .text._ZN7WorkerC3runEv:0000000000000000 .L0 
     /tmp/cc4yCDT2.s:965    .text._ZN7WorkerC3runEv:0000000000000004 .L0 
     /tmp/cc4yCDT2.s:968    .text._ZN7WorkerC3runEv:000000000000000c .L0 
     /tmp/cc4yCDT2.s:969    .text._ZN7WorkerC3runEv:000000000000000c .L0 
     /tmp/cc4yCDT2.s:971    .text._ZN7WorkerC3runEv:0000000000000010 .L0 
     /tmp/cc4yCDT2.s:973    .text._ZN7WorkerC3runEv:0000000000000010 .L0 
     /tmp/cc4yCDT2.s:974    .text._ZN7WorkerC3runEv:0000000000000010 .L0 
     /tmp/cc4yCDT2.s:978    .text._ZN7WorkerC3runEv:000000000000001c .L0 
     /tmp/cc4yCDT2.s:979    .text._ZN7WorkerC3runEv:0000000000000020 .L0 
GAS LISTING /tmp/cc4yCDT2.s 			page 42


     /tmp/cc4yCDT2.s:981    .text._ZN7WorkerC3runEv:0000000000000024 .L0 
     /tmp/cc4yCDT2.s:982    .text._ZN7WorkerC3runEv:0000000000000024 .L0 
     /tmp/cc4yCDT2.s:984    .text._ZN7WorkerC3runEv:0000000000000028 .L0 
     /tmp/cc4yCDT2.s:986    .text._ZN7WorkerC3runEv:000000000000002c .L0 
     /tmp/cc4yCDT2.s:1006   .text:00000000000003a4 _ZN7WorkerD11workerBodyDEPv
     /tmp/cc4yCDT2.s:1009   .text:00000000000003a4 .L0 
     /tmp/cc4yCDT2.s:1011   .text:00000000000003a4 .L0 
     /tmp/cc4yCDT2.s:1012   .text:00000000000003a8 .L0 
     /tmp/cc4yCDT2.s:1017   .text:00000000000003b8 .L0 
     /tmp/cc4yCDT2.s:1018   .text:00000000000003b8 .L0 
     /tmp/cc4yCDT2.s:1019   .text:00000000000003b8 .L0 
     /tmp/cc4yCDT2.s:1020   .text:00000000000003b8 .L0 
     /tmp/cc4yCDT2.s:1022   .text:00000000000003bc .L0 
     /tmp/cc4yCDT2.s:1025   .text:00000000000003bc .L0 
     /tmp/cc4yCDT2.s:1026   .text:00000000000003bc .L0 
     /tmp/cc4yCDT2.s:1031   .text:00000000000003c4 .L0 
     /tmp/cc4yCDT2.s:1032   .text:00000000000003c4 .L0 
     /tmp/cc4yCDT2.s:1036   .text:00000000000003d4 .L0 
     /tmp/cc4yCDT2.s:1037   .text:00000000000003d4 .L0 
     /tmp/cc4yCDT2.s:1043   .text:00000000000003e8 .L0 
     /tmp/cc4yCDT2.s:1044   .text:00000000000003e8 .L0 
     /tmp/cc4yCDT2.s:1048   .text:00000000000003f8 .L0 
     /tmp/cc4yCDT2.s:1054   .text:0000000000000400 .L0 
     /tmp/cc4yCDT2.s:1055   .text:0000000000000400 .L0 
     /tmp/cc4yCDT2.s:1058   .text:0000000000000408 .L0 
     /tmp/cc4yCDT2.s:1059   .text:0000000000000408 .L0 
     /tmp/cc4yCDT2.s:1063   .text:0000000000000418 .L0 
test/Threads_CPP_API_test.cpp:118    .text:0000000000000418 .L0 
     /tmp/cc4yCDT2.s:1069   .text:000000000000041c .L0 
     /tmp/cc4yCDT2.s:1071   .text:000000000000041c .L0 
     /tmp/cc4yCDT2.s:1074   .text:0000000000000424 .L0 
     /tmp/cc4yCDT2.s:1075   .text:0000000000000424 .L0 
     /tmp/cc4yCDT2.s:1081   .text:0000000000000434 .L0 
     /tmp/cc4yCDT2.s:1082   .text:0000000000000434 .L0 
     /tmp/cc4yCDT2.s:1087   .text:0000000000000444 .L0 
     /tmp/cc4yCDT2.s:1088   .text:0000000000000444 .L0 
     /tmp/cc4yCDT2.s:1094   .text:0000000000000458 .L0 
     /tmp/cc4yCDT2.s:1095   .text:0000000000000458 .L0 
     /tmp/cc4yCDT2.s:1101   .text:000000000000046c .L0 
     /tmp/cc4yCDT2.s:1102   .text:000000000000046c .L0 
     /tmp/cc4yCDT2.s:1106   .text:000000000000047c .L0 
     /tmp/cc4yCDT2.s:1107   .text:000000000000047c .L0 
     /tmp/cc4yCDT2.s:1113   .text:0000000000000490 .L0 
     /tmp/cc4yCDT2.s:1114   .text:0000000000000490 .L0 
     /tmp/cc4yCDT2.s:1118   .text:00000000000004a0 .L0 
     /tmp/cc4yCDT2.s:1124   .text:00000000000004a8 .L0 
     /tmp/cc4yCDT2.s:1125   .text:00000000000004a8 .L0 
     /tmp/cc4yCDT2.s:1128   .text:00000000000004b0 .L0 
     /tmp/cc4yCDT2.s:1129   .text:00000000000004b0 .L0 
     /tmp/cc4yCDT2.s:1135   .text:00000000000004c4 .L0 
     /tmp/cc4yCDT2.s:1136   .text:00000000000004c4 .L0 
     /tmp/cc4yCDT2.s:1140   .text:00000000000004d4 .L0 
     /tmp/cc4yCDT2.s:1141   .text:00000000000004d4 .L0 
     /tmp/cc4yCDT2.s:1144   .text:00000000000004dc .L0 
     /tmp/cc4yCDT2.s:1145   .text:00000000000004dc .L0 
     /tmp/cc4yCDT2.s:1148   .text:00000000000004e4 .L0 
     /tmp/cc4yCDT2.s:1149   .text:00000000000004e8 .L0 
GAS LISTING /tmp/cc4yCDT2.s 			page 43


     /tmp/cc4yCDT2.s:1151   .text:00000000000004ec .L0 
     /tmp/cc4yCDT2.s:1152   .text:00000000000004ec .L0 
     /tmp/cc4yCDT2.s:1154   .text:00000000000004f0 .L0 
     /tmp/cc4yCDT2.s:1156   .text:00000000000004f4 .L0 
     /tmp/cc4yCDT2.s:1159   .text:00000000000004f8 .L0 
     /tmp/cc4yCDT2.s:1161   .text:00000000000004fc .L0 
     /tmp/cc4yCDT2.s:1168   .text._ZN7WorkerD3runEv:0000000000000000 _ZN7WorkerD3runEv
     /tmp/cc4yCDT2.s:1171   .text._ZN7WorkerD3runEv:0000000000000000 .L0 
     /tmp/cc4yCDT2.s:1173   .text._ZN7WorkerD3runEv:0000000000000000 .L0 
     /tmp/cc4yCDT2.s:1174   .text._ZN7WorkerD3runEv:0000000000000004 .L0 
     /tmp/cc4yCDT2.s:1177   .text._ZN7WorkerD3runEv:000000000000000c .L0 
     /tmp/cc4yCDT2.s:1178   .text._ZN7WorkerD3runEv:000000000000000c .L0 
     /tmp/cc4yCDT2.s:1180   .text._ZN7WorkerD3runEv:0000000000000010 .L0 
     /tmp/cc4yCDT2.s:1182   .text._ZN7WorkerD3runEv:0000000000000010 .L0 
     /tmp/cc4yCDT2.s:1183   .text._ZN7WorkerD3runEv:0000000000000010 .L0 
     /tmp/cc4yCDT2.s:1187   .text._ZN7WorkerD3runEv:000000000000001c .L0 
     /tmp/cc4yCDT2.s:1188   .text._ZN7WorkerD3runEv:0000000000000020 .L0 
     /tmp/cc4yCDT2.s:1190   .text._ZN7WorkerD3runEv:0000000000000024 .L0 
     /tmp/cc4yCDT2.s:1191   .text._ZN7WorkerD3runEv:0000000000000024 .L0 
     /tmp/cc4yCDT2.s:1193   .text._ZN7WorkerD3runEv:0000000000000028 .L0 
     /tmp/cc4yCDT2.s:1195   .text._ZN7WorkerD3runEv:000000000000002c .L0 
     /tmp/cc4yCDT2.s:1215   .text:00000000000004fc _Z20Threads_CPP_API_testv
     /tmp/cc4yCDT2.s:1218   .text:00000000000004fc .L0 
     /tmp/cc4yCDT2.s:5466   .data.rel.local.DW.ref.__gxx_personality_v0:0000000000000000 DW.ref.__gxx_personality_v0
     /tmp/cc4yCDT2.s:1221   .text:00000000000004fc .L0 
     /tmp/cc4yCDT2.s:1222   .text:0000000000000500 .L0 
     /tmp/cc4yCDT2.s:1227   .text:0000000000000510 .L0 
     /tmp/cc4yCDT2.s:1228   .text:0000000000000510 .L0 
     /tmp/cc4yCDT2.s:1229   .text:0000000000000510 .L0 
     /tmp/cc4yCDT2.s:1230   .text:0000000000000510 .L0 
     /tmp/cc4yCDT2.s:1232   .text:0000000000000514 .L0 
     /tmp/cc4yCDT2.s:1234   .text:0000000000000514 .L0 
     /tmp/cc4yCDT2.s:1235   .text:0000000000000514 .L0 
     /tmp/cc4yCDT2.s:1236   .text:0000000000000514 .L0 
     /tmp/cc4yCDT2.s:1247   .text:0000000000000524 .L0 
     /tmp/cc4yCDT2.s:1256   .text:0000000000000538 .L0 
     /tmp/cc4yCDT2.s:1258   .text:000000000000053c .L0 
     /tmp/cc4yCDT2.s:1259   .text:000000000000053c .L0 
     /tmp/cc4yCDT2.s:1264   .text:000000000000054c .L0 
     /tmp/cc4yCDT2.s:1265   .text:000000000000054c .L0 
     /tmp/cc4yCDT2.s:1268   .text:0000000000000558 .L0 
     /tmp/cc4yCDT2.s:1269   .text:0000000000000558 .L0 
     /tmp/cc4yCDT2.s:1279   .text:0000000000000568 .L0 
     /tmp/cc4yCDT2.s:1288   .text:000000000000057c .L0 
     /tmp/cc4yCDT2.s:1290   .text:0000000000000580 .L0 
     /tmp/cc4yCDT2.s:1291   .text:0000000000000580 .L0 
     /tmp/cc4yCDT2.s:1296   .text:0000000000000590 .L0 
     /tmp/cc4yCDT2.s:1297   .text:0000000000000590 .L0 
     /tmp/cc4yCDT2.s:1307   .text:00000000000005a0 .L0 
     /tmp/cc4yCDT2.s:1316   .text:00000000000005b4 .L0 
     /tmp/cc4yCDT2.s:1318   .text:00000000000005b8 .L0 
     /tmp/cc4yCDT2.s:1319   .text:00000000000005b8 .L0 
     /tmp/cc4yCDT2.s:1324   .text:00000000000005c8 .L0 
     /tmp/cc4yCDT2.s:1325   .text:00000000000005c8 .L0 
     /tmp/cc4yCDT2.s:1335   .text:00000000000005d8 .L0 
     /tmp/cc4yCDT2.s:1344   .text:00000000000005ec .L0 
     /tmp/cc4yCDT2.s:1346   .text:00000000000005f0 .L0 
GAS LISTING /tmp/cc4yCDT2.s 			page 44


     /tmp/cc4yCDT2.s:1347   .text:00000000000005f0 .L0 
     /tmp/cc4yCDT2.s:1353   .text:0000000000000600 .L0 
     /tmp/cc4yCDT2.s:1357   .text:0000000000000604 .L0 
     /tmp/cc4yCDT2.s:1360   .text:000000000000060c .L0 
     /tmp/cc4yCDT2.s:1361   .text:000000000000060c .L0 
     /tmp/cc4yCDT2.s:1365   .text:0000000000000618 .L0 
     /tmp/cc4yCDT2.s:1369   .text:0000000000000624 .L0 
     /tmp/cc4yCDT2.s:1376   .text:000000000000062c .L0 
     /tmp/cc4yCDT2.s:1377   .text:000000000000062c .L0 
     /tmp/cc4yCDT2.s:1381   .text:0000000000000634 .L0 
     /tmp/cc4yCDT2.s:1382   .text:0000000000000634 .L0 
     /tmp/cc4yCDT2.s:1383   .text:0000000000000634 .L0 
     /tmp/cc4yCDT2.s:1385   .text:000000000000063c .L0 
     /tmp/cc4yCDT2.s:1387   .text:0000000000000640 .L0 
     /tmp/cc4yCDT2.s:1389   .text:0000000000000648 .L0 
     /tmp/cc4yCDT2.s:1391   .text:000000000000064c .L0 
     /tmp/cc4yCDT2.s:1393   .text:0000000000000654 .L0 
     /tmp/cc4yCDT2.s:1395   .text:0000000000000658 .L0 
     /tmp/cc4yCDT2.s:1397   .text:0000000000000660 .L0 
     /tmp/cc4yCDT2.s:1405   .text:000000000000066c .L0 
     /tmp/cc4yCDT2.s:1409   .text:0000000000000670 .L0 
     /tmp/cc4yCDT2.s:1412   .text:0000000000000678 .L0 
     /tmp/cc4yCDT2.s:1415   .text:000000000000067c .L0 
     /tmp/cc4yCDT2.s:1416   .text:000000000000067c .L0 
     /tmp/cc4yCDT2.s:1418   .text:0000000000000680 .L0 
     /tmp/cc4yCDT2.s:1428   .text:0000000000000694 .L0 
     /tmp/cc4yCDT2.s:1437   .text:00000000000006b0 .L0 
     /tmp/cc4yCDT2.s:1446   .text:00000000000006cc .L0 
     /tmp/cc4yCDT2.s:1455   .text:00000000000006e8 .L0 
     /tmp/cc4yCDT2.s:1464   .text:0000000000000700 .L0 
     /tmp/cc4yCDT2.s:1465   .text:0000000000000704 .L0 
     /tmp/cc4yCDT2.s:1467   .text:0000000000000708 .L0 
     /tmp/cc4yCDT2.s:1468   .text:0000000000000708 .L0 
     /tmp/cc4yCDT2.s:1470   .text:000000000000070c .L0 
     /tmp/cc4yCDT2.s:1473   .text:0000000000000710 .L0 
     /tmp/cc4yCDT2.s:1475   .text:0000000000000714 .L0 
     /tmp/cc4yCDT2.s:1477   .text:0000000000000718 .L0 
     /tmp/cc4yCDT2.s:1570   .bss:0000000000000000 .LANCHOR0
     /tmp/cc4yCDT2.s:1573   .bss:0000000000000000 _ZL9finishedA
     /tmp/cc4yCDT2.s:1577   .bss:0000000000000001 _ZL9finishedB
     /tmp/cc4yCDT2.s:1582   .bss:0000000000000008 _ZL1a
     /tmp/cc4yCDT2.s:1586   .bss:0000000000000010 _ZL9finishedC
     /tmp/cc4yCDT2.s:1590   .bss:0000000000000011 _ZL9finishedD
     /tmp/cc4yCDT2.s:1598   .text:0000000000000718 .L0 
     /tmp/cc4yCDT2.s:114    .text._ZN7WorkerAD2Ev:0000000000000034 .L0 
     /tmp/cc4yCDT2.s:161    .text._ZN7WorkerAD0Ev:000000000000004c .L0 
     /tmp/cc4yCDT2.s:198    .text._ZN7WorkerBD2Ev:0000000000000034 .L0 
     /tmp/cc4yCDT2.s:245    .text._ZN7WorkerBD0Ev:000000000000004c .L0 
     /tmp/cc4yCDT2.s:282    .text._ZN7WorkerCD2Ev:0000000000000034 .L0 
     /tmp/cc4yCDT2.s:329    .text._ZN7WorkerCD0Ev:000000000000004c .L0 
     /tmp/cc4yCDT2.s:366    .text._ZN7WorkerDD2Ev:0000000000000034 .L0 
     /tmp/cc4yCDT2.s:413    .text._ZN7WorkerDD0Ev:000000000000004c .L0 
     /tmp/cc4yCDT2.s:583    .text._ZN7WorkerA3runEv:000000000000002c .L0 
     /tmp/cc4yCDT2.s:754    .text._ZN7WorkerB3runEv:000000000000002c .L0 
     /tmp/cc4yCDT2.s:989    .text._ZN7WorkerC3runEv:000000000000002c .L0 
     /tmp/cc4yCDT2.s:1198   .text._ZN7WorkerD3runEv:000000000000002c .L0 
     /tmp/cc4yCDT2.s:415    .rodata.str1.8:0000000000000000 .LC0
GAS LISTING /tmp/cc4yCDT2.s 			page 45


     /tmp/cc4yCDT2.s:498    .text:00000000000000d0 .L0 
     /tmp/cc4yCDT2.s:418    .rodata.str1.8:0000000000000008 .LC1
     /tmp/cc4yCDT2.s:510    .text:00000000000000f4 .L0 
     /tmp/cc4yCDT2.s:421    .rodata.str1.8:0000000000000010 .LC2
     /tmp/cc4yCDT2.s:525    .text:000000000000010c .L0 
     /tmp/cc4yCDT2.s:531    .text:0000000000000120 .L0 
     /tmp/cc4yCDT2.s:585    .rodata.str1.8:0000000000000020 .LC3
     /tmp/cc4yCDT2.s:665    .text:000000000000019c .L0 
     /tmp/cc4yCDT2.s:677    .text:00000000000001c0 .L0 
     /tmp/cc4yCDT2.s:588    .rodata.str1.8:0000000000000028 .LC4
     /tmp/cc4yCDT2.s:692    .text:00000000000001d8 .L0 
     /tmp/cc4yCDT2.s:698    .text:00000000000001ec .L0 
     /tmp/cc4yCDT2.s:756    .rodata.str1.8:0000000000000038 .LC5
     /tmp/cc4yCDT2.s:797    .text:0000000000000234 .L0 
     /tmp/cc4yCDT2.s:809    .text:0000000000000258 .L0 
     /tmp/cc4yCDT2.s:759    .rodata.str1.8:0000000000000040 .LC6
     /tmp/cc4yCDT2.s:824    .text:0000000000000278 .L0 
     /tmp/cc4yCDT2.s:762    .rodata.str1.8:0000000000000050 .LC7
     /tmp/cc4yCDT2.s:849    .text:0000000000000298 .L0 
     /tmp/cc4yCDT2.s:861    .text:00000000000002bc .L0 
     /tmp/cc4yCDT2.s:765    .rodata.str1.8:0000000000000058 .LC8
     /tmp/cc4yCDT2.s:873    .text:00000000000002dc .L0 
     /tmp/cc4yCDT2.s:886    .text:0000000000000300 .L0 
     /tmp/cc4yCDT2.s:893    .text:0000000000000314 .L0 
     /tmp/cc4yCDT2.s:905    .text:0000000000000338 .L0 
     /tmp/cc4yCDT2.s:920    .text:0000000000000358 .L0 
     /tmp/cc4yCDT2.s:927    .text:000000000000036c .L0 
     /tmp/cc4yCDT2.s:991    .rodata.str1.8:0000000000000068 .LC9
     /tmp/cc4yCDT2.s:1032   .text:00000000000003c4 .L0 
     /tmp/cc4yCDT2.s:1044   .text:00000000000003e8 .L0 
     /tmp/cc4yCDT2.s:994    .rodata.str1.8:0000000000000070 .LC10
     /tmp/cc4yCDT2.s:1059   .text:0000000000000408 .L0 
     /tmp/cc4yCDT2.s:997    .rodata.str1.8:0000000000000080 .LC11
     /tmp/cc4yCDT2.s:1082   .text:0000000000000434 .L0 
     /tmp/cc4yCDT2.s:1095   .text:0000000000000458 .L0 
     /tmp/cc4yCDT2.s:1102   .text:000000000000046c .L0 
     /tmp/cc4yCDT2.s:1114   .text:0000000000000490 .L0 
     /tmp/cc4yCDT2.s:1129   .text:00000000000004b0 .L0 
     /tmp/cc4yCDT2.s:1000   .rodata.str1.8:0000000000000090 .LC12
     /tmp/cc4yCDT2.s:1136   .text:00000000000004c4 .L0 
     /tmp/cc4yCDT2.s:1250   .text:000000000000052c .L0 
     /tmp/cc4yCDT2.s:1200   .rodata.str1.8:00000000000000a0 .LC13
     /tmp/cc4yCDT2.s:1259   .text:000000000000053c .L0 
     /tmp/cc4yCDT2.s:1266   .text:0000000000000550 .L0 
     /tmp/cc4yCDT2.s:1282   .text:0000000000000570 .L0 
     /tmp/cc4yCDT2.s:1203   .rodata.str1.8:00000000000000b8 .LC14
     /tmp/cc4yCDT2.s:1291   .text:0000000000000580 .L0 
     /tmp/cc4yCDT2.s:1310   .text:00000000000005a8 .L0 
     /tmp/cc4yCDT2.s:1206   .rodata.str1.8:00000000000000d0 .LC15
     /tmp/cc4yCDT2.s:1319   .text:00000000000005b8 .L0 
     /tmp/cc4yCDT2.s:1338   .text:00000000000005e0 .L0 
     /tmp/cc4yCDT2.s:1209   .rodata.str1.8:00000000000000e8 .LC16
     /tmp/cc4yCDT2.s:1347   .text:00000000000005f0 .L0 
     /tmp/cc4yCDT2.s:1383   .text:0000000000000634 .L0 
     /tmp/cc4yCDT2.s:1387   .text:0000000000000640 .L0 
     /tmp/cc4yCDT2.s:1391   .text:000000000000064c .L0 
     /tmp/cc4yCDT2.s:1395   .text:0000000000000658 .L0 
GAS LISTING /tmp/cc4yCDT2.s 			page 46


     /tmp/cc4yCDT2.s:50     .text:0000000000000050 .L1
     /tmp/cc4yCDT2.s:67     .text:0000000000000068 .L6
     /tmp/cc4yCDT2.s:37     .text:0000000000000030 .L3
     /tmp/cc4yCDT2.s:491    .text:00000000000000c8 .L29
     /tmp/cc4yCDT2.s:483    .text:00000000000000c4 .L25
     /tmp/cc4yCDT2.s:451    .text:0000000000000094 .L26
     /tmp/cc4yCDT2.s:472    .text:00000000000000b0 .L27
     /tmp/cc4yCDT2.s:519    .text:000000000000010c .L24
     /tmp/cc4yCDT2.s:463    .text:00000000000000a0 .L28
     /tmp/cc4yCDT2.s:658    .text:0000000000000194 .L39
     /tmp/cc4yCDT2.s:650    .text:0000000000000190 .L35
     /tmp/cc4yCDT2.s:618    .text:0000000000000160 .L36
     /tmp/cc4yCDT2.s:639    .text:000000000000017c .L37
     /tmp/cc4yCDT2.s:686    .text:00000000000001d8 .L34
     /tmp/cc4yCDT2.s:630    .text:000000000000016c .L38
     /tmp/cc4yCDT2.s:817    .text:0000000000000270 .L45
     /tmp/cc4yCDT2.s:794    .text:0000000000000234 .L49
     /tmp/cc4yCDT2.s:913    .text:0000000000000350 .L47
     /tmp/cc4yCDT2.s:890    .text:0000000000000314 .L50
     /tmp/cc4yCDT2.s:1052   .text:0000000000000400 .L55
     /tmp/cc4yCDT2.s:1029   .text:00000000000003c4 .L59
     /tmp/cc4yCDT2.s:1122   .text:00000000000004a8 .L57
     /tmp/cc4yCDT2.s:1099   .text:000000000000046c .L60
     /tmp/cc4yCDT2.s:1379   .text:0000000000000634 .L64
     /tmp/cc4yCDT2.s:1354   .text:0000000000000604 .L65
     /tmp/cc4yCDT2.s:1373   .text:000000000000062c .L66
     /tmp/cc4yCDT2.s:1407   .text:0000000000000670 .L67
     /tmp/cc4yCDT2.s:1462   .text:0000000000000700 .L63
     /tmp/cc4yCDT2.s:1402   .text:000000000000066c .L69
     /tmp/cc4yCDT2.s:96     .text._ZN7WorkerAD2Ev:0000000000000010 .L0 
     /tmp/cc4yCDT2.s:138    .text._ZN7WorkerAD0Ev:0000000000000018 .L0 
     /tmp/cc4yCDT2.s:180    .text._ZN7WorkerBD2Ev:0000000000000010 .L0 
     /tmp/cc4yCDT2.s:222    .text._ZN7WorkerBD0Ev:0000000000000018 .L0 
     /tmp/cc4yCDT2.s:264    .text._ZN7WorkerCD2Ev:0000000000000010 .L0 
     /tmp/cc4yCDT2.s:306    .text._ZN7WorkerCD0Ev:0000000000000018 .L0 
     /tmp/cc4yCDT2.s:348    .text._ZN7WorkerDD2Ev:0000000000000010 .L0 
     /tmp/cc4yCDT2.s:390    .text._ZN7WorkerDD0Ev:0000000000000018 .L0 
     /tmp/cc4yCDT2.s:1237   .text:0000000000000518 .LEHB0
     /tmp/cc4yCDT2.s:1216   .text:00000000000004fc .LFB40
     /tmp/cc4yCDT2.s:1240   .text:0000000000000520 .LEHE0
     /tmp/cc4yCDT2.s:1243   .text:0000000000000524 .LEHB1
     /tmp/cc4yCDT2.s:1249   .text:000000000000052c .LEHE1
     /tmp/cc4yCDT2.s:1424   .text:0000000000000690 .L75
     /tmp/cc4yCDT2.s:1260   .text:0000000000000544 .LEHB2
     /tmp/cc4yCDT2.s:1272   .text:0000000000000564 .LEHE2
     /tmp/cc4yCDT2.s:1275   .text:0000000000000568 .LEHB3
     /tmp/cc4yCDT2.s:1281   .text:0000000000000570 .LEHE3
     /tmp/cc4yCDT2.s:1434   .text:00000000000006ac .L76
     /tmp/cc4yCDT2.s:1292   .text:0000000000000588 .LEHB4
     /tmp/cc4yCDT2.s:1300   .text:000000000000059c .LEHE4
     /tmp/cc4yCDT2.s:1303   .text:00000000000005a0 .LEHB5
     /tmp/cc4yCDT2.s:1309   .text:00000000000005a8 .LEHE5
     /tmp/cc4yCDT2.s:1443   .text:00000000000006c8 .L77
     /tmp/cc4yCDT2.s:1320   .text:00000000000005c0 .LEHB6
     /tmp/cc4yCDT2.s:1328   .text:00000000000005d4 .LEHE6
     /tmp/cc4yCDT2.s:1331   .text:00000000000005d8 .LEHB7
     /tmp/cc4yCDT2.s:1337   .text:00000000000005e0 .LEHE7
GAS LISTING /tmp/cc4yCDT2.s 			page 47


     /tmp/cc4yCDT2.s:1452   .text:00000000000006e4 .L78
     /tmp/cc4yCDT2.s:1348   .text:00000000000005f8 .LEHB8
     /tmp/cc4yCDT2.s:1461   .text:0000000000000700 .LEHE8
     /tmp/cc4yCDT2.s:3828   .debug_abbrev:0000000000000000 .Ldebug_abbrev0
     /tmp/cc4yCDT2.s:5424   .debug_str:000000000000050d .LASF95
     /tmp/cc4yCDT2.s:5306   .debug_str:0000000000000198 .LASF96
     /tmp/cc4yCDT2.s:5404   .debug_str:000000000000047c .LASF97
     /tmp/cc4yCDT2.s:5206   .debug_ranges:0000000000000000 .Ldebug_ranges0
     /tmp/cc4yCDT2.s:5248   .debug_line:0000000000000000 .Ldebug_line0
     /tmp/cc4yCDT2.s:5314   .debug_str:00000000000001dd .LASF0
     /tmp/cc4yCDT2.s:5328   .debug_str:0000000000000269 .LASF1
     /tmp/cc4yCDT2.s:5388   .debug_str:0000000000000421 .LASF2
     /tmp/cc4yCDT2.s:5290   .debug_str:000000000000012f .LASF3
     /tmp/cc4yCDT2.s:5392   .debug_str:0000000000000439 .LASF4
     /tmp/cc4yCDT2.s:5318   .debug_str:00000000000001fc .LASF5
     /tmp/cc4yCDT2.s:5258   .debug_str:000000000000003f .LASF6
     /tmp/cc4yCDT2.s:5364   .debug_str:000000000000038f .LASF7
     /tmp/cc4yCDT2.s:5324   .debug_str:0000000000000244 .LASF8
     /tmp/cc4yCDT2.s:5300   .debug_str:0000000000000162 .LASF9
     /tmp/cc4yCDT2.s:5304   .debug_str:000000000000018a .LASF10
     /tmp/cc4yCDT2.s:5272   .debug_str:00000000000000a8 .LASF11
     /tmp/cc4yCDT2.s:5296   .debug_str:000000000000014e .LASF12
     /tmp/cc4yCDT2.s:5278   .debug_str:00000000000000d9 .LASF13
     /tmp/cc4yCDT2.s:5270   .debug_str:0000000000000098 .LASF14
     /tmp/cc4yCDT2.s:5412   .debug_str:00000000000004d1 .LASF15
     /tmp/cc4yCDT2.s:5286   .debug_str:0000000000000112 .LASF16
     /tmp/cc4yCDT2.s:5406   .debug_str:000000000000049c .LASF17
     /tmp/cc4yCDT2.s:5340   .debug_str:00000000000002cc .LASF18
     /tmp/cc4yCDT2.s:5416   .debug_str:00000000000004e7 .LASF19
     /tmp/cc4yCDT2.s:5390   .debug_str:000000000000042f .LASF20
     /tmp/cc4yCDT2.s:5346   .debug_str:00000000000002f0 .LASF21
     /tmp/cc4yCDT2.s:5394   .debug_str:0000000000000440 .LASF22
     /tmp/cc4yCDT2.s:5396   .debug_str:000000000000044a .LASF23
     /tmp/cc4yCDT2.s:5308   .debug_str:00000000000001b6 .LASF98
     /tmp/cc4yCDT2.s:5254   .debug_str:0000000000000022 .LASF24
     /tmp/cc4yCDT2.s:5446   .debug_str:000000000000068b .LASF26
     /tmp/cc4yCDT2.s:5360   .debug_str:0000000000000367 .LASF25
     /tmp/cc4yCDT2.s:5284   .debug_str:0000000000000109 .LASF27
     /tmp/cc4yCDT2.s:5376   .debug_str:00000000000003db .LASF28
     /tmp/cc4yCDT2.s:5420   .debug_str:00000000000004f8 .LASF29
     /tmp/cc4yCDT2.s:5454   .debug_str:00000000000006a9 .LASF30
     /tmp/cc4yCDT2.s:5362   .debug_str:000000000000037d .LASF31
     /tmp/cc4yCDT2.s:5292   .debug_str:0000000000000135 .LASF32
     /tmp/cc4yCDT2.s:5374   .debug_str:00000000000003cf .LASF33
     /tmp/cc4yCDT2.s:5438   .debug_str:0000000000000644 .LASF39
     /tmp/cc4yCDT2.s:5266   .debug_str:0000000000000078 .LASF41
     /tmp/cc4yCDT2.s:5326   .debug_str:0000000000000257 .LASF43
     /tmp/cc4yCDT2.s:5386   .debug_str:0000000000000418 .LASF34
     /tmp/cc4yCDT2.s:5442   .debug_str:000000000000066c .LASF46
     /tmp/cc4yCDT2.s:5452   .debug_str:00000000000006a1 .LASF35
     /tmp/cc4yCDT2.s:5264   .debug_str:0000000000000066 .LASF36
     /tmp/cc4yCDT2.s:5354   .debug_str:000000000000033d .LASF37
     /tmp/cc4yCDT2.s:5372   .debug_str:00000000000003c3 .LASF38
     /tmp/cc4yCDT2.s:5320   .debug_str:000000000000020e .LASF40
     /tmp/cc4yCDT2.s:5338   .debug_str:00000000000002bc .LASF42
     /tmp/cc4yCDT2.s:5434   .debug_str:0000000000000616 .LASF44
     /tmp/cc4yCDT2.s:5384   .debug_str:000000000000040f .LASF45
GAS LISTING /tmp/cc4yCDT2.s 			page 48


     /tmp/cc4yCDT2.s:5312   .debug_str:00000000000001cd .LASF47
     /tmp/cc4yCDT2.s:5450   .debug_str:0000000000000699 .LASF48
     /tmp/cc4yCDT2.s:5352   .debug_str:000000000000032b .LASF49
     /tmp/cc4yCDT2.s:5430   .debug_str:00000000000005f1 .LASF50
     /tmp/cc4yCDT2.s:5370   .debug_str:00000000000003b7 .LASF51
     /tmp/cc4yCDT2.s:5348   .debug_str:00000000000002fa .LASF52
     /tmp/cc4yCDT2.s:5428   .debug_str:00000000000005e1 .LASF53
     /tmp/cc4yCDT2.s:5316   .debug_str:00000000000001ea .LASF54
     /tmp/cc4yCDT2.s:5382   .debug_str:0000000000000406 .LASF55
     /tmp/cc4yCDT2.s:5336   .debug_str:00000000000002ac .LASF56
     /tmp/cc4yCDT2.s:5448   .debug_str:0000000000000691 .LASF57
     /tmp/cc4yCDT2.s:5250   .debug_str:0000000000000000 .LASF58
     /tmp/cc4yCDT2.s:5274   .debug_str:00000000000000b7 .LASF59
     /tmp/cc4yCDT2.s:5368   .debug_str:00000000000003ab .LASF60
     /tmp/cc4yCDT2.s:5436   .debug_str:0000000000000628 .LASF61
     /tmp/cc4yCDT2.s:5282   .debug_str:00000000000000f9 .LASF62
     /tmp/cc4yCDT2.s:5432   .debug_str:0000000000000604 .LASF63
     /tmp/cc4yCDT2.s:5380   .debug_str:00000000000003fd .LASF64
     /tmp/cc4yCDT2.s:5268   .debug_str:0000000000000088 .LASF65
     /tmp/cc4yCDT2.s:5298   .debug_str:000000000000015d .LASF66
     /tmp/cc4yCDT2.s:5256   .debug_str:0000000000000035 .LASF67
     /tmp/cc4yCDT2.s:5422   .debug_str:00000000000004fd .LASF68
     /tmp/cc4yCDT2.s:119    .text._ZN7WorkerAD0Ev:0000000000000000 .LFB56
     /tmp/cc4yCDT2.s:159    .text._ZN7WorkerAD0Ev:000000000000004c .LFE56
     /tmp/cc4yCDT2.s:4594   .debug_loc:0000000000000000 .LLST2
     /tmp/cc4yCDT2.s:135    .text._ZN7WorkerAD0Ev:0000000000000018 .LBB29
     /tmp/cc4yCDT2.s:143    .text._ZN7WorkerAD0Ev:000000000000002c .LBE29
     /tmp/cc4yCDT2.s:4612   .debug_loc:000000000000004c .LLST3
     /tmp/cc4yCDT2.s:141    .text._ZN7WorkerAD0Ev:000000000000002c .LVL11
     /tmp/cc4yCDT2.s:146    .text._ZN7WorkerAD0Ev:0000000000000038 .LVL12
     /tmp/cc4yCDT2.s:5334   .debug_str:000000000000029c .LASF69
     /tmp/cc4yCDT2.s:82     .text._ZN7WorkerAD2Ev:0000000000000000 .LFB54
     /tmp/cc4yCDT2.s:110    .text._ZN7WorkerAD2Ev:0000000000000034 .LFE54
     /tmp/cc4yCDT2.s:4623   .debug_loc:0000000000000082 .LLST1
     /tmp/cc4yCDT2.s:99     .text._ZN7WorkerAD2Ev:0000000000000024 .LVL8
     /tmp/cc4yCDT2.s:5330   .debug_str:000000000000027c .LASF70
     /tmp/cc4yCDT2.s:203    .text._ZN7WorkerBD0Ev:0000000000000000 .LFB52
     /tmp/cc4yCDT2.s:243    .text._ZN7WorkerBD0Ev:000000000000004c .LFE52
     /tmp/cc4yCDT2.s:4637   .debug_loc:00000000000000bb .LLST5
     /tmp/cc4yCDT2.s:219    .text._ZN7WorkerBD0Ev:0000000000000018 .LBB32
     /tmp/cc4yCDT2.s:227    .text._ZN7WorkerBD0Ev:000000000000002c .LBE32
     /tmp/cc4yCDT2.s:4655   .debug_loc:0000000000000107 .LLST6
     /tmp/cc4yCDT2.s:225    .text._ZN7WorkerBD0Ev:000000000000002c .LVL18
     /tmp/cc4yCDT2.s:230    .text._ZN7WorkerBD0Ev:0000000000000038 .LVL19
     /tmp/cc4yCDT2.s:5262   .debug_str:0000000000000056 .LASF71
     /tmp/cc4yCDT2.s:166    .text._ZN7WorkerBD2Ev:0000000000000000 .LFB50
     /tmp/cc4yCDT2.s:194    .text._ZN7WorkerBD2Ev:0000000000000034 .LFE50
     /tmp/cc4yCDT2.s:4666   .debug_loc:000000000000013d .LLST4
     /tmp/cc4yCDT2.s:183    .text._ZN7WorkerBD2Ev:0000000000000024 .LVL15
     /tmp/cc4yCDT2.s:5260   .debug_str:0000000000000046 .LASF72
     /tmp/cc4yCDT2.s:287    .text._ZN7WorkerCD0Ev:0000000000000000 .LFB48
     /tmp/cc4yCDT2.s:327    .text._ZN7WorkerCD0Ev:000000000000004c .LFE48
     /tmp/cc4yCDT2.s:4680   .debug_loc:0000000000000176 .LLST8
     /tmp/cc4yCDT2.s:303    .text._ZN7WorkerCD0Ev:0000000000000018 .LBB35
     /tmp/cc4yCDT2.s:311    .text._ZN7WorkerCD0Ev:000000000000002c .LBE35
     /tmp/cc4yCDT2.s:4698   .debug_loc:00000000000001c2 .LLST9
     /tmp/cc4yCDT2.s:309    .text._ZN7WorkerCD0Ev:000000000000002c .LVL25
GAS LISTING /tmp/cc4yCDT2.s 			page 49


     /tmp/cc4yCDT2.s:314    .text._ZN7WorkerCD0Ev:0000000000000038 .LVL26
     /tmp/cc4yCDT2.s:5402   .debug_str:000000000000046c .LASF73
     /tmp/cc4yCDT2.s:250    .text._ZN7WorkerCD2Ev:0000000000000000 .LFB46
     /tmp/cc4yCDT2.s:278    .text._ZN7WorkerCD2Ev:0000000000000034 .LFE46
     /tmp/cc4yCDT2.s:4709   .debug_loc:00000000000001f8 .LLST7
     /tmp/cc4yCDT2.s:267    .text._ZN7WorkerCD2Ev:0000000000000024 .LVL22
     /tmp/cc4yCDT2.s:5398   .debug_str:0000000000000454 .LASF74
     /tmp/cc4yCDT2.s:371    .text._ZN7WorkerDD0Ev:0000000000000000 .LFB44
     /tmp/cc4yCDT2.s:411    .text._ZN7WorkerDD0Ev:000000000000004c .LFE44
     /tmp/cc4yCDT2.s:4723   .debug_loc:0000000000000231 .LLST11
     /tmp/cc4yCDT2.s:387    .text._ZN7WorkerDD0Ev:0000000000000018 .LBB38
     /tmp/cc4yCDT2.s:395    .text._ZN7WorkerDD0Ev:000000000000002c .LBE38
     /tmp/cc4yCDT2.s:4741   .debug_loc:000000000000027d .LLST12
     /tmp/cc4yCDT2.s:393    .text._ZN7WorkerDD0Ev:000000000000002c .LVL32
     /tmp/cc4yCDT2.s:398    .text._ZN7WorkerDD0Ev:0000000000000038 .LVL33
     /tmp/cc4yCDT2.s:5310   .debug_str:00000000000001bd .LASF75
     /tmp/cc4yCDT2.s:334    .text._ZN7WorkerDD2Ev:0000000000000000 .LFB42
     /tmp/cc4yCDT2.s:362    .text._ZN7WorkerDD2Ev:0000000000000034 .LFE42
     /tmp/cc4yCDT2.s:4752   .debug_loc:00000000000002b3 .LLST10
     /tmp/cc4yCDT2.s:351    .text._ZN7WorkerDD2Ev:0000000000000024 .LVL29
     /tmp/cc4yCDT2.s:5350   .debug_str:0000000000000316 .LASF99
     /tmp/cc4yCDT2.s:5322   .debug_str:000000000000022a .LASF100
     /tmp/cc4yCDT2.s:1478   .text:0000000000000718 .LFE40
     /tmp/cc4yCDT2.s:5400   .debug_str:0000000000000464 .LASF76
     /tmp/cc4yCDT2.s:1351   .text:0000000000000600 .LBB64
     /tmp/cc4yCDT2.s:1374   .text:000000000000062c .LBE64
     /tmp/cc4yCDT2.s:4766   .debug_loc:00000000000002ec .LLST40
     /tmp/cc4yCDT2.s:1367   .text:0000000000000624 .LVL151
     /tmp/cc4yCDT2.s:1403   .text:000000000000066c .LBB65
     /tmp/cc4yCDT2.s:1426   .text:0000000000000694 .LBE65
     /tmp/cc4yCDT2.s:5288   .debug_str:0000000000000128 .LASF77
     /tmp/cc4yCDT2.s:4777   .debug_loc:0000000000000322 .LLST41
     /tmp/cc4yCDT2.s:5408   .debug_str:00000000000004b2 .LASF78
     /tmp/cc4yCDT2.s:5418   .debug_str:00000000000004ec .LASF101
     /tmp/cc4yCDT2.s:4784   .debug_loc:0000000000000345 .LLST42
     /tmp/cc4yCDT2.s:5414   .debug_str:00000000000004dd .LASF79
     /tmp/cc4yCDT2.s:1244   .text:0000000000000524 .LBB56
     /tmp/cc4yCDT2.s:1254   .text:0000000000000538 .LBE56
     /tmp/cc4yCDT2.s:4795   .debug_loc:000000000000037b .LLST36
     /tmp/cc4yCDT2.s:1248   .text:000000000000052c .LVL132
     /tmp/cc4yCDT2.s:1276   .text:0000000000000568 .LBB58
     /tmp/cc4yCDT2.s:1286   .text:000000000000057c .LBE58
     /tmp/cc4yCDT2.s:4806   .debug_loc:00000000000003b1 .LLST37
     /tmp/cc4yCDT2.s:1280   .text:0000000000000570 .LVL137
     /tmp/cc4yCDT2.s:1304   .text:00000000000005a0 .LBB60
     /tmp/cc4yCDT2.s:1314   .text:00000000000005b4 .LBE60
     /tmp/cc4yCDT2.s:4817   .debug_loc:00000000000003e7 .LLST38
     /tmp/cc4yCDT2.s:1308   .text:00000000000005a8 .LVL142
     /tmp/cc4yCDT2.s:1332   .text:00000000000005d8 .LBB62
     /tmp/cc4yCDT2.s:1342   .text:00000000000005ec .LBE62
     /tmp/cc4yCDT2.s:4828   .debug_loc:000000000000041d .LLST39
     /tmp/cc4yCDT2.s:1336   .text:00000000000005e0 .LVL147
     /tmp/cc4yCDT2.s:1239   .text:0000000000000520 .LVL130
     /tmp/cc4yCDT2.s:1262   .text:000000000000054c .LVL134
     /tmp/cc4yCDT2.s:1271   .text:0000000000000564 .LVL135
     /tmp/cc4yCDT2.s:1294   .text:0000000000000590 .LVL139
     /tmp/cc4yCDT2.s:1299   .text:000000000000059c .LVL140
GAS LISTING /tmp/cc4yCDT2.s 			page 50


     /tmp/cc4yCDT2.s:1322   .text:00000000000005c8 .LVL144
     /tmp/cc4yCDT2.s:1327   .text:00000000000005d4 .LVL145
     /tmp/cc4yCDT2.s:1350   .text:0000000000000600 .LVL149
     /tmp/cc4yCDT2.s:1378   .text:0000000000000634 .LVL154
     /tmp/cc4yCDT2.s:1430   .text:00000000000006a0 .LVL161
     /tmp/cc4yCDT2.s:1433   .text:00000000000006ac .LVL162
     /tmp/cc4yCDT2.s:1439   .text:00000000000006bc .LVL163
     /tmp/cc4yCDT2.s:1442   .text:00000000000006c8 .LVL164
     /tmp/cc4yCDT2.s:1448   .text:00000000000006d8 .LVL165
     /tmp/cc4yCDT2.s:1451   .text:00000000000006e4 .LVL166
     /tmp/cc4yCDT2.s:1457   .text:00000000000006f4 .LVL167
     /tmp/cc4yCDT2.s:1460   .text:0000000000000700 .LVL168
     /tmp/cc4yCDT2.s:1007   .text:00000000000003a4 .LFB39
     /tmp/cc4yCDT2.s:1162   .text:00000000000004fc .LFE39
     /tmp/cc4yCDT2.s:4839   .debug_loc:0000000000000453 .LLST31
     /tmp/cc4yCDT2.s:4853   .debug_loc:000000000000048c .LLST32
     /tmp/cc4yCDT2.s:4867   .debug_loc:00000000000004c5 .LLST33
     /tmp/cc4yCDT2.s:5458   .debug_str:00000000000006be .LASF80
     /tmp/cc4yCDT2.s:4887   .debug_loc:0000000000000522 .LLST34
     /tmp/cc4yCDT2.s:1034   .text:00000000000003d4 .LVL105
     /tmp/cc4yCDT2.s:1041   .text:00000000000003e8 .LVL106
     /tmp/cc4yCDT2.s:1046   .text:00000000000003f8 .LVL107
     /tmp/cc4yCDT2.s:1061   .text:0000000000000418 .LVL110
     /tmp/cc4yCDT2.s:1072   .text:0000000000000424 .LVL111
     /tmp/cc4yCDT2.s:1077   .text:0000000000000430 .LVL112
     /tmp/cc4yCDT2.s:1085   .text:0000000000000444 .LVL115
     /tmp/cc4yCDT2.s:1092   .text:0000000000000458 .LVL116
     /tmp/cc4yCDT2.s:1097   .text:0000000000000468 .LVL117
     /tmp/cc4yCDT2.s:1104   .text:000000000000047c .LVL118
     /tmp/cc4yCDT2.s:1111   .text:0000000000000490 .LVL119
     /tmp/cc4yCDT2.s:1116   .text:00000000000004a0 .LVL120
     /tmp/cc4yCDT2.s:1133   .text:00000000000004c4 .LVL124
     /tmp/cc4yCDT2.s:1138   .text:00000000000004d4 .LVL125
     /tmp/cc4yCDT2.s:1146   .text:00000000000004e4 .LVL126
     /tmp/cc4yCDT2.s:772    .text:0000000000000214 .LFB38
     /tmp/cc4yCDT2.s:953    .text:00000000000003a4 .LFE38
     /tmp/cc4yCDT2.s:4898   .debug_loc:0000000000000558 .LLST25
     /tmp/cc4yCDT2.s:4912   .debug_loc:0000000000000591 .LLST26
     /tmp/cc4yCDT2.s:4926   .debug_loc:00000000000005ca .LLST27
     /tmp/cc4yCDT2.s:4946   .debug_loc:0000000000000627 .LLST28
     /tmp/cc4yCDT2.s:4954   .debug_loc:000000000000064b .LLST29
     /tmp/cc4yCDT2.s:799    .text:0000000000000244 .LVL73
     /tmp/cc4yCDT2.s:806    .text:0000000000000258 .LVL74
     /tmp/cc4yCDT2.s:811    .text:0000000000000268 .LVL75
     /tmp/cc4yCDT2.s:826    .text:0000000000000288 .LVL78
     /tmp/cc4yCDT2.s:837    .text:0000000000000294 .LVL79
     /tmp/cc4yCDT2.s:851    .text:00000000000002a8 .LVL81
     /tmp/cc4yCDT2.s:858    .text:00000000000002bc .LVL82
     /tmp/cc4yCDT2.s:863    .text:00000000000002cc .LVL83
     /tmp/cc4yCDT2.s:868    .text:00000000000002d8 .LVL84
     /tmp/cc4yCDT2.s:876    .text:00000000000002ec .LVL87
     /tmp/cc4yCDT2.s:883    .text:0000000000000300 .LVL88
     /tmp/cc4yCDT2.s:888    .text:0000000000000310 .LVL89
     /tmp/cc4yCDT2.s:895    .text:0000000000000324 .LVL90
     /tmp/cc4yCDT2.s:902    .text:0000000000000338 .LVL91
     /tmp/cc4yCDT2.s:907    .text:0000000000000348 .LVL92
     /tmp/cc4yCDT2.s:924    .text:000000000000036c .LVL96
GAS LISTING /tmp/cc4yCDT2.s 			page 51


     /tmp/cc4yCDT2.s:929    .text:000000000000037c .LVL97
     /tmp/cc4yCDT2.s:937    .text:000000000000038c .LVL98
     /tmp/cc4yCDT2.s:595    .text:0000000000000140 .LFB37
     /tmp/cc4yCDT2.s:718    .text:0000000000000214 .LFE37
     /tmp/cc4yCDT2.s:4965   .debug_loc:0000000000000681 .LLST19
     /tmp/cc4yCDT2.s:4979   .debug_loc:00000000000006ba .LLST20
     /tmp/cc4yCDT2.s:613    .text:0000000000000158 .LBB48
     /tmp/cc4yCDT2.s:689    .text:00000000000001d8 .LBE48
     /tmp/cc4yCDT2.s:4993   .debug_loc:00000000000006f3 .LLST21
     /tmp/cc4yCDT2.s:5005   .debug_loc:000000000000072a .LLST22
     /tmp/cc4yCDT2.s:636    .text:0000000000000178 .LBB52
     /tmp/cc4yCDT2.s:651    .text:0000000000000190 .LBE52
     /tmp/cc4yCDT2.s:5017   .debug_loc:0000000000000761 .LLST23
     /tmp/cc4yCDT2.s:625    .text:0000000000000168 .LVL55
     /tmp/cc4yCDT2.s:667    .text:00000000000001ac .LVL61
     /tmp/cc4yCDT2.s:674    .text:00000000000001c0 .LVL62
     /tmp/cc4yCDT2.s:679    .text:00000000000001d0 .LVL63
     /tmp/cc4yCDT2.s:694    .text:00000000000001e8 .LVL65
     /tmp/cc4yCDT2.s:702    .text:00000000000001fc .LVL66
     /tmp/cc4yCDT2.s:428    .text:0000000000000074 .LFB36
     /tmp/cc4yCDT2.s:547    .text:0000000000000140 .LFE36
     /tmp/cc4yCDT2.s:5028   .debug_loc:0000000000000797 .LLST13
     /tmp/cc4yCDT2.s:5042   .debug_loc:00000000000007d0 .LLST14
     /tmp/cc4yCDT2.s:446    .text:000000000000008c .LBB40
     /tmp/cc4yCDT2.s:522    .text:000000000000010c .LBE40
     /tmp/cc4yCDT2.s:5056   .debug_loc:0000000000000809 .LLST15
     /tmp/cc4yCDT2.s:5068   .debug_loc:0000000000000840 .LLST16
     /tmp/cc4yCDT2.s:469    .text:00000000000000ac .LBB44
     /tmp/cc4yCDT2.s:484    .text:00000000000000c4 .LBE44
     /tmp/cc4yCDT2.s:5080   .debug_loc:0000000000000877 .LLST17
     /tmp/cc4yCDT2.s:458    .text:000000000000009c .LVL38
     /tmp/cc4yCDT2.s:500    .text:00000000000000e0 .LVL44
     /tmp/cc4yCDT2.s:507    .text:00000000000000f4 .LVL45
     /tmp/cc4yCDT2.s:512    .text:0000000000000104 .LVL46
     /tmp/cc4yCDT2.s:527    .text:000000000000011c .LVL48
     /tmp/cc4yCDT2.s:1169   .text._ZN7WorkerD3runEv:0000000000000000 .LFB35
     /tmp/cc4yCDT2.s:1196   .text._ZN7WorkerD3runEv:000000000000002c .LFE35
     /tmp/cc4yCDT2.s:5091   .debug_loc:00000000000008ad .LLST35
     /tmp/cc4yCDT2.s:1185   .text._ZN7WorkerD3runEv:000000000000001c .LVL129
     /tmp/cc4yCDT2.s:5332   .debug_str:000000000000028c .LASF81
     /tmp/cc4yCDT2.s:960    .text._ZN7WorkerC3runEv:0000000000000000 .LFB31
     /tmp/cc4yCDT2.s:987    .text._ZN7WorkerC3runEv:000000000000002c .LFE31
     /tmp/cc4yCDT2.s:5105   .debug_loc:00000000000008e6 .LLST30
     /tmp/cc4yCDT2.s:976    .text._ZN7WorkerC3runEv:000000000000001c .LVL101
     /tmp/cc4yCDT2.s:5426   .debug_str:00000000000005d1 .LASF82
     /tmp/cc4yCDT2.s:725    .text._ZN7WorkerB3runEv:0000000000000000 .LFB27
     /tmp/cc4yCDT2.s:752    .text._ZN7WorkerB3runEv:000000000000002c .LFE27
     /tmp/cc4yCDT2.s:5119   .debug_loc:000000000000091f .LLST24
     /tmp/cc4yCDT2.s:741    .text._ZN7WorkerB3runEv:000000000000001c .LVL69
     /tmp/cc4yCDT2.s:5280   .debug_str:00000000000000e9 .LASF83
     /tmp/cc4yCDT2.s:554    .text._ZN7WorkerA3runEv:0000000000000000 .LFB23
     /tmp/cc4yCDT2.s:581    .text._ZN7WorkerA3runEv:000000000000002c .LFE23
     /tmp/cc4yCDT2.s:5133   .debug_loc:0000000000000958 .LLST18
     /tmp/cc4yCDT2.s:570    .text._ZN7WorkerA3runEv:000000000000001c .LVL51
     /tmp/cc4yCDT2.s:5356   .debug_str:0000000000000350 .LASF84
     /tmp/cc4yCDT2.s:5342   .debug_str:00000000000002d1 .LASF102
     /tmp/cc4yCDT2.s:9      .text:0000000000000000 .LFB19
GAS LISTING /tmp/cc4yCDT2.s 			page 52


     /tmp/cc4yCDT2.s:75     .text:0000000000000074 .LFE19
     /tmp/cc4yCDT2.s:5147   .debug_loc:0000000000000991 .LLST0
     /tmp/cc4yCDT2.s:42     .text:000000000000003c .LVL2
     /tmp/cc4yCDT2.s:47     .text:000000000000004c .LVL3
     /tmp/cc4yCDT2.s:72     .text:0000000000000070 .LVL6
     /tmp/cc4yCDT2.s:5358   .debug_str:0000000000000360 .LASF85
     /tmp/cc4yCDT2.s:5252   .debug_str:0000000000000012 .LASF86
     /tmp/cc4yCDT2.s:5294   .debug_str:0000000000000148 .LASF87
     /tmp/cc4yCDT2.s:5456   .debug_str:00000000000006b1 .LASF88
     /tmp/cc4yCDT2.s:5410   .debug_str:00000000000004be .LASF89
     /tmp/cc4yCDT2.s:5440   .debug_str:0000000000000660 .LASF90
     /tmp/cc4yCDT2.s:5444   .debug_str:000000000000067c .LASF103
     /tmp/cc4yCDT2.s:5302   .debug_str:0000000000000172 .LASF104
     /tmp/cc4yCDT2.s:5276   .debug_str:00000000000000ca .LASF91
     /tmp/cc4yCDT2.s:5366   .debug_str:00000000000003a2 .LASF92
     /tmp/cc4yCDT2.s:5344   .debug_str:00000000000002db .LASF93
     /tmp/cc4yCDT2.s:5378   .debug_str:00000000000003ed .LASF94
     /tmp/cc4yCDT2.s:122    .text._ZN7WorkerAD0Ev:0000000000000000 .LVL9
     /tmp/cc4yCDT2.s:154    .text._ZN7WorkerAD0Ev:0000000000000044 .LVL13
     /tmp/cc4yCDT2.s:134    .text._ZN7WorkerAD0Ev:0000000000000018 .LVL10
     /tmp/cc4yCDT2.s:85     .text._ZN7WorkerAD2Ev:0000000000000000 .LVL7
     /tmp/cc4yCDT2.s:206    .text._ZN7WorkerBD0Ev:0000000000000000 .LVL16
     /tmp/cc4yCDT2.s:238    .text._ZN7WorkerBD0Ev:0000000000000044 .LVL20
     /tmp/cc4yCDT2.s:218    .text._ZN7WorkerBD0Ev:0000000000000018 .LVL17
     /tmp/cc4yCDT2.s:169    .text._ZN7WorkerBD2Ev:0000000000000000 .LVL14
     /tmp/cc4yCDT2.s:290    .text._ZN7WorkerCD0Ev:0000000000000000 .LVL23
     /tmp/cc4yCDT2.s:322    .text._ZN7WorkerCD0Ev:0000000000000044 .LVL27
     /tmp/cc4yCDT2.s:302    .text._ZN7WorkerCD0Ev:0000000000000018 .LVL24
     /tmp/cc4yCDT2.s:253    .text._ZN7WorkerCD2Ev:0000000000000000 .LVL21
     /tmp/cc4yCDT2.s:374    .text._ZN7WorkerDD0Ev:0000000000000000 .LVL30
     /tmp/cc4yCDT2.s:406    .text._ZN7WorkerDD0Ev:0000000000000044 .LVL34
     /tmp/cc4yCDT2.s:386    .text._ZN7WorkerDD0Ev:0000000000000018 .LVL31
     /tmp/cc4yCDT2.s:337    .text._ZN7WorkerDD2Ev:0000000000000000 .LVL28
     /tmp/cc4yCDT2.s:1355   .text:0000000000000604 .LVL150
     /tmp/cc4yCDT2.s:1370   .text:0000000000000628 .LVL152
     /tmp/cc4yCDT2.s:1372   .text:000000000000062c .LVL153
     /tmp/cc4yCDT2.s:1399   .text:0000000000000668 .LVL155
     /tmp/cc4yCDT2.s:1413   .text:000000000000067c .LVL158
     /tmp/cc4yCDT2.s:1421   .text:000000000000068c .LVL159
     /tmp/cc4yCDT2.s:1401   .text:000000000000066c .LVL156
     /tmp/cc4yCDT2.s:1423   .text:0000000000000690 .LVL160
     /tmp/cc4yCDT2.s:1471   .text:000000000000070c .LVL169
     /tmp/cc4yCDT2.s:1242   .text:0000000000000524 .LVL131
     /tmp/cc4yCDT2.s:1252   .text:0000000000000538 .LVL133
     /tmp/cc4yCDT2.s:1274   .text:0000000000000568 .LVL136
     /tmp/cc4yCDT2.s:1284   .text:000000000000057c .LVL138
     /tmp/cc4yCDT2.s:1302   .text:00000000000005a0 .LVL141
     /tmp/cc4yCDT2.s:1312   .text:00000000000005b4 .LVL143
     /tmp/cc4yCDT2.s:1330   .text:00000000000005d8 .LVL146
     /tmp/cc4yCDT2.s:1340   .text:00000000000005ec .LVL148
     /tmp/cc4yCDT2.s:1010   .text:00000000000003a4 .LVL102
     /tmp/cc4yCDT2.s:1028   .text:00000000000003c4 .LVL104
     /tmp/cc4yCDT2.s:1024   .text:00000000000003bc .LVL103
     /tmp/cc4yCDT2.s:1049   .text:00000000000003fc .LVL108
     /tmp/cc4yCDT2.s:1051   .text:0000000000000400 .LVL109
     /tmp/cc4yCDT2.s:1119   .text:00000000000004a4 .LVL121
     /tmp/cc4yCDT2.s:1121   .text:00000000000004a8 .LVL122
GAS LISTING /tmp/cc4yCDT2.s 			page 53


     /tmp/cc4yCDT2.s:1130   .text:00000000000004b8 .LVL123
     /tmp/cc4yCDT2.s:1079   .text:0000000000000434 .LVL113
     /tmp/cc4yCDT2.s:1083   .text:000000000000043c .LVL114
     /tmp/cc4yCDT2.s:1157   .text:00000000000004f4 .LVL127
     /tmp/cc4yCDT2.s:775    .text:0000000000000214 .LVL70
     /tmp/cc4yCDT2.s:793    .text:0000000000000234 .LVL72
     /tmp/cc4yCDT2.s:789    .text:000000000000022c .LVL71
     /tmp/cc4yCDT2.s:814    .text:000000000000026c .LVL76
     /tmp/cc4yCDT2.s:816    .text:0000000000000270 .LVL77
     /tmp/cc4yCDT2.s:910    .text:000000000000034c .LVL93
     /tmp/cc4yCDT2.s:912    .text:0000000000000350 .LVL94
     /tmp/cc4yCDT2.s:921    .text:0000000000000360 .LVL95
     /tmp/cc4yCDT2.s:845    .text:0000000000000298 .LVL80
     /tmp/cc4yCDT2.s:870    .text:00000000000002dc .LVL85
     /tmp/cc4yCDT2.s:874    .text:00000000000002e4 .LVL86
     /tmp/cc4yCDT2.s:948    .text:000000000000039c .LVL99
     /tmp/cc4yCDT2.s:598    .text:0000000000000140 .LVL52
     /tmp/cc4yCDT2.s:617    .text:0000000000000160 .LVL54
     /tmp/cc4yCDT2.s:612    .text:0000000000000158 .LVL53
     /tmp/cc4yCDT2.s:713    .text:000000000000020c .LVL67
     /tmp/cc4yCDT2.s:657    .text:0000000000000194 .LVL60
     /tmp/cc4yCDT2.s:685    .text:00000000000001d8 .LVL64
     /tmp/cc4yCDT2.s:640    .text:000000000000017c .LVL57
     /tmp/cc4yCDT2.s:649    .text:0000000000000190 .LVL59
     /tmp/cc4yCDT2.s:431    .text:0000000000000074 .LVL35
     /tmp/cc4yCDT2.s:450    .text:0000000000000094 .LVL37
     /tmp/cc4yCDT2.s:445    .text:000000000000008c .LVL36
     /tmp/cc4yCDT2.s:542    .text:0000000000000138 .LVL49
     /tmp/cc4yCDT2.s:490    .text:00000000000000c8 .LVL43
     /tmp/cc4yCDT2.s:518    .text:000000000000010c .LVL47
     /tmp/cc4yCDT2.s:473    .text:00000000000000b0 .LVL40
     /tmp/cc4yCDT2.s:482    .text:00000000000000c4 .LVL42
     /tmp/cc4yCDT2.s:1172   .text._ZN7WorkerD3runEv:0000000000000000 .LVL128
     /tmp/cc4yCDT2.s:963    .text._ZN7WorkerC3runEv:0000000000000000 .LVL100
     /tmp/cc4yCDT2.s:728    .text._ZN7WorkerB3runEv:0000000000000000 .LVL68
     /tmp/cc4yCDT2.s:557    .text._ZN7WorkerA3runEv:0000000000000000 .LVL50
     /tmp/cc4yCDT2.s:13     .text:0000000000000000 .LVL0
     /tmp/cc4yCDT2.s:36     .text:0000000000000030 .LVL1
     /tmp/cc4yCDT2.s:60     .text:000000000000005c .LVL4
     /tmp/cc4yCDT2.s:66     .text:0000000000000068 .LVL5
     /tmp/cc4yCDT2.s:1599   .debug_info:0000000000000000 .Ldebug_info0
     /tmp/cc4yCDT2.s:5      .text:0000000000000000 .Ltext0
     /tmp/cc4yCDT2.s:1593   .text:0000000000000718 .Letext0
     /tmp/cc4yCDT2.s:453    .text:0000000000000094 .LBB42
     /tmp/cc4yCDT2.s:486    .text:00000000000000c4 .LBE42
     /tmp/cc4yCDT2.s:514    .text:0000000000000104 .LBB46
     /tmp/cc4yCDT2.s:520    .text:000000000000010c .LBE46
     /tmp/cc4yCDT2.s:620    .text:0000000000000160 .LBB50
     /tmp/cc4yCDT2.s:653    .text:0000000000000190 .LBE50
     /tmp/cc4yCDT2.s:681    .text:00000000000001d0 .LBB54
     /tmp/cc4yCDT2.s:687    .text:00000000000001d8 .LBE54
     /tmp/cc4yCDT2.s:1481   .gcc_except_table:0000000000000000 .LLSDA40
                           .group:0000000000000000 _ZN7WorkerAD5Ev
                           .group:0000000000000000 _ZN7WorkerBD5Ev
                           .group:0000000000000000 _ZN7WorkerCD5Ev
                           .group:0000000000000000 _ZN7WorkerDD5Ev

GAS LISTING /tmp/cc4yCDT2.s 			page 54


UNDEFINED SYMBOLS
_Z15thread_dispatchv
_ZN6ThreadD2Ev
_ZdlPv
_Z11printStringPKc
_Z8printIntiii
_ZN6Thread4joinEv
_Znwm
_ZN6ThreadC2Ev
_ZN6Thread5startEv
_ZN6Thread8dispatchEv
_Unwind_Resume
__gxx_personality_v0
